 Scylla

 Timestamp is 67dcd7bd (Fri Mar 21 11:06:37 2025)

 Preferred load address is 00400000

 Start         Length     Name                   Class
 0001:00000000 00000240H .text$di                CODE
 0001:00000240 00045d00H .text$mn                CODE
 0001:00045f40 000012b0H .text$x                 CODE
 0001:000471f0 0000026fH .text$yd                CODE
 0002:00000000 000003f4H .idata$5                DATA
 0002:000003f4 00000004H .00cfg                  DATA
 0002:000003f8 00000004H .CRT$XCA                DATA
 0002:000003fc 00000004H .CRT$XCAA               DATA
 0002:00000400 00000004H .CRT$XCL                DATA
 0002:00000404 0000002cH .CRT$XCU                DATA
 0002:00000430 00000004H .CRT$XCZ                DATA
 0002:00000434 00000004H .CRT$XIA                DATA
 0002:00000438 00000004H .CRT$XIAA               DATA
 0002:0000043c 00000004H .CRT$XIAC               DATA
 0002:00000440 00000010H .CRT$XIC                DATA
 0002:00000450 00000004H .CRT$XIZ                DATA
 0002:00000454 00000004H .CRT$XLA                DATA
 0002:00000458 00000004H .CRT$XLZ                DATA
 0002:0000045c 00000004H .CRT$XPA                DATA
 0002:00000460 00000008H .CRT$XPX                DATA
 0002:00000468 00000004H .CRT$XPXA               DATA
 0002:0000046c 00000004H .CRT$XPZ                DATA
 0002:00000470 00000004H .CRT$XTA                DATA
 0002:00000474 0000000cH .CRT$XTZ                DATA
 0002:00000480 0000cfb4H .rdata                  DATA
 0002:0000d434 00000018H .rdata$T                DATA
 0002:0000d44c 000018c4H .rdata$r                DATA
 0002:0000ed10 00000180H .rdata$sxdata           DATA
 0002:0000ee90 000003ccH .rdata$zzzdbg           DATA
 0002:0000f25c 00000004H .rtc$IAA                DATA
 0002:0000f260 00000004H .rtc$IZZ                DATA
 0002:0000f264 00000004H .rtc$TAA                DATA
 0002:0000f268 00000008H .rtc$TZZ                DATA
 0002:0000f270 00001c6cH .xdata$x                DATA
 0002:00010edc 00000004H ATL$__a                 DATA
 0002:00010ee0 00000004H ATL$__z                 DATA
 0002:00010ee4 00000000H .edata                  DATA
 0002:00010ee4 000000dcH .idata$2                DATA
 0002:00010fc0 00000014H .idata$3                DATA
 0002:00010fd4 000003f4H .idata$4                DATA
 0002:000113c8 0000117aH .idata$6                DATA
 0003:00000000 00007738H .data                   DATA
 0003:00007738 00000f78H .data$r                 DATA
 0003:000086b0 0000d764H .bss                    DATA
 0004:00000000 0000008cH .gfids$x                DATA
 0004:0000008c 00000094H .gfids$y                DATA
 0005:00000000 00000004H .tls                    DATA
 0005:00000004 00000004H .tls$                   DATA
 0005:00000008 00000001H .tls$ZZZ                DATA
 0006:00000000 00000670H .rsrc$01                DATA
 0006:00000670 00009330H .rsrc$02                DATA

  Address         Publics by Value              Rva+Base       Lib:Object

 0000:00000000       ___guard_fids_count        00000000     <absolute>
 0000:00000000       ___guard_longjmp_count     00000000     <absolute>
 0000:00000000       ___guard_longjmp_table     00000000     <absolute>
 0000:00000000       __except_list              00000000     <absolute>
 0000:00000000       ___guard_iat_table         00000000     <absolute>
 0000:00000000       ___guard_iat_count         00000000     <absolute>
 0000:00000000       ___guard_fids_table        00000000     <absolute>
 0000:00000000       ___dynamic_value_reloc_table 00000000     <absolute>
 0000:0000002c       __tls_array                0000002c     <absolute>
 0000:00000060       ___safe_se_handler_count   00000060     <absolute>
 0000:00000100       ___guard_flags             00000100     <absolute>
 0000:00000000       ___ImageBase               00400000     <linker-defined>
 0001:00000240       ?Init@CComCriticalSection@ATL@@QAEJXZ 00401240 f i AboutGui.obj
 0001:00000270       ??0CAtlComModule@ATL@@QAE@XZ 00401270 f i AboutGui.obj
 0001:000002f0       ?Term@CAtlComModule@ATL@@QAEXXZ 004012f0 f i AboutGui.obj
 0001:00000360       ??1_ATL_COM_MODULE70@ATL@@QAE@XZ 00401360 f i AboutGui.obj
 0001:00000360       ?_Orphan_all@?$_Vector_alloc@U?$_Vec_base_types@VModuleInfo@@V?$allocator@VModuleInfo@@@std@@@std@@@std@@QAEXXZ 00401360 f i ProcessAccessHelp.obj
 0001:00000360       ??1_ATL_MODULE70@ATL@@QAE@XZ 00401360 f i main.obj
 0001:00000360       __initialize_denormal_control 00401360 f i LIBCMT:denormal_control.obj
 0001:00000360       ??1?$CMenuT@$0A@@WTL@@QAE@XZ 00401360 f i DisassemblerGui.obj
 0001:00000360       ___except_validate_jump_buffer 00401360 f i libvcruntime:jbcxrval.obj
 0001:00000360       ??3@YAXPAX0@Z              00401360 f i ApiReader.obj
 0001:00000360       ___except_validate_context_record 00401360 f i libvcruntime:jbcxrval.obj
 0001:00000360       @_guard_check_icall_nop@4  00401360 f i LIBCMT:guard_support.obj
 0001:00000360       __initialize_invalid_parameter_handler 00401360 f i LIBCMT:invalid_parameter_handler.obj
 0001:00000370       ??0CAtlWinModule@ATL@@QAE@XZ 00401370 f i AboutGui.obj
 0001:00000400       ?AtlWinModuleTerm@ATL@@YGJPAU_ATL_WIN_MODULE70@1@PAUHINSTANCE__@@@Z 00401400 f i AboutGui.obj
 0001:000004b0       ?IsWindowsVersionOrGreater@@YA_NGGG@Z 004014b0 f i AboutGui.obj
 0001:00000580       ?CenterWindow@CWindow@ATL@@QAEHPAUHWND__@@@Z 00401580 f i AboutGui.obj
 0001:00000750       ?DoDataExchange@AboutGui@@QAEHHI@Z 00401750 f i AboutGui.obj
 0001:00000890       ?OnInitDialog@AboutGui@@IAEHVCWindow@ATL@@J@Z 00401890 f   AboutGui.obj
 0001:00000960       ?OnClose@AboutGui@@IAEXXZ  00401960 f   AboutGui.obj
 0001:000009d0       ?OnLink@AboutGui@@IAEJPAUtagNMHDR@@@Z 004019d0 f   AboutGui.obj
 0001:00000a00       ?setupLinks@AboutGui@@IAEXXZ 00401a00 f   AboutGui.obj
 0001:00000d90       ?setupTooltip@AboutGui@@IAEXV?$CToolTipCtrlT@VCWindow@ATL@@@WTL@@VCWindow@ATL@@PB_W@Z 00401d90 f   AboutGui.obj
 0001:00000e40       ?readApisFromModuleList@ApiReader@@QAEXXZ 00401e40 f   ApiReader.obj
 0001:00000f40       ?parseModule@ApiReader@@AAEXPAVModuleInfo@@@Z 00401f40 f   ApiReader.obj
 0001:000010d0       ?handleForwardedApi@ApiReader@@AAEXKPADKGPAVModuleInfo@@@Z 004020d0 f   ApiReader.obj
 0001:00001390       ?findModuleByName@ApiReader@@AAEPAVModuleInfo@@PA_W@Z 00402390 f   ApiReader.obj
 0001:00001430       ?addApi@ApiReader@@AAEXPADGGKK_NPAVModuleInfo@@@Z 00402430 f   ApiReader.obj
 0001:00001570       ?parseModuleWithProcess@ApiReader@@AAEXPAVModuleInfo@@@Z 00402570 f   ApiReader.obj
 0001:000016f0       ?parseExportTable@ApiReader@@AAEXPAVModuleInfo@@PAU_IMAGE_NT_HEADERS@@PAU_IMAGE_EXPORT_DIRECTORY@@K@Z 004026f0 f   ApiReader.obj
 0001:000018a0       ?isModuleLoadedInOwnProcess@ApiReader@@AAE_NPAVModuleInfo@@@Z 004028a0 f   ApiReader.obj
 0001:00001920       ?findApiInProcess@ApiReader@@AAEXPAVModuleInfo@@PADGPAK2@Z 00402920 f   ApiReader.obj
 0001:00001a20       ?findApiInExportTable@ApiReader@@AAE_NPAVModuleInfo@@PAU_IMAGE_EXPORT_DIRECTORY@@KPADGPAK3@Z 00402a20 f   ApiReader.obj
 0001:00001b00       ?setModulePriority@ApiReader@@AAEXPAVModuleInfo@@@Z 00402b00 f   ApiReader.obj
 0001:00001be0       ?getApiByVirtualAddress@ApiReader@@QAEPAVApiInfo@@KPA_N@Z 00402be0 f   ApiReader.obj
 0001:00001fa0       ?readAndParseIAT@ApiReader@@QAEXKKAAV?$map@KVImportModuleThunk@@U?$less@K@std@@V?$allocator@U?$pair@$$CBKVImportModuleThunk@@@std@@@3@@std@@@Z 00402fa0 f   ApiReader.obj
 0001:00001ff0       ?parseIAT@ApiReader@@AAEXKPAEK@Z 00402ff0 f   ApiReader.obj
 0001:00002130       ?addModuleToModuleList@ApiReader@@AAE_NPB_WK@Z 00403130 f   ApiReader.obj
 0001:00002290       ??1ImportModuleThunk@@QAE@XZ 00403290 f i ApiReader.obj
 0001:000022c0       ??1?$pair@KVImportModuleThunk@@@std@@QAE@XZ 004032c0 f i ApiReader.obj
 0001:000022f0       ?addUnknownModuleToModuleList@ApiReader@@AAEXK@Z 004032f0 f   ApiReader.obj
 0001:00002450       ?addFunctionToModuleList@ApiReader@@AAE_NPAVApiInfo@@KKG_N1@Z 00403450 f   ApiReader.obj
 0001:000025d0       ?clearAll@ApiReader@@QAEXXZ 004035d0 f   ApiReader.obj
 0001:000026c0       ?addNotFoundApiToModuleList@ApiReader@@AAE_NKK@Z 004036c0 f   ApiReader.obj
 0001:000028b0       ?isInvalidMemoryForIat@ApiReader@@QAE_NK@Z 004038b0 f   ApiReader.obj
 0001:00002940       ??1?$_Hash@V?$_Hmap_traits@KPAVApiInfo@@V?$hash_compare@KU?$less@K@std@@@stdext@@V?$allocator@U?$pair@$$CBKPAVApiInfo@@@std@@@std@@$00@stdext@@@std@@QAE@XZ 00403940 f i ApiReader.obj
 0001:000029c0       ?push_back@?$vector@PAVApiInfo@@V?$allocator@PAVApiInfo@@@std@@@std@@QAEXABQAVApiInfo@@@Z 004039c0 f i ApiReader.obj
 0001:00002ac0       ?_Erase@?$_Tree@V?$_Tmap_traits@KVImportModuleThunk@@U?$less@K@std@@V?$allocator@U?$pair@$$CBKVImportModuleThunk@@@std@@@3@$0A@@std@@@std@@IAEXPAU?$_Tree_node@U?$pair@$$CBKVImportModuleThunk@@@std@@PAX@2@@Z 00403ac0 f i ApiReader.obj
 0001:00002b40       ?_Init@?$_Hash@V?$_Hmap_traits@PAU_TREEITEM@@UTreeItemData@ImportsHandling@@V?$hash_compare@PAU_TREEITEM@@U?$less@PAU_TREEITEM@@@std@@@stdext@@V?$allocator@U?$pair@QAU_TREEITEM@@UTreeItemData@ImportsHandling@@@std@@@std@@$0A@@stdext@@@std@@IAEXI@Z 00403b40 f i ImportsHandling.obj
 0001:00002b40       ?_Init@?$_Hash@V?$_Hmap_traits@KPAVApiInfo@@V?$hash_compare@KU?$less@K@std@@@stdext@@V?$allocator@U?$pair@$$CBKPAVApiInfo@@@std@@@std@@$00@stdext@@@std@@IAEXI@Z 00403b40 f i ApiReader.obj
 0001:00002bb0       ?equal_range@?$_Hash@V?$_Hmap_traits@KPAVApiInfo@@V?$hash_compare@KU?$less@K@std@@@stdext@@V?$allocator@U?$pair@$$CBKPAVApiInfo@@@std@@@std@@$00@stdext@@@std@@QBE?AU?$pair@V?$_List_const_iterator@V?$_List_val@U?$_List_simple_types@U?$pair@$$CBKPAVApiInfo@@@std@@@std@@@std@@@std@@V12@@2@ABK@Z 00403bb0 f i ApiReader.obj
 0001:00002ca0       ?lower_bound@?$_Hash@V?$_Hmap_traits@KPAVApiInfo@@V?$hash_compare@KU?$less@K@std@@@stdext@@V?$allocator@U?$pair@$$CBKPAVApiInfo@@@std@@@std@@$00@stdext@@@std@@QAE?AV?$_List_iterator@V?$_List_val@U?$_List_simple_types@U?$pair@$$CBKPAVApiInfo@@@std@@@std@@@std@@@2@ABK@Z 00403ca0 f i ApiReader.obj
 0001:00002d40       ??0?$_Hash@V?$_Hmap_traits@KPAVApiInfo@@V?$hash_compare@KU?$less@K@std@@@stdext@@V?$allocator@U?$pair@$$CBKPAVApiInfo@@@std@@@std@@$00@stdext@@@std@@QAE@ABV?$hash_compare@KU?$less@K@std@@@stdext@@ABV?$allocator@U?$pair@$$CBKPAVApiInfo@@@std@@@1@@Z 00403d40 f i ApiReader.obj
 0001:00002e00       ??1?$vector@V?$_List_unchecked_iterator@V?$_List_val@U?$_List_simple_types@U?$pair@$$CBKPAVApiInfo@@@std@@@std@@@std@@@std@@U?$_Wrap_alloc@V?$allocator@V?$_List_unchecked_iterator@V?$_List_val@U?$_List_simple_types@U?$pair@$$CBKPAVApiInfo@@@std@@@std@@@std@@@std@@@std@@@2@@std@@QAE@XZ 00403e00 f i ApiReader.obj
 0001:00002e00       ??1?$vector@V?$_List_unchecked_iterator@V?$_List_val@U?$_List_simple_types@U?$pair@QAU_TREEITEM@@UTreeItemData@ImportsHandling@@@std@@@std@@@std@@@std@@U?$_Wrap_alloc@V?$allocator@V?$_List_unchecked_iterator@V?$_List_val@U?$_List_simple_types@U?$pair@QAU_TREEITEM@@UTreeItemData@ImportsHandling@@@std@@@std@@@std@@@std@@@std@@@2@@std@@QAE@XZ 00403e00 f i ImportsHandling.obj
 0001:00002e00       ??1?$vector@KV?$allocator@K@std@@@std@@QAE@XZ 00403e00 f i DisassemblerGui.obj
 0001:00002e00       ??1?$vector@PAVApiInfo@@V?$allocator@PAVApiInfo@@@std@@@std@@QAE@XZ 00403e00 f i PickApiGui.obj
 0001:00002e30       ??1?$list@U?$pair@QAU_TREEITEM@@UTreeItemData@ImportsHandling@@@std@@V?$allocator@U?$pair@QAU_TREEITEM@@UTreeItemData@ImportsHandling@@@std@@@2@@std@@QAE@XZ 00403e30 f i ImportsHandling.obj
 0001:00002e30       ??1?$list@U?$pair@$$CBKPAVApiInfo@@@std@@V?$allocator@U?$pair@$$CBKPAVApiInfo@@@std@@@2@@std@@QAE@XZ 00403e30 f i ApiReader.obj
 0001:00002e70       ??1?$_Tree_comp_alloc@V?$_Tmap_traits@KVImportThunk@@U?$less@K@std@@V?$allocator@U?$pair@$$CBKVImportThunk@@@std@@@3@$0A@@std@@@std@@QAE@XZ 00403e70 f i ApiReader.obj
 0001:00002e80       ?deallocate@?$_Wrap_alloc@V?$allocator@K@std@@@std@@QAEXPAKI@Z 00403e80 f i DisassemblerGui.obj
 0001:00002e80       ?deallocate@?$_Wrap_alloc@U?$_Wrap_alloc@V?$allocator@V?$_List_unchecked_iterator@V?$_List_val@U?$_List_simple_types@U?$pair@QAU_TREEITEM@@UTreeItemData@ImportsHandling@@@std@@@std@@@std@@@std@@@std@@@std@@@std@@QAEXPAV?$_List_unchecked_iterator@V?$_List_val@U?$_List_simple_types@U?$pair@QAU_TREEITEM@@UTreeItemData@ImportsHandling@@@std@@@std@@@std@@@2@I@Z 00403e80 f i ImportsHandling.obj
 0001:00002e80       ?deallocate@?$_Wrap_alloc@V?$allocator@PAVApiInfo@@@std@@@std@@QAEXPAPAVApiInfo@@I@Z 00403e80 f i ApiReader.obj
 0001:00002e80       ?deallocate@?$_Wrap_alloc@U?$_Wrap_alloc@V?$allocator@V?$_List_unchecked_iterator@V?$_List_val@U?$_List_simple_types@U?$pair@$$CBKPAVApiInfo@@@std@@@std@@@std@@@std@@@std@@@std@@@std@@QAEXPAV?$_List_unchecked_iterator@V?$_List_val@U?$_List_simple_types@U?$pair@$$CBKPAVApiInfo@@@std@@@std@@@std@@@2@I@Z 00403e80 f i ApiReader.obj
 0001:00002ee0       ?_Reallocate@?$vector@PAVApiInfo@@V?$allocator@PAVApiInfo@@@std@@@std@@IAEXI@Z 00403ee0 f i ApiReader.obj
 0001:00002ee0       ?_Reallocate@?$vector@KV?$allocator@K@std@@@std@@IAEXI@Z 00403ee0 f i DisassemblerGui.obj
 0001:00002f90       ??F?$_Tree_unchecked_const_iterator@V?$_Tree_val@U?$_Tree_simple_types@K@std@@@std@@U_Iterator_base0@2@@std@@QAEAAV01@XZ 00403f90 f i IATReferenceScan.obj
 0001:00002f90       ??F?$_Tree_unchecked_const_iterator@V?$_Tree_val@U?$_Tree_simple_types@U?$pair@$$CBKVImportModuleThunk@@@std@@@std@@@std@@U_Iterator_base0@2@@std@@QAEAAV01@XZ 00403f90 f i ApiReader.obj
 0001:00002f90       ??F?$_Tree_unchecked_const_iterator@V?$_Tree_val@U?$_Tree_simple_types@U?$pair@$$CBKVImportThunk@@@std@@@std@@@std@@U_Iterator_base0@2@@std@@QAEAAV01@XZ 00403f90 f i ApiReader.obj
 0001:00002f90       ??F?$_Tree_unchecked_const_iterator@V?$_Tree_val@U?$_Tree_simple_types@U?$pair@$$CBW4ConfigOption@@VConfiguration@@@std@@@std@@@std@@U_Iterator_base0@2@@std@@QAEAAV01@XZ 00403f90 f i ConfigurationHolder.obj
 0001:00002ff0       ??E?$_Tree_unchecked_const_iterator@V?$_Tree_val@U?$_Tree_simple_types@U?$pair@$$CBKVImportThunk@@@std@@@std@@@std@@U_Iterator_base0@2@@std@@QAEAAV01@XZ 00403ff0 f i ApiReader.obj
 0001:00002ff0       ??E?$_Tree_unchecked_const_iterator@V?$_Tree_val@U?$_Tree_simple_types@K@std@@@std@@U_Iterator_base0@2@@std@@QAEAAV01@XZ 00403ff0 f i IATReferenceScan.obj
 0001:00002ff0       ??E?$_Tree_unchecked_const_iterator@V?$_Tree_val@U?$_Tree_simple_types@U?$pair@$$CBW4ConfigOption@@VConfiguration@@@std@@@std@@@std@@U_Iterator_base0@2@@std@@QAEAAV01@XZ 00403ff0 f i ConfigurationHolder.obj
 0001:00002ff0       ??E?$_Tree_unchecked_const_iterator@V?$_Tree_val@U?$_Tree_simple_types@U?$pair@$$CBKVImportModuleThunk@@@std@@@std@@@std@@U_Iterator_base0@2@@std@@QAEAAV01@XZ 00403ff0 f i ApiReader.obj
 0001:00003040       ?_Reallocate@?$vector@V?$_List_unchecked_iterator@V?$_List_val@U?$_List_simple_types@U?$pair@QAU_TREEITEM@@UTreeItemData@ImportsHandling@@@std@@@std@@@std@@@std@@U?$_Wrap_alloc@V?$allocator@V?$_List_unchecked_iterator@V?$_List_val@U?$_List_simple_types@U?$pair@QAU_TREEITEM@@UTreeItemData@ImportsHandling@@@std@@@std@@@std@@@std@@@std@@@2@@std@@IAEXI@Z 00404040 f i ImportsHandling.obj
 0001:00003040       ?_Reallocate@?$vector@V?$_List_unchecked_iterator@V?$_List_val@U?$_List_simple_types@U?$pair@$$CBKPAVApiInfo@@@std@@@std@@@std@@@std@@U?$_Wrap_alloc@V?$allocator@V?$_List_unchecked_iterator@V?$_List_val@U?$_List_simple_types@U?$pair@$$CBKPAVApiInfo@@@std@@@std@@@std@@@std@@@std@@@2@@std@@IAEXI@Z 00404040 f i ApiReader.obj
 0001:000030f0       ?clear@?$_Tree@V?$_Tmap_traits@W4ConfigOption@@VConfiguration@@U?$less@W4ConfigOption@@@std@@V?$allocator@U?$pair@$$CBW4ConfigOption@@VConfiguration@@@std@@@4@$0A@@std@@@std@@QAEXXZ 004040f0 f i ConfigurationHolder.obj
 0001:000030f0       ?clear@?$_Tree@V?$_Tmap_traits@KVImportThunk@@U?$less@K@std@@V?$allocator@U?$pair@$$CBKVImportThunk@@@std@@@3@$0A@@std@@@std@@QAEXXZ 004040f0 f i ApiReader.obj
 0001:000030f0       ?clear@?$_Tree@V?$_Tset_traits@KU?$less@K@std@@V?$allocator@K@2@$0A@@std@@@std@@QAEXXZ 004040f0 f i IATReferenceScan.obj
 0001:00003170       ?erase@?$_Tree@V?$_Tmap_traits@KVImportThunk@@U?$less@K@std@@V?$allocator@U?$pair@$$CBKVImportThunk@@@std@@@3@$0A@@std@@@std@@QAE?AV?$_Tree_iterator@V?$_Tree_val@U?$_Tree_simple_types@U?$pair@$$CBKVImportThunk@@@std@@@std@@@std@@@2@V?$_Tree_const_iterator@V?$_Tree_val@U?$_Tree_simple_types@U?$pair@$$CBKVImportThunk@@@std@@@std@@@std@@@2@@Z 00404170 f i ApiReader.obj
 0001:00003170       ?erase@?$_Tree@V?$_Tset_traits@KU?$less@K@std@@V?$allocator@K@2@$0A@@std@@@std@@QAE?AV?$_Tree_const_iterator@V?$_Tree_val@U?$_Tree_simple_types@K@std@@@std@@@2@V32@@Z 00404170 f i IATReferenceScan.obj
 0001:00003550       ?allocate@?$_Wrap_alloc@V?$allocator@PAVApiInfo@@@std@@@std@@QAEPAPAVApiInfo@@I@Z 00404550 f i ApiReader.obj
 0001:00003550       ?allocate@?$_Wrap_alloc@U?$_Wrap_alloc@V?$allocator@V?$_List_unchecked_iterator@V?$_List_val@U?$_List_simple_types@U?$pair@QAU_TREEITEM@@UTreeItemData@ImportsHandling@@@std@@@std@@@std@@@std@@@std@@@std@@@std@@QAEPAV?$_List_unchecked_iterator@V?$_List_val@U?$_List_simple_types@U?$pair@QAU_TREEITEM@@UTreeItemData@ImportsHandling@@@std@@@std@@@std@@@2@I@Z 00404550 f i ImportsHandling.obj
 0001:00003550       ?allocate@?$_Wrap_alloc@U?$_Wrap_alloc@V?$allocator@V?$_List_unchecked_iterator@V?$_List_val@U?$_List_simple_types@U?$pair@$$CBKPAVApiInfo@@@std@@@std@@@std@@@std@@@std@@@std@@@std@@QAEPAV?$_List_unchecked_iterator@V?$_List_val@U?$_List_simple_types@U?$pair@$$CBKPAVApiInfo@@@std@@@std@@@std@@@2@I@Z 00404550 f i ApiReader.obj
 0001:000035b0       ?_Insert_n@?$vector@V?$_List_unchecked_iterator@V?$_List_val@U?$_List_simple_types@U?$pair@$$CBKPAVApiInfo@@@std@@@std@@@std@@@std@@U?$_Wrap_alloc@V?$allocator@V?$_List_unchecked_iterator@V?$_List_val@U?$_List_simple_types@U?$pair@$$CBKPAVApiInfo@@@std@@@std@@@std@@@std@@@std@@@2@@std@@IAE?AV?$_Vector_iterator@V?$_Vector_val@U?$_Simple_types@V?$_List_unchecked_iterator@V?$_List_val@U?$_List_simple_types@U?$pair@$$CBKPAVApiInfo@@@std@@@std@@@std@@@std@@@std@@@std@@@2@V?$_Vector_const_iterator@V?$_Vector_val@U?$_Simple_types@V?$_List_unchecked_iterator@V?$_List_val@U?$_List_simple_types@U?$pair@$$CBKPAVApiInfo@@@std@@@std@@@std@@@std@@@std@@@std@@@2@IABV?$_List_unchecked_iterator@V?$_List_val@U?$_List_simple_types@U?$pair@$$CBKPAVApiInfo@@@std@@@std@@@std@@@2@@Z 004045b0 f i ApiReader.obj
 0001:000035b0       ?_Insert_n@?$vector@V?$_List_unchecked_iterator@V?$_List_val@U?$_List_simple_types@U?$pair@QAU_TREEITEM@@UTreeItemData@ImportsHandling@@@std@@@std@@@std@@@std@@U?$_Wrap_alloc@V?$allocator@V?$_List_unchecked_iterator@V?$_List_val@U?$_List_simple_types@U?$pair@QAU_TREEITEM@@UTreeItemData@ImportsHandling@@@std@@@std@@@std@@@std@@@std@@@2@@std@@IAE?AV?$_Vector_iterator@V?$_Vector_val@U?$_Simple_types@V?$_List_unchecked_iterator@V?$_List_val@U?$_List_simple_types@U?$pair@QAU_TREEITEM@@UTreeItemData@ImportsHandling@@@std@@@std@@@std@@@std@@@std@@@std@@@2@V?$_Vector_const_iterator@V?$_Vector_val@U?$_Simple_types@V?$_List_unchecked_iterator@V?$_List_val@U?$_List_simple_types@U?$pair@QAU_TREEITEM@@UTreeItemData@ImportsHandling@@@std@@@std@@@std@@@std@@@std@@@std@@@2@IABV?$_List_unchecked_iterator@V?$_List_val@U?$_List_simple_types@U?$pair@QAU_TREEITEM@@UTreeItemData@ImportsHandling@@@std@@@std@@@std@@@2@@Z 004045b0 f i ImportsHandling.obj
 0001:00003770       ?_Buyheadnode@?$_Tree_comp_alloc@V?$_Tmap_traits@KVImportThunk@@U?$less@K@std@@V?$allocator@U?$pair@$$CBKVImportThunk@@@std@@@3@$0A@@std@@@std@@QAEPAU?$_Tree_node@U?$pair@$$CBKVImportThunk@@@std@@PAX@2@XZ 00404770 f i ApiReader.obj
 0001:000037a0       ?_Erase@?$_Tree@V?$_Tset_traits@KU?$less@K@std@@V?$allocator@K@2@$0A@@std@@@std@@IAEXPAU?$_Tree_node@KPAX@2@@Z 004047a0 f i IATReferenceScan.obj
 0001:000037a0       ?_Erase@?$_Tree@V?$_Tmap_traits@KVImportThunk@@U?$less@K@std@@V?$allocator@U?$pair@$$CBKVImportThunk@@@std@@@3@$0A@@std@@@std@@IAEXPAU?$_Tree_node@U?$pair@$$CBKVImportThunk@@@std@@PAX@2@@Z 004047a0 f i ApiReader.obj
 0001:000037a0       ?_Erase@?$_Tree@V?$_Tmap_traits@W4ConfigOption@@VConfiguration@@U?$less@W4ConfigOption@@@std@@V?$allocator@U?$pair@$$CBW4ConfigOption@@VConfiguration@@@std@@@4@$0A@@std@@@std@@IAEXPAU?$_Tree_node@U?$pair@$$CBW4ConfigOption@@VConfiguration@@@std@@PAX@2@@Z 004047a0 f i ConfigurationHolder.obj
 0001:000037e0       ??0ImportThunk@@QAE@$$QAV0@@Z 004047e0 f i ApiReader.obj
 0001:000037e0       ??0ImportThunk@@QAE@ABV0@@Z 004047e0 f i ApiReader.obj
 0001:00003890       ??$fill@PAV?$_List_unchecked_iterator@V?$_List_val@U?$_List_simple_types@U?$pair@$$CBKPAVApiInfo@@@std@@@std@@@std@@@std@@V12@@std@@YAXPAV?$_List_unchecked_iterator@V?$_List_val@U?$_List_simple_types@U?$pair@$$CBKPAVApiInfo@@@std@@@std@@@std@@@0@0ABV10@@Z 00404890 f i ApiReader.obj
 0001:00003890       ??$fill@PAV?$_List_unchecked_iterator@V?$_List_val@U?$_List_simple_types@U?$pair@QAU_TREEITEM@@UTreeItemData@ImportsHandling@@@std@@@std@@@std@@@std@@V12@@std@@YAXPAV?$_List_unchecked_iterator@V?$_List_val@U?$_List_simple_types@U?$pair@QAU_TREEITEM@@UTreeItemData@ImportsHandling@@@std@@@std@@@std@@@0@0ABV10@@Z 00404890 f i ImportsHandling.obj
 0001:000038d0       ??$_Uninit_alloc_fill_n1@PAV?$_List_unchecked_iterator@V?$_List_val@U?$_List_simple_types@U?$pair@$$CBKPAVApiInfo@@@std@@@std@@@std@@@std@@IU?$_Wrap_alloc@V?$allocator@V?$_List_unchecked_iterator@V?$_List_val@U?$_List_simple_types@U?$pair@$$CBKPAVApiInfo@@@std@@@std@@@std@@@std@@@std@@@2@@std@@YAXPAV?$_List_unchecked_iterator@V?$_List_val@U?$_List_simple_types@U?$pair@$$CBKPAVApiInfo@@@std@@@std@@@std@@@0@IPBV10@AAU?$_Wrap_alloc@U?$_Wrap_alloc@V?$allocator@V?$_List_unchecked_iterator@V?$_List_val@U?$_List_simple_types@U?$pair@$$CBKPAVApiInfo@@@std@@@std@@@std@@@std@@@std@@@std@@@0@U?$integral_constant@_N$0A@@0@@Z 004048d0 f i ApiReader.obj
 0001:000038d0       ??$_Uninit_alloc_fill_n1@PAV?$_List_unchecked_iterator@V?$_List_val@U?$_List_simple_types@U?$pair@QAU_TREEITEM@@UTreeItemData@ImportsHandling@@@std@@@std@@@std@@@std@@IU?$_Wrap_alloc@V?$allocator@V?$_List_unchecked_iterator@V?$_List_val@U?$_List_simple_types@U?$pair@QAU_TREEITEM@@UTreeItemData@ImportsHandling@@@std@@@std@@@std@@@std@@@std@@@2@@std@@YAXPAV?$_List_unchecked_iterator@V?$_List_val@U?$_List_simple_types@U?$pair@QAU_TREEITEM@@UTreeItemData@ImportsHandling@@@std@@@std@@@std@@@0@IPBV10@AAU?$_Wrap_alloc@U?$_Wrap_alloc@V?$allocator@V?$_List_unchecked_iterator@V?$_List_val@U?$_List_simple_types@U?$pair@QAU_TREEITEM@@UTreeItemData@ImportsHandling@@@std@@@std@@@std@@@std@@@std@@@std@@@0@U?$integral_constant@_N$0A@@0@@Z 004048d0 f i ImportsHandling.obj
 0001:00003900       ??$?0U?$_Wrap_alloc@V?$allocator@U?$_Tree_node@U?$pair@$$CBKVImportThunk@@@std@@PAX@std@@@std@@@std@@@?$_Tree@V?$_Tmap_traits@KVImportThunk@@U?$less@K@std@@V?$allocator@U?$pair@$$CBKVImportThunk@@@std@@@3@$0A@@std@@@std@@QAE@ABV01@$$QAU?$_Wrap_alloc@V?$allocator@U?$_Tree_node@U?$pair@$$CBKVImportThunk@@@std@@PAX@std@@@std@@@1@@Z 00404900 f i ApiReader.obj
 0001:00003990       ?_Buynode0@?$_List_alloc@U?$_List_base_types@U?$pair@$$CBKPAVApiInfo@@@std@@V?$allocator@U?$pair@$$CBKPAVApiInfo@@@std@@@2@@std@@@std@@QAEPAU?$_List_node@U?$pair@$$CBKPAVApiInfo@@@std@@PAX@2@PAU32@0@Z 00404990 f i ApiReader.obj
 0001:000039c0       ??$_Insert@AAU?$pair@$$CBKPAVApiInfo@@@std@@V?$_List_unchecked_iterator@V?$_List_val@U?$_List_simple_types@U?$pair@$$CBKPAVApiInfo@@@std@@@std@@@std@@@2@@?$_Hash@V?$_Hmap_traits@KPAVApiInfo@@V?$hash_compare@KU?$less@K@std@@@stdext@@V?$allocator@U?$pair@$$CBKPAVApiInfo@@@std@@@std@@$00@stdext@@@std@@IAE?AU?$pair@V?$_List_iterator@V?$_List_val@U?$_List_simple_types@U?$pair@$$CBKPAVApiInfo@@@std@@@std@@@std@@@std@@_N@1@AAU?$pair@$$CBKPAVApiInfo@@@1@V?$_List_unchecked_iterator@V?$_List_val@U?$_List_simple_types@U?$pair@$$CBKPAVApiInfo@@@std@@@std@@@std@@@1@@Z 004049c0 f i ApiReader.obj
 0001:00003b10       ??$_Buynode@U?$pair@KVImportModuleThunk@@@std@@@?$_Tree_comp_alloc@V?$_Tmap_traits@KVImportModuleThunk@@U?$less@K@std@@V?$allocator@U?$pair@$$CBKVImportModuleThunk@@@std@@@3@$0A@@std@@@std@@QAEPAU?$_Tree_node@U?$pair@$$CBKVImportModuleThunk@@@std@@PAX@1@$$QAU?$pair@KVImportModuleThunk@@@1@@Z 00404b10 f i ApiReader.obj
 0001:00003ba0       ??$_Insert_nohint@AAU?$pair@$$CBKVImportModuleThunk@@@std@@PAU?$_Tree_node@U?$pair@$$CBKVImportModuleThunk@@@std@@PAX@2@@?$_Tree@V?$_Tmap_traits@KVImportModuleThunk@@U?$less@K@std@@V?$allocator@U?$pair@$$CBKVImportModuleThunk@@@std@@@3@$0A@@std@@@std@@IAE?AU?$pair@V?$_Tree_iterator@V?$_Tree_val@U?$_Tree_simple_types@U?$pair@$$CBKVImportModuleThunk@@@std@@@std@@@std@@@std@@_N@1@_NAAU?$pair@$$CBKVImportModuleThunk@@@1@PAU?$_Tree_node@U?$pair@$$CBKVImportModuleThunk@@@std@@PAX@1@@Z 00404ba0 f i ApiReader.obj
 0001:00003cd0       ??$_Buynode@U?$pair@KVImportThunk@@@std@@@?$_Tree_comp_alloc@V?$_Tmap_traits@KVImportThunk@@U?$less@K@std@@V?$allocator@U?$pair@$$CBKVImportThunk@@@std@@@3@$0A@@std@@@std@@QAEPAU?$_Tree_node@U?$pair@$$CBKVImportThunk@@@std@@PAX@1@$$QAU?$pair@KVImportThunk@@@1@@Z 00404cd0 f i ApiReader.obj
 0001:00003cd0       ??$_Buynode@AAU?$pair@$$CBKVImportThunk@@@std@@@?$_Tree_comp_alloc@V?$_Tmap_traits@KVImportThunk@@U?$less@K@std@@V?$allocator@U?$pair@$$CBKVImportThunk@@@std@@@3@$0A@@std@@@std@@QAEPAU?$_Tree_node@U?$pair@$$CBKVImportThunk@@@std@@PAX@1@AAU?$pair@$$CBKVImportThunk@@@1@@Z 00404cd0 f i ApiReader.obj
 0001:00003d10       ??$_Insert_nohint@AAU?$pair@$$CBKVImportThunk@@@std@@PAU?$_Tree_node@U?$pair@$$CBKVImportThunk@@@std@@PAX@2@@?$_Tree@V?$_Tmap_traits@KVImportThunk@@U?$less@K@std@@V?$allocator@U?$pair@$$CBKVImportThunk@@@std@@@3@$0A@@std@@@std@@IAE?AU?$pair@V?$_Tree_iterator@V?$_Tree_val@U?$_Tree_simple_types@U?$pair@$$CBKVImportThunk@@@std@@@std@@@std@@@std@@_N@1@_NAAU?$pair@$$CBKVImportThunk@@@1@PAU?$_Tree_node@U?$pair@$$CBKVImportThunk@@@std@@PAX@1@@Z 00404d10 f i ApiReader.obj
 0001:00003e20       ??$_Copy@U_Copy_tag@?$_Tree@V?$_Tmap_traits@KVImportThunk@@U?$less@K@std@@V?$allocator@U?$pair@$$CBKVImportThunk@@@std@@@3@$0A@@std@@@std@@@?$_Tree@V?$_Tmap_traits@KVImportThunk@@U?$less@K@std@@V?$allocator@U?$pair@$$CBKVImportThunk@@@std@@@3@$0A@@std@@@std@@IAEXABV01@U_Copy_tag@01@@Z 00404e20 f i ApiReader.obj
 0001:00003ea0       ?_Buynode0@?$_Tree_comp_alloc@V?$_Tmap_traits@KVImportModuleThunk@@U?$less@K@std@@V?$allocator@U?$pair@$$CBKVImportModuleThunk@@@std@@@3@$0A@@std@@@std@@QAEPAU?$_Tree_node@U?$pair@$$CBKVImportModuleThunk@@@std@@PAX@2@XZ 00404ea0 f i ApiReader.obj
 0001:00003ee0       ?_Destroy_if_not_nil@?$_Tree@V?$_Tmap_traits@KVImportModuleThunk@@U?$less@K@std@@V?$allocator@U?$pair@$$CBKVImportModuleThunk@@@std@@@3@$0A@@std@@@std@@IAEXPAU?$_Tree_node@U?$pair@$$CBKVImportModuleThunk@@@std@@PAX@2@@Z 00404ee0 f i ApiReader.obj
 0001:00003f20       ?_Check_size@?$_Hash@V?$_Hmap_traits@KPAVApiInfo@@V?$hash_compare@KU?$less@K@std@@@stdext@@V?$allocator@U?$pair@$$CBKPAVApiInfo@@@std@@@std@@$00@stdext@@@std@@IAEXXZ 00404f20 f i ApiReader.obj
 0001:00003fc0       ?erase@?$_Hash@V?$_Hmap_traits@PAU_TREEITEM@@UTreeItemData@ImportsHandling@@V?$hash_compare@PAU_TREEITEM@@U?$less@PAU_TREEITEM@@@std@@@stdext@@V?$allocator@U?$pair@QAU_TREEITEM@@UTreeItemData@ImportsHandling@@@std@@@std@@$0A@@stdext@@@std@@QAE?AV?$_List_iterator@V?$_List_val@U?$_List_simple_types@U?$pair@QAU_TREEITEM@@UTreeItemData@ImportsHandling@@@std@@@std@@@std@@@2@V?$_List_const_iterator@V?$_List_val@U?$_List_simple_types@U?$pair@QAU_TREEITEM@@UTreeItemData@ImportsHandling@@@std@@@std@@@std@@@2@@Z 00404fc0 f i ImportsHandling.obj
 0001:00003fc0       ?erase@?$_Hash@V?$_Hmap_traits@KPAVApiInfo@@V?$hash_compare@KU?$less@K@std@@@stdext@@V?$allocator@U?$pair@$$CBKPAVApiInfo@@@std@@@std@@$00@stdext@@@std@@QAE?AV?$_List_iterator@V?$_List_val@U?$_List_simple_types@U?$pair@$$CBKPAVApiInfo@@@std@@@std@@@std@@@2@V?$_List_const_iterator@V?$_List_val@U?$_List_simple_types@U?$pair@$$CBKPAVApiInfo@@@std@@@std@@@std@@@2@@Z 00404fc0 f i ApiReader.obj
 0001:00004070       ?_Buynode0@?$_Tree_comp_alloc@V?$_Tmap_traits@KVImportThunk@@U?$less@K@std@@V?$allocator@U?$pair@$$CBKVImportThunk@@@std@@@3@$0A@@std@@@std@@QAEPAU?$_Tree_node@U?$pair@$$CBKVImportThunk@@@std@@PAX@2@XZ 00405070 f i ApiReader.obj
 0001:000040b0       ??$_Insert_at@AAU?$pair@$$CBKVImportModuleThunk@@@std@@PAU?$_Tree_node@U?$pair@$$CBKVImportModuleThunk@@@std@@PAX@2@@?$_Tree@V?$_Tmap_traits@KVImportModuleThunk@@U?$less@K@std@@V?$allocator@U?$pair@$$CBKVImportModuleThunk@@@std@@@3@$0A@@std@@@std@@IAE?AV?$_Tree_iterator@V?$_Tree_val@U?$_Tree_simple_types@U?$pair@$$CBKVImportModuleThunk@@@std@@@std@@@std@@@1@_NPAU?$_Tree_node@U?$pair@$$CBKVImportModuleThunk@@@std@@PAX@1@AAU?$pair@$$CBKVImportModuleThunk@@@1@1@Z 004050b0 f i ApiReader.obj
 0001:000042e0       ??$_Insert_at@AAU?$pair@$$CBKVImportThunk@@@std@@PAU?$_Tree_node@U?$pair@$$CBKVImportThunk@@@std@@PAX@2@@?$_Tree@V?$_Tmap_traits@KVImportThunk@@U?$less@K@std@@V?$allocator@U?$pair@$$CBKVImportThunk@@@std@@@3@$0A@@std@@@std@@IAE?AV?$_Tree_iterator@V?$_Tree_val@U?$_Tree_simple_types@U?$pair@$$CBKVImportThunk@@@std@@@std@@@std@@@1@_NPAU?$_Tree_node@U?$pair@$$CBKVImportThunk@@@std@@PAX@1@AAU?$pair@$$CBKVImportThunk@@@1@1@Z 004052e0 f i ApiReader.obj
 0001:000044f0       ??$_Uninitialized_move_al_unchecked1@PAV?$_List_unchecked_iterator@V?$_List_val@U?$_List_simple_types@U?$pair@QAU_TREEITEM@@UTreeItemData@ImportsHandling@@@std@@@std@@@std@@@std@@PAV12@U?$_Wrap_alloc@V?$allocator@V?$_List_unchecked_iterator@V?$_List_val@U?$_List_simple_types@U?$pair@QAU_TREEITEM@@UTreeItemData@ImportsHandling@@@std@@@std@@@std@@@std@@@std@@@2@@std@@YAPAV?$_List_unchecked_iterator@V?$_List_val@U?$_List_simple_types@U?$pair@QAU_TREEITEM@@UTreeItemData@ImportsHandling@@@std@@@std@@@std@@@0@PAV10@00AAU?$_Wrap_alloc@U?$_Wrap_alloc@V?$allocator@V?$_List_unchecked_iterator@V?$_List_val@U?$_List_simple_types@U?$pair@QAU_TREEITEM@@UTreeItemData@ImportsHandling@@@std@@@std@@@std@@@std@@@std@@@std@@@0@U_General_ptr_iterator_tag@0@U_Any_tag@0@@Z 004054f0 f i ImportsHandling.obj
 0001:000044f0       ??$_Uninitialized_move_al_unchecked1@PAV?$_List_unchecked_iterator@V?$_List_val@U?$_List_simple_types@U?$pair@$$CBKPAVApiInfo@@@std@@@std@@@std@@@std@@PAV12@U?$_Wrap_alloc@V?$allocator@V?$_List_unchecked_iterator@V?$_List_val@U?$_List_simple_types@U?$pair@$$CBKPAVApiInfo@@@std@@@std@@@std@@@std@@@std@@@2@@std@@YAPAV?$_List_unchecked_iterator@V?$_List_val@U?$_List_simple_types@U?$pair@$$CBKPAVApiInfo@@@std@@@std@@@std@@@0@PAV10@00AAU?$_Wrap_alloc@U?$_Wrap_alloc@V?$allocator@V?$_List_unchecked_iterator@V?$_List_val@U?$_List_simple_types@U?$pair@$$CBKPAVApiInfo@@@std@@@std@@@std@@@std@@@std@@@std@@@0@U_General_ptr_iterator_tag@0@U_Any_tag@0@@Z 004054f0 f i ApiReader.obj
 0001:00004530       ??$_Copy_nodes@U_Copy_tag@?$_Tree@V?$_Tmap_traits@KVImportThunk@@U?$less@K@std@@V?$allocator@U?$pair@$$CBKVImportThunk@@@std@@@3@$0A@@std@@@std@@@?$_Tree@V?$_Tmap_traits@KVImportThunk@@U?$less@K@std@@V?$allocator@U?$pair@$$CBKVImportThunk@@@std@@@3@$0A@@std@@@std@@IAEPAU?$_Tree_node@U?$pair@$$CBKVImportThunk@@@std@@PAX@1@PAU21@0U_Copy_tag@01@@Z 00405530 f i ApiReader.obj
 0001:000045f0       ??$_Buynode@U?$pair@KPAVApiInfo@@@std@@@?$_List_buy@U?$pair@$$CBKPAVApiInfo@@@std@@V?$allocator@U?$pair@$$CBKPAVApiInfo@@@std@@@2@@std@@QAEPAU?$_List_node@U?$pair@$$CBKPAVApiInfo@@@std@@PAX@1@PAU21@0$$QAU?$pair@KPAVApiInfo@@@1@@Z 004055f0 f i ApiReader.obj
 0001:00004620       ??0ImportModuleThunk@@QAE@$$QAV0@@Z 00405620 f i ApiReader.obj
 0001:000046c0       ___local_stdio_printf_options 004056c0 f i ConfigurationHolder.obj
 0001:000046d0       __vswprintf_s_l            004056d0 f i ConfigurationHolder.obj
 0001:00004700       ??0ConfigurationHolder@@QAE@PB_W@Z 00405700 f   ConfigurationHolder.obj
 0001:00004f80       ??1?$set@KU?$less@K@std@@V?$allocator@K@2@@std@@QAE@XZ 00405f80 f i IATReferenceScan.obj
 0001:00004f80       ??1?$map@W4ConfigOption@@VConfiguration@@U?$less@W4ConfigOption@@@std@@V?$allocator@U?$pair@$$CBW4ConfigOption@@VConfiguration@@@std@@@4@@std@@QAE@XZ 00405f80 f i ConfigurationHolder.obj
 0001:00004fb0       ?loadConfiguration@ConfigurationHolder@@QAE_NXZ 00405fb0 f   ConfigurationHolder.obj
 0001:00005000       ?saveConfiguration@ConfigurationHolder@@QBE_NXZ 00406000 f   ConfigurationHolder.obj
 0001:00005050       ??AConfigurationHolder@@QAEAAVConfiguration@@W4ConfigOption@@@Z 00406050 f   ConfigurationHolder.obj
 0001:00005080       ?loadConfig@ConfigurationHolder@@AAE_NAAVConfiguration@@@Z 00406080 f   ConfigurationHolder.obj
 0001:00005260       ?saveConfig@ConfigurationHolder@@ABE_NABVConfiguration@@@Z 00406260 f   ConfigurationHolder.obj
 0001:00005330       ?_Buyheadnode@?$_Tree_comp_alloc@V?$_Tmap_traits@W4ConfigOption@@VConfiguration@@U?$less@W4ConfigOption@@@std@@V?$allocator@U?$pair@$$CBW4ConfigOption@@VConfiguration@@@std@@@4@$0A@@std@@@std@@QAEPAU?$_Tree_node@U?$pair@$$CBW4ConfigOption@@VConfiguration@@@std@@PAX@2@XZ 00406330 f i ConfigurationHolder.obj
 0001:00005360       ??$swprintf_s@$0BF@@@YAHAAY0BF@_WPB_WZZ 00406360 f i ConfigurationHolder.obj
 0001:00005380       ?OnFinalMessage@?$CWindowImplBaseT@V?$CTreeViewCtrlExT@VCWindow@ATL@@@WTL@@V?$CWinTraitsOR@$0CA@$0A@V?$CWinTraits@$0FGAAAAAA@$0A@@ATL@@@ATL@@@ATL@@UAEXPAUHWND__@@@Z 00406380 f i MainGui.obj
 0001:00005380       ??$destroy@PAU?$_Tree_node@U?$pair@$$CBW4ConfigOption@@VConfiguration@@@std@@PAX@std@@@?$_Wrap_alloc@V?$allocator@U?$_Tree_node@U?$pair@$$CBW4ConfigOption@@VConfiguration@@@std@@PAX@std@@@std@@@std@@QAEXPAPAU?$_Tree_node@U?$pair@$$CBW4ConfigOption@@VConfiguration@@@std@@PAX@1@@Z 00406380 f i ConfigurationHolder.obj
 0001:00005380       ?OnFinalMessage@?$CDialogImplBaseT@VCWindow@ATL@@@ATL@@UAEXPAUHWND__@@@Z 00406380 f i DisassemblerGui.obj
 0001:00005380       ?OnFinalMessage@?$CWindowImplBaseT@V?$CEditT@VCWindow@ATL@@@WTL@@V?$CWinTraits@$0FGAAAAAA@$0A@@ATL@@@ATL@@UAEXPAUHWND__@@@Z 00406380 f i DisassemblerGui.obj
 0001:00005390       ??$_Try_emplace@ABW4ConfigOption@@$$V@?$map@W4ConfigOption@@VConfiguration@@U?$less@W4ConfigOption@@@std@@V?$allocator@U?$pair@$$CBW4ConfigOption@@VConfiguration@@@std@@@4@@std@@QAE?AU?$pair@V?$_Tree_iterator@V?$_Tree_val@U?$_Tree_simple_types@U?$pair@$$CBW4ConfigOption@@VConfiguration@@@std@@@std@@@std@@@std@@_N@1@ABW4ConfigOption@@@Z 00406390 f i ConfigurationHolder.obj
 0001:00005390       ??$_Try_emplace@W4ConfigOption@@$$V@?$map@W4ConfigOption@@VConfiguration@@U?$less@W4ConfigOption@@@std@@V?$allocator@U?$pair@$$CBW4ConfigOption@@VConfiguration@@@std@@@4@@std@@QAE?AU?$pair@V?$_Tree_iterator@V?$_Tree_val@U?$_Tree_simple_types@U?$pair@$$CBW4ConfigOption@@VConfiguration@@@std@@@std@@@std@@@std@@_N@1@$$QAW4ConfigOption@@@Z 00406390 f i ConfigurationHolder.obj
 0001:00005420       ??$_Buynode@ABUpiecewise_construct_t@std@@V?$tuple@$$QAW4ConfigOption@@@2@V?$tuple@$$V@2@@?$_Tree_comp_alloc@V?$_Tmap_traits@W4ConfigOption@@VConfiguration@@U?$less@W4ConfigOption@@@std@@V?$allocator@U?$pair@$$CBW4ConfigOption@@VConfiguration@@@std@@@4@$0A@@std@@@std@@QAEPAU?$_Tree_node@U?$pair@$$CBW4ConfigOption@@VConfiguration@@@std@@PAX@1@ABUpiecewise_construct_t@1@$$QAV?$tuple@$$QAW4ConfigOption@@@1@$$QAV?$tuple@$$V@1@@Z 00406420 f i ConfigurationHolder.obj
 0001:00005420       ??$_Buynode@ABUpiecewise_construct_t@std@@V?$tuple@ABW4ConfigOption@@@2@V?$tuple@$$V@2@@?$_Tree_comp_alloc@V?$_Tmap_traits@W4ConfigOption@@VConfiguration@@U?$less@W4ConfigOption@@@std@@V?$allocator@U?$pair@$$CBW4ConfigOption@@VConfiguration@@@std@@@4@$0A@@std@@@std@@QAEPAU?$_Tree_node@U?$pair@$$CBW4ConfigOption@@VConfiguration@@@std@@PAX@1@ABUpiecewise_construct_t@1@$$QAV?$tuple@ABW4ConfigOption@@@1@$$QAV?$tuple@$$V@1@@Z 00406420 f i ConfigurationHolder.obj
 0001:00005480       ??$_Insert_hint@AAU?$pair@$$CBW4ConfigOption@@VConfiguration@@@std@@PAU?$_Tree_node@U?$pair@$$CBW4ConfigOption@@VConfiguration@@@std@@PAX@2@@?$_Tree@V?$_Tmap_traits@W4ConfigOption@@VConfiguration@@U?$less@W4ConfigOption@@@std@@V?$allocator@U?$pair@$$CBW4ConfigOption@@VConfiguration@@@std@@@4@$0A@@std@@@std@@IAE?AV?$_Tree_iterator@V?$_Tree_val@U?$_Tree_simple_types@U?$pair@$$CBW4ConfigOption@@VConfiguration@@@std@@@std@@@std@@@1@V?$_Tree_const_iterator@V?$_Tree_val@U?$_Tree_simple_types@U?$pair@$$CBW4ConfigOption@@VConfiguration@@@std@@@std@@@std@@@1@AAU?$pair@$$CBW4ConfigOption@@VConfiguration@@@1@PAU?$_Tree_node@U?$pair@$$CBW4ConfigOption@@VConfiguration@@@std@@PAX@1@@Z 00406480 f i ConfigurationHolder.obj
 0001:000056a0       ?_Buynode0@?$_Tree_comp_alloc@V?$_Tmap_traits@W4ConfigOption@@VConfiguration@@U?$less@W4ConfigOption@@@std@@V?$allocator@U?$pair@$$CBW4ConfigOption@@VConfiguration@@@std@@@4@$0A@@std@@@std@@QAEPAU?$_Tree_node@U?$pair@$$CBW4ConfigOption@@VConfiguration@@@std@@PAX@2@XZ 004066a0 f i ConfigurationHolder.obj
 0001:000056e0       ??$_Insert_at@AAU?$pair@$$CBW4ConfigOption@@VConfiguration@@@std@@PAU?$_Tree_node@U?$pair@$$CBW4ConfigOption@@VConfiguration@@@std@@PAX@2@@?$_Tree@V?$_Tmap_traits@W4ConfigOption@@VConfiguration@@U?$less@W4ConfigOption@@@std@@V?$allocator@U?$pair@$$CBW4ConfigOption@@VConfiguration@@@std@@@4@$0A@@std@@@std@@IAE?AV?$_Tree_iterator@V?$_Tree_val@U?$_Tree_simple_types@U?$pair@$$CBW4ConfigOption@@VConfiguration@@@std@@@std@@@std@@@1@_NPAU?$_Tree_node@U?$pair@$$CBW4ConfigOption@@VConfiguration@@@std@@PAX@1@AAU?$pair@$$CBW4ConfigOption@@VConfiguration@@@1@1@Z 004066e0 f i ConfigurationHolder.obj
 0001:000058f0       ??$_Insert_nohint@AAU?$pair@$$CBW4ConfigOption@@VConfiguration@@@std@@PAU?$_Tree_node@U?$pair@$$CBW4ConfigOption@@VConfiguration@@@std@@PAX@2@@?$_Tree@V?$_Tmap_traits@W4ConfigOption@@VConfiguration@@U?$less@W4ConfigOption@@@std@@V?$allocator@U?$pair@$$CBW4ConfigOption@@VConfiguration@@@std@@@4@$0A@@std@@@std@@IAE?AU?$pair@V?$_Tree_iterator@V?$_Tree_val@U?$_Tree_simple_types@U?$pair@$$CBW4ConfigOption@@VConfiguration@@@std@@@std@@@std@@@std@@_N@1@_NAAU?$pair@$$CBW4ConfigOption@@VConfiguration@@@1@PAU?$_Tree_node@U?$pair@$$CBW4ConfigOption@@VConfiguration@@@std@@PAX@1@@Z 004068f0 f i ConfigurationHolder.obj
 0001:00005a00       ??1DeviceNameResolver@@QAE@XZ 00406a00 f   DeviceNameResolver.obj
 0001:00005a50       ?initDeviceNameList@DeviceNameResolver@@AAEXXZ 00406a50 f   DeviceNameResolver.obj
 0001:00005bf0       ?resolveDeviceLongNameToShort@DeviceNameResolver@@QAE_NPB_WPA_W@Z 00406bf0 f   DeviceNameResolver.obj
 0001:00005cc0       ?fixVirtualDevices@DeviceNameResolver@@AAEXXZ 00406cc0 f   DeviceNameResolver.obj
 0001:00005f70       ??1?$vector@VHardDisk@@V?$allocator@VHardDisk@@@std@@@std@@QAE@XZ 00406f70 f i DeviceNameResolver.obj
 0001:00005f70       ??1?$vector@VDisassemblerAddressComment@@V?$allocator@VDisassemblerAddressComment@@@std@@@std@@QAE@XZ 00406f70 f i DisassemblerGui.obj
 0001:00005fb0       ?_Reserve@?$vector@VDisassemblerAddressComment@@V?$allocator@VDisassemblerAddressComment@@@std@@@std@@IAEXI@Z 00406fb0 f i DisassemblerGui.obj
 0001:00005fb0       ?_Reserve@?$vector@VHardDisk@@V?$allocator@VHardDisk@@@std@@@std@@IAEXI@Z 00406fb0 f i DeviceNameResolver.obj
 0001:00006050       ?_Reallocate@?$vector@VHardDisk@@V?$allocator@VHardDisk@@@std@@@std@@IAEXI@Z 00407050 f i DeviceNameResolver.obj
 0001:00006050       ?_Reallocate@?$vector@VDisassemblerAddressComment@@V?$allocator@VDisassemblerAddressComment@@@std@@@std@@IAEXI@Z 00407050 f i DisassemblerGui.obj
 0001:000060e0       ?deallocate@?$_Wrap_alloc@V?$allocator@VHardDisk@@@std@@@std@@QAEXPAVHardDisk@@I@Z 004070e0 f i DeviceNameResolver.obj
 0001:000060e0       ?deallocate@?$_Wrap_alloc@V?$allocator@VDisassemblerAddressComment@@@std@@@std@@QAEXPAVDisassemblerAddressComment@@I@Z 004070e0 f i DisassemblerGui.obj
 0001:00006140       ?allocate@?$allocator@VHardDisk@@@std@@QAEPAVHardDisk@@I@Z 00407140 f i DeviceNameResolver.obj
 0001:00006140       ?allocate@?$allocator@VDisassemblerAddressComment@@@std@@QAEPAVDisassemblerAddressComment@@I@Z 00407140 f i DisassemblerGui.obj
 0001:000061a0       ?AtlThrowImpl@ATL@@YGXJ@Z  004071a0 f i DisassemblerGui.obj
 0001:000061c0       ?DoDataExchange@DisassemblerGui@@QAEHHI@Z 004071c0 f i DisassemblerGui.obj
 0001:00006230       ?ProcessWindowMessage@DisassemblerGui@@UAEHPAUHWND__@@IIJAAJK@Z 00407230 f i DisassemblerGui.obj
 0001:00006400       ??0DisassemblerGui@@QAE@KPAVApiReader@@@Z 00407400 f   DisassemblerGui.obj
 0001:000065b0       ??_EDisassemblerGui@@UAEPAXI@Z 004075b0 f i * CIL library *:* CIL module *
 0001:000065b0       ??_GDisassemblerGui@@UAEPAXI@Z 004075b0 f i DisassemblerGui.obj
 0001:000065e0       ??1DisassemblerGui@@UAE@XZ 004075e0 f i DisassemblerGui.obj
 0001:000066d0       ??1?$CDialogImpl@VDumpMemoryGui@@VCWindow@ATL@@@ATL@@UAE@XZ 004076d0 f i DumpMemoryGui.obj
 0001:000066d0       ??1?$CHexEdit@K@@UAE@XZ    004076d0 f i DisassemblerGui.obj
 0001:000066d0       ??1?$CDialogImpl@VMainGui@@VCWindow@ATL@@@ATL@@UAE@XZ 004076d0 f i main.obj
 0001:000066d0       ??1?$CDialogImpl@VDisassemblerGui@@VCWindow@ATL@@@ATL@@UAE@XZ 004076d0 f i DisassemblerGui.obj
 0001:000066e0       ??1?$CDialogResize@VDisassemblerGui@@@WTL@@QAE@XZ 004076e0 f i DisassemblerGui.obj
 0001:000066e0       ??1?$CDialogResize@VMainGui@@@WTL@@QAE@XZ 004076e0 f i main.obj
 0001:000066e0       ??1?$CDialogResize@VDumpMemoryGui@@@WTL@@QAE@XZ 004076e0 f i DumpMemoryGui.obj
 0001:00006710       ??_G?$CHexEdit@K@@UAEPAXI@Z 00407710 f i DisassemblerGui.obj
 0001:00006710       ??_E?$CHexEdit@K@@UAEPAXI@Z 00407710 f i * CIL library *:* CIL module *
 0001:00006740       ?OnInitDialog@DisassemblerGui@@IAEHVCWindow@ATL@@J@Z 00407740 f   DisassemblerGui.obj
 0001:000067d0       ?OnContextMenu@DisassemblerGui@@IAEXVCWindow@ATL@@VCPoint@@@Z 004077d0 f   DisassemblerGui.obj
 0001:000069b0       ?OnNMCustomdraw@DisassemblerGui@@IAEJPAUtagNMHDR@@@Z 004079b0 f   DisassemblerGui.obj
 0001:00006a00       ?OnDisassemble@DisassemblerGui@@IAEXIHVCWindow@ATL@@@Z 00407a00 f   DisassemblerGui.obj
 0001:00006a60       ?disassembleNewAddress@DisassemblerGui@@AAEXK@Z 00407a60 f   DisassemblerGui.obj
 0001:00006b10       ?OnDisassembleForward@DisassemblerGui@@IAEXIHVCWindow@ATL@@@Z 00407b10 f   DisassemblerGui.obj
 0001:00006bb0       ?OnDisassembleBack@DisassemblerGui@@IAEXIHVCWindow@ATL@@@Z 00407bb0 f   DisassemblerGui.obj
 0001:00006c40       ?addColumnsToDisassembler@DisassemblerGui@@IAEXAAV?$CListViewCtrlT@VCWindow@ATL@@@WTL@@@Z 00407c40 f   DisassemblerGui.obj
 0001:00006d70       ?displayDisassembly@DisassemblerGui@@IAE_NXZ 00407d70 f   DisassemblerGui.obj
 0001:00007170       ?copyToClipboard@DisassemblerGui@@IAEXPB_W@Z 00408170 f   DisassemblerGui.obj
 0001:00007200       ?toUpperCase@DisassemblerGui@@AAEXPA_W@Z 00408200 f   DisassemblerGui.obj
 0001:00007260       ?doColorInstruction@DisassemblerGui@@AAEXPAUtagNMLVCUSTOMDRAW@@K@Z 00408260 f   DisassemblerGui.obj
 0001:000072e0       ?followInstruction@DisassemblerGui@@AAEXH@Z 004082e0 f   DisassemblerGui.obj
 0001:00007380       ?getDisassemblyComment@DisassemblerGui@@AAE_NI@Z 00408380 f   DisassemblerGui.obj
 0001:00007480       ?initAddressCommentList@DisassemblerGui@@AAEXXZ 00408480 f   DisassemblerGui.obj
 0001:00007580       ?addModuleAddressCommentEntry@DisassemblerGui@@AAEXKKPB_W@Z 00408580 f   DisassemblerGui.obj
 0001:00007680       ?analyzeAddress@DisassemblerGui@@AAEXKPA_W@Z 00408680 f   DisassemblerGui.obj
 0001:000077e0       ?GetWindowProc@?$CWindowImplBaseT@V?$CTreeViewCtrlExT@VCWindow@ATL@@@WTL@@V?$CWinTraitsOR@$0CA@$0A@V?$CWinTraits@$0FGAAAAAA@$0A@@ATL@@@ATL@@@ATL@@UAEP6GJPAUHWND__@@IIJ@ZXZ 004087e0 f i MainGui.obj
 0001:000077e0       ?GetWindowProc@?$CWindowImplBaseT@V?$CEditT@VCWindow@ATL@@@WTL@@V?$CWinTraits@$0FGAAAAAA@$0A@@ATL@@@ATL@@UAEP6GJPAUHWND__@@IIJ@ZXZ 004087e0 f i DisassemblerGui.obj
 0001:000077f0       ?ProcessWindowMessage@?$CHexEditImpl@V?$CHexEdit@K@@KV?$CEditT@VCWindow@ATL@@@WTL@@V?$CWinTraits@$0FGAAAAAA@$0A@@ATL@@@@UAEHPAUHWND__@@IIJAAJK@Z 004087f0 f i DisassemblerGui.obj
 0001:00007820       ?SetValue@?$CHexEditImpl@V?$CHexEdit@K@@KV?$CEditT@VCWindow@ATL@@@WTL@@V?$CWinTraits@$0FGAAAAAA@$0A@@ATL@@@@QAEXK_N@Z 00408820 f i DisassemblerGui.obj
 0001:00007870       ?GetValue@?$CHexEditImpl@V?$CHexEdit@K@@KV?$CEditT@VCWindow@ATL@@@WTL@@V?$CWinTraits@$0FGAAAAAA@$0A@@ATL@@@@QBEKXZ 00408870 f i DisassemblerGui.obj
 0001:000078c0       ?push_back@?$vector@KV?$allocator@K@std@@@std@@QAEXABK@Z 004088c0 f i DisassemblerGui.obj
 0001:00007930       ?ProcessWindowMessage@?$CDialogResize@VDisassemblerGui@@@WTL@@QAEHPAUHWND__@@IIJAAJK@Z 00408930 f i DisassemblerGui.obj
 0001:00007990       ?DlgResize_Init@?$CDialogResize@VDisassemblerGui@@@WTL@@QAEX_N0K@Z 00408990 f i DisassemblerGui.obj
 0001:00007cd0       ?GetItemText@?$CListViewCtrlT@VCWindow@ATL@@@WTL@@QBEHHHPA_WH@Z 00408cd0 f i DisassemblerGui.obj
 0001:00007d20       ?GetSubMenu@?$CMenuT@$00@WTL@@QBE?AV?$CMenuT@$0A@@2@H@Z 00408d20 f i DisassemblerGui.obj
 0001:00007d40       ??1?$CMenuT@$00@WTL@@QAE@XZ 00408d40 f i DisassemblerGui.obj
 0001:00007d60       ?TrackPopupMenu@?$CMenuT@$0A@@WTL@@QAEHIHHPAUHWND__@@PBUtagRECT@@@Z 00408d60 f i DisassemblerGui.obj
 0001:00007e10       ?GetDialogProc@?$CDialogImplBaseT@VCWindow@ATL@@@ATL@@UAEP6GHPAUHWND__@@IIJ@ZXZ 00408e10 f i DisassemblerGui.obj
 0001:00007e20       ?_ProcessWindowMessage@?$CHexEditImpl@V?$CHexEdit@K@@KV?$CEditT@VCWindow@ATL@@@WTL@@V?$CWinTraits@$0FGAAAAAA@$0A@@ATL@@@@QAEHPAUHWND__@@IIJAAJK@Z 00408e20 f i DisassemblerGui.obj
 0001:00007f00       ?_NumToString@?$CHexEditImpl@V?$CHexEdit@K@@KV?$CEditT@VCWindow@ATL@@@WTL@@V?$CWinTraits@$0FGAAAAAA@$0A@@ATL@@@@QBEXKQA_W_N@Z 00408f00 f i DisassemblerGui.obj
 0001:00007ff0       ?_StringToNum@?$CHexEditImpl@V?$CHexEdit@K@@KV?$CEditT@VCWindow@ATL@@@WTL@@V?$CWinTraits@$0FGAAAAAA@$0A@@ATL@@@@QBEKQB_W@Z 00408ff0 f i DisassemblerGui.obj
 0001:00008060       ?_Reserve@?$vector@KV?$allocator@K@std@@@std@@IAEXI@Z 00409060 f i DisassemblerGui.obj
 0001:000080c0       ?Add@?$CSimpleArray@U_AtlDlgResizeData@?$CDialogResize@VPickDllGui@@@WTL@@V?$CSimpleArrayEqualHelper@U_AtlDlgResizeData@?$CDialogResize@VPickDllGui@@@WTL@@@ATL@@@ATL@@QAEHABU_AtlDlgResizeData@?$CDialogResize@VPickDllGui@@@WTL@@@Z 004090c0 f i PickDllGui.obj
 0001:000080c0       ?Add@?$CSimpleArray@U_AtlDlgResizeData@?$CDialogResize@VPickApiGui@@@WTL@@V?$CSimpleArrayEqualHelper@U_AtlDlgResizeData@?$CDialogResize@VPickApiGui@@@WTL@@@ATL@@@ATL@@QAEHABU_AtlDlgResizeData@?$CDialogResize@VPickApiGui@@@WTL@@@Z 004090c0 f i PickApiGui.obj
 0001:000080c0       ?Add@?$CSimpleArray@U_AtlDlgResizeData@?$CDialogResize@VDisassemblerGui@@@WTL@@V?$CSimpleArrayEqualHelper@U_AtlDlgResizeData@?$CDialogResize@VDisassemblerGui@@@WTL@@@ATL@@@ATL@@QAEHABU_AtlDlgResizeData@?$CDialogResize@VDisassemblerGui@@@WTL@@@Z 004090c0 f i DisassemblerGui.obj
 0001:000080c0       ?Add@?$CSimpleArray@U_AtlDlgResizeData@?$CDialogResize@VDumpMemoryGui@@@WTL@@V?$CSimpleArrayEqualHelper@U_AtlDlgResizeData@?$CDialogResize@VDumpMemoryGui@@@WTL@@@ATL@@@ATL@@QAEHABU_AtlDlgResizeData@?$CDialogResize@VDumpMemoryGui@@@WTL@@@Z 004090c0 f i DumpMemoryGui.obj
 0001:000080c0       ?Add@?$CSimpleArray@U_AtlDlgResizeData@?$CDialogResize@VMainGui@@@WTL@@V?$CSimpleArrayEqualHelper@U_AtlDlgResizeData@?$CDialogResize@VMainGui@@@WTL@@@ATL@@@ATL@@QAEHABU_AtlDlgResizeData@?$CDialogResize@VMainGui@@@WTL@@@Z 004090c0 f i MainGui.obj
 0001:000080c0       ?Add@?$CSimpleArray@U_AtlDlgResizeData@?$CDialogResize@VDumpSectionGui@@@WTL@@V?$CSimpleArrayEqualHelper@U_AtlDlgResizeData@?$CDialogResize@VDumpSectionGui@@@WTL@@@ATL@@@ATL@@QAEHABU_AtlDlgResizeData@?$CDialogResize@VDumpSectionGui@@@WTL@@@Z 004090c0 f i DumpSectionGui.obj
 0001:00008160       ?OnSize@?$CDialogResize@VDisassemblerGui@@@WTL@@QAEJIIJAAH@Z 00409160 f i DisassemblerGui.obj
 0001:000081d0       ?OnChar@?$CHexEditImpl@V?$CHexEdit@K@@KV?$CEditT@VCWindow@ATL@@@WTL@@V?$CWinTraits@$0FGAAAAAA@$0A@@ATL@@@@QAEXIII@Z 004091d0 f i DisassemblerGui.obj
 0001:00008240       ?OnPaste@?$CHexEditImpl@V?$CHexEdit@K@@KV?$CEditT@VCWindow@ATL@@@WTL@@V?$CWinTraits@$0FGAAAAAA@$0A@@ATL@@@@QAEXXZ 00409240 f i DisassemblerGui.obj
 0001:000082f0       ?OnSetText@?$CHexEditImpl@V?$CHexEdit@K@@KV?$CEditT@VCWindow@ATL@@@WTL@@V?$CWinTraits@$0FGAAAAAA@$0A@@ATL@@@@QAEHPB_W@Z 004092f0 f i DisassemblerGui.obj
 0001:00008340       ?DlgResize_UpdateLayout@?$CDialogResize@VDisassemblerGui@@@WTL@@QAEXHH@Z 00409340 f i DisassemblerGui.obj
 0001:000085b0       ?_IsValidString@?$CHexEditImpl@V?$CHexEdit@K@@KV?$CEditT@VCWindow@ATL@@@WTL@@V?$CWinTraits@$0FGAAAAAA@$0A@@ATL@@@@QBE_NQB_W@Z 004095b0 f i DisassemblerGui.obj
 0001:00008610       ?DlgResize_PositionControl@?$CDialogResize@VDumpMemoryGui@@@WTL@@QAE_NHHAAUtagRECT@@AAU_AtlDlgResizeData@12@_NPAU412@@Z 00409610 f i DumpMemoryGui.obj
 0001:00008610       ?DlgResize_PositionControl@?$CDialogResize@VDumpSectionGui@@@WTL@@QAE_NHHAAUtagRECT@@AAU_AtlDlgResizeData@12@_NPAU412@@Z 00409610 f i DumpSectionGui.obj
 0001:00008610       ?DlgResize_PositionControl@?$CDialogResize@VPickApiGui@@@WTL@@QAE_NHHAAUtagRECT@@AAU_AtlDlgResizeData@12@_NPAU412@@Z 00409610 f i PickApiGui.obj
 0001:00008610       ?DlgResize_PositionControl@?$CDialogResize@VDisassemblerGui@@@WTL@@QAE_NHHAAUtagRECT@@AAU_AtlDlgResizeData@12@_NPAU412@@Z 00409610 f i DisassemblerGui.obj
 0001:00008610       ?DlgResize_PositionControl@?$CDialogResize@VPickDllGui@@@WTL@@QAE_NHHAAUtagRECT@@AAU_AtlDlgResizeData@12@_NPAU412@@Z 00409610 f i PickDllGui.obj
 0001:000089b0       ?DialogProc@?$CDialogImplBaseT@VCWindow@ATL@@@ATL@@SGHPAUHWND__@@IIJ@Z 004099b0 f i DisassemblerGui.obj
 0001:00008ab0       ?WindowProc@?$CWindowImplBaseT@V?$CTreeViewCtrlExT@VCWindow@ATL@@@WTL@@V?$CWinTraitsOR@$0CA@$0A@V?$CWinTraits@$0FGAAAAAA@$0A@@ATL@@@ATL@@@ATL@@SGJPAUHWND__@@IIJ@Z 00409ab0 f i MainGui.obj
 0001:00008ab0       ?WindowProc@?$CWindowImplBaseT@V?$CEditT@VCWindow@ATL@@@WTL@@V?$CWinTraits@$0FGAAAAAA@$0A@@ATL@@@ATL@@SGJPAUHWND__@@IIJ@Z 00409ab0 f i DisassemblerGui.obj
 0001:00008bd0       ??$swprintf_s@$0BPE@@@YAHAAY0BPE@_WPB_WZZ 00409bd0 f i DisassemblerGui.obj
 0001:00008bf0       ?SubclassWindow@?$CHexEditImpl@V?$CHexEdit@K@@KV?$CEditT@VCWindow@ATL@@@WTL@@V?$CWinTraits@$0FGAAAAAA@$0A@@ATL@@@@QAEHPAUHWND__@@@Z 00409bf0 f i DisassemblerGui.obj
 0001:00008c60       ??$_Sort_unchecked1@PAVDisassemblerAddressComment@@HU?$less@X@std@@@std@@YAXPAVDisassemblerAddressComment@@0HAAU?$less@X@0@@Z 00409c60 f i DisassemblerGui.obj
 0001:00008d80       ??$_Partition_by_median_guess_unchecked@PAVDisassemblerAddressComment@@U?$less@X@std@@@std@@YA?AU?$pair@PAVDisassemblerAddressComment@@PAV1@@0@PAVDisassemblerAddressComment@@0AAU?$less@X@0@@Z 00409d80 f i DisassemblerGui.obj
 0001:00009070       ??$_Make_heap_unchecked@PAVDisassemblerAddressComment@@U?$less@X@std@@@std@@YAXPAVDisassemblerAddressComment@@0AAU?$less@X@0@@Z 0040a070 f i DisassemblerGui.obj
 0001:000090f0       ??$_Sort_heap_unchecked@PAVDisassemblerAddressComment@@U?$less@X@std@@@std@@YAXPAVDisassemblerAddressComment@@0AAU?$less@X@0@@Z 0040a0f0 f i DisassemblerGui.obj
 0001:000091b0       ??$_Insertion_sort_unchecked@PAVDisassemblerAddressComment@@U?$less@X@std@@@std@@YAXPAVDisassemblerAddressComment@@0AAU?$less@X@0@@Z 0040a1b0 f i DisassemblerGui.obj
 0001:00009280       ??$_Guess_median_unchecked@PAVDisassemblerAddressComment@@U?$less@X@std@@@std@@YAXPAVDisassemblerAddressComment@@00AAU?$less@X@0@@Z 0040a280 f i DisassemblerGui.obj
 0001:00009330       ??$_Pop_heap_hole_by_index@PAVDisassemblerAddressComment@@HV1@U?$less@X@std@@@std@@YAXPAVDisassemblerAddressComment@@HH$$QAV1@AAU?$less@X@0@@Z 0040a330 f i DisassemblerGui.obj
 0001:000093f0       ??$_Med3_unchecked@PAVDisassemblerAddressComment@@U?$less@X@std@@@std@@YAXPAVDisassemblerAddressComment@@00AAU?$less@X@0@@Z 0040a3f0 f i DisassemblerGui.obj
 0001:00009490       ??$_Push_heap_by_index@PAVDisassemblerAddressComment@@HV1@U?$less@X@std@@@std@@YAXPAVDisassemblerAddressComment@@HH$$QAV1@AAU?$less@X@0@@Z 0040a490 f i DisassemblerGui.obj
 0001:00009500       ?dllInjection@DllInjection@@QAEPAUHINSTANCE__@@PAXPB_W@Z 0040a500 f   DllInjection.obj
 0001:000095d0       ?unloadDllInProcess@DllInjection@@QAE_NPAXPAUHINSTANCE__@@@Z 0040a5d0 f   DllInjection.obj
 0001:00009650       ?startRemoteThread@DllInjection@@QAEPAXPAX00@Z 0040a650 f   DllInjection.obj
 0001:000096a0       ?customCreateRemoteThread@DllInjection@@AAEPAXPAX00@Z 0040a6a0 f   DllInjection.obj
 0001:00009710       ?injectPlugin@DllInjectionPlugin@@QAEXAAVPlugin@@AAV?$map@KVImportModuleThunk@@U?$less@K@std@@V?$allocator@U?$pair@$$CBKVImportModuleThunk@@@std@@@3@@std@@KK@Z 0040a710 f   DllInjectionPlugin.obj
 0001:00009880       ?injectImprecPlugin@DllInjectionPlugin@@QAEXAAVPlugin@@AAV?$map@KVImportModuleThunk@@U?$less@K@std@@V?$allocator@U?$pair@$$CBKVImportModuleThunk@@@std@@@3@@std@@KK@Z 0040a880 f   DllInjectionPlugin.obj
 0001:000099a0       ?getNumberOfUnresolvedImports@DllInjectionPlugin@@AAEKAAV?$map@KVImportModuleThunk@@U?$less@K@std@@V?$allocator@U?$pair@$$CBKVImportModuleThunk@@@std@@@3@@std@@@Z 0040a9a0 f   DllInjectionPlugin.obj
 0001:00009a10       ?addUnresolvedImports@DllInjectionPlugin@@AAEXPAU_UNRESOLVED_IMPORT@@AAV?$map@KVImportModuleThunk@@U?$less@K@std@@V?$allocator@U?$pair@$$CBKVImportModuleThunk@@@std@@@3@@std@@@Z 0040aa10 f   DllInjectionPlugin.obj
 0001:00009ab0       ?handlePluginResults@DllInjectionPlugin@@AAEXPAU_SCYLLA_EXCHANGE@@AAV?$map@KVImportModuleThunk@@U?$less@K@std@@V?$allocator@U?$pair@$$CBKVImportModuleThunk@@@std@@@3@@std@@@Z 0040aab0 f   DllInjectionPlugin.obj
 0001:00009b60       ?updateImportsWithPluginResult@DllInjectionPlugin@@AAEXPAU_UNRESOLVED_IMPORT@@AAV?$map@KVImportModuleThunk@@U?$less@K@std@@V?$allocator@U?$pair@$$CBKVImportModuleThunk@@@std@@@3@@std@@@Z 0040ab60 f   DllInjectionPlugin.obj
 0001:00009ce0       ?OnInitDialog@DonateGui@@IAEHVCWindow@ATL@@J@Z 0040ace0 f   DonateGui.obj
 0001:00009d40       ?CopyBtcAddress@DonateGui@@IAEXIHVCWindow@ATL@@@Z 0040ad40 f   DonateGui.obj
 0001:00009da0       ?ProcessWindowMessage@DumpMemoryGui@@UAEHPAUHWND__@@IIJAAJK@Z 0040ada0 f i DumpMemoryGui.obj
 0001:00009f00       ??0DumpMemoryGui@@QAE@XZ   0040af00 f   DumpMemoryGui.obj
 0001:0000a090       ??_GDumpMemoryGui@@UAEPAXI@Z 0040b090 f i DumpMemoryGui.obj
 0001:0000a090       ??_EDumpMemoryGui@@UAEPAXI@Z 0040b090 f i * CIL library *:* CIL module *
 0001:0000a0c0       ??1DumpMemoryGui@@UAE@XZ   0040b0c0 f   DumpMemoryGui.obj
 0001:0000a1a0       ??_GDeviceNameResolver@@QAEPAXI@Z 0040b1a0 f i DumpMemoryGui.obj
 0001:0000a200       ?OnInitDialog@DumpMemoryGui@@IAEHVCWindow@ATL@@J@Z 0040b200 f   DumpMemoryGui.obj
 0001:0000a420       ?addColumnsToMemoryList@DumpMemoryGui@@IAEXAAV?$CListViewCtrlT@VCWindow@ATL@@@WTL@@@Z 0040b420 f   DumpMemoryGui.obj
 0001:0000a5f0       ?displayMemoryList@DumpMemoryGui@@IAEXAAV?$CListViewCtrlT@VCWindow@ATL@@@WTL@@@Z 0040b5f0 f   DumpMemoryGui.obj
 0001:0000ac80       ?getMemoryStateString@DumpMemoryGui@@CAPB_WK@Z 0040bc80 f   DumpMemoryGui.obj
 0001:0000acb0       ?getMemoryProtectionString@DumpMemoryGui@@CAPA_WK@Z 0040bcb0 f   DumpMemoryGui.obj
 0001:0000ae70       ?OnListMemoryColumnClicked@DumpMemoryGui@@IAEJPAUtagNMHDR@@@Z 0040be70 f   DumpMemoryGui.obj
 0001:0000aed0       ?OnListMemoryClick@DumpMemoryGui@@IAEJPAUtagNMHDR@@@Z 0040bed0 f   DumpMemoryGui.obj
 0001:0000af50       ?OnOK@DumpMemoryGui@@IAEXIHVCWindow@ATL@@@Z 0040bf50 f   DumpMemoryGui.obj
 0001:0000b050       ?updateAddressAndSize@DumpMemoryGui@@AAEXPAVMemory@@@Z 0040c050 f   DumpMemoryGui.obj
 0001:0000b0d0       ?listviewCompareFunc@DumpMemoryGui@@KGHJJJ@Z 0040c0d0 f   DumpMemoryGui.obj
 0001:0000b1e0       ?getMemoryList@DumpMemoryGui@@AAEXXZ 0040c1e0 f   DumpMemoryGui.obj
 0001:0000b4b0       ?setSectionName@DumpMemoryGui@@AAEXKKPB_W@Z 0040c4b0 f   DumpMemoryGui.obj
 0001:0000b5d0       ?setModuleName@DumpMemoryGui@@AAEXKPB_W@Z 0040c5d0 f   DumpMemoryGui.obj
 0001:0000b650       ?setAllSectionNames@DumpMemoryGui@@AAEXKPA_W@Z 0040c650 f   DumpMemoryGui.obj
 0001:0000b750       ?dumpMemory@DumpMemoryGui@@AAE_NXZ 0040c750 f   DumpMemoryGui.obj
 0001:0000b830       ??1?$vector@VMemory@@V?$allocator@VMemory@@@std@@@std@@QAE@XZ 0040c830 f i DumpMemoryGui.obj
 0001:0000b870       ?ProcessWindowMessage@?$CDialogResize@VPickDllGui@@@WTL@@QAEHPAUHWND__@@IIJAAJK@Z 0040c870 f i PickDllGui.obj
 0001:0000b870       ?ProcessWindowMessage@?$CDialogResize@VDumpMemoryGui@@@WTL@@QAEHPAUHWND__@@IIJAAJK@Z 0040c870 f i DumpMemoryGui.obj
 0001:0000b870       ?ProcessWindowMessage@?$CDialogResize@VDumpSectionGui@@@WTL@@QAEHPAUHWND__@@IIJAAJK@Z 0040c870 f i DumpSectionGui.obj
 0001:0000b870       ?ProcessWindowMessage@?$CDialogResize@VPickApiGui@@@WTL@@QAEHPAUHWND__@@IIJAAJK@Z 0040c870 f i PickApiGui.obj
 0001:0000b8d0       ?DlgResize_Init@?$CDialogResize@VDumpMemoryGui@@@WTL@@QAEX_N0K@Z 0040c8d0 f i DumpMemoryGui.obj
 0001:0000bc10       ?GetItemData@?$CListViewCtrlT@VCWindow@ATL@@@WTL@@QBEKH@Z 0040cc10 f i DumpMemoryGui.obj
 0001:0000bc60       ?_Reserve@?$vector@VMemory@@V?$allocator@VMemory@@@std@@@std@@IAEXI@Z 0040cc60 f i DumpMemoryGui.obj
 0001:0000bcf0       ?_Reallocate@?$vector@VMemory@@V?$allocator@VMemory@@@std@@@std@@IAEXI@Z 0040ccf0 f i DumpMemoryGui.obj
 0001:0000bd70       ?OnSize@?$CDialogResize@VPickDllGui@@@WTL@@QAEJIIJAAH@Z 0040cd70 f i PickDllGui.obj
 0001:0000bd70       ?OnSize@?$CDialogResize@VPickApiGui@@@WTL@@QAEJIIJAAH@Z 0040cd70 f i PickApiGui.obj
 0001:0000bd70       ?OnSize@?$CDialogResize@VDumpMemoryGui@@@WTL@@QAEJIIJAAH@Z 0040cd70 f i DumpMemoryGui.obj
 0001:0000bd70       ?OnSize@?$CDialogResize@VDumpSectionGui@@@WTL@@QAEJIIJAAH@Z 0040cd70 f i DumpSectionGui.obj
 0001:0000bde0       ?deallocate@?$_Wrap_alloc@V?$allocator@VMemory@@@std@@@std@@QAEXPAVMemory@@I@Z 0040cde0 f i DumpMemoryGui.obj
 0001:0000be40       ?DlgResize_UpdateLayout@?$CDialogResize@VPickApiGui@@@WTL@@QAEXHH@Z 0040ce40 f i PickApiGui.obj
 0001:0000be40       ?DlgResize_UpdateLayout@?$CDialogResize@VDumpMemoryGui@@@WTL@@QAEXHH@Z 0040ce40 f i DumpMemoryGui.obj
 0001:0000be40       ?DlgResize_UpdateLayout@?$CDialogResize@VPickDllGui@@@WTL@@QAEXHH@Z 0040ce40 f i PickDllGui.obj
 0001:0000be40       ?DlgResize_UpdateLayout@?$CDialogResize@VDumpSectionGui@@@WTL@@QAEXHH@Z 0040ce40 f i DumpSectionGui.obj
 0001:0000c110       ?allocate@?$allocator@VMemory@@@std@@QAEPAVMemory@@I@Z 0040d110 f i DumpMemoryGui.obj
 0001:0000c170       ??$swprintf_s@$0BE@@@YAHAAY0BE@_WPB_WZZ 0040d170 f i DumpMemoryGui.obj
 0001:0000c190       ??$swprintf_s@$0CH@@@YAHAAY0CH@_WPB_WZZ 0040d190 f i DumpMemoryGui.obj
 0001:0000c1b0       ?DoDataExchange@DumpSectionGui@@QAEHHI@Z 0040d1b0 f i DumpSectionGui.obj
 0001:0000c220       ?ProcessWindowMessage@DumpSectionGui@@UAEHPAUHWND__@@IIJAAJK@Z 0040d220 f i DumpSectionGui.obj
 0001:0000c460       ??0DumpSectionGui@@QAE@XZ  0040d460 f   DumpSectionGui.obj
 0001:0000c540       ??_EDumpSectionGui@@UAEPAXI@Z 0040d540 f i * CIL library *:* CIL module *
 0001:0000c540       ??_GDumpSectionGui@@UAEPAXI@Z 0040d540 f i DumpSectionGui.obj
 0001:0000c570       ??1DumpSectionGui@@UAE@XZ  0040d570 f   DumpSectionGui.obj
 0001:0000c620       ?OnInitDialog@DumpSectionGui@@AAEHVCWindow@ATL@@J@Z 0040d620 f   DumpSectionGui.obj
 0001:0000c680       ?OnListSectionColumnClicked@DumpSectionGui@@AAEJPAUtagNMHDR@@@Z 0040d680 f   DumpSectionGui.obj
 0001:0000c6e0       ?OnListDoubleClick@DumpSectionGui@@AAEJPAUtagNMHDR@@@Z 0040d6e0 f   DumpSectionGui.obj
 0001:0000c8b0       ?listviewCompareFunc@DumpSectionGui@@CGHJJJ@Z 0040d8b0 f   DumpSectionGui.obj
 0001:0000c950       ?addColumnsToSectionList@DumpSectionGui@@AAEXAAV?$CListViewCtrlT@VCWindow@ATL@@@WTL@@@Z 0040d950 f   DumpSectionGui.obj
 0001:0000cab0       ?displaySectionList@DumpSectionGui@@AAEXAAV?$CListViewCtrlT@VCWindow@ATL@@@WTL@@@Z 0040dab0 f   DumpSectionGui.obj
 0001:0000cf00       ?OnNMCustomdraw@DumpSectionGui@@AAEJPAUtagNMHDR@@@Z 0040df00 f   DumpSectionGui.obj
 0001:0000cf70       ?getAllSectionsFromFile@DumpSectionGui@@AAEXXZ 0040df70 f   DumpSectionGui.obj
 0001:0000d100       ?updateEditedItem@DumpSectionGui@@AAEXXZ 0040e100 f   DumpSectionGui.obj
 0001:0000d1d0       ?updateCheckState@DumpSectionGui@@AAEXXZ 0040e1d0 f   DumpSectionGui.obj
 0001:0000d290       ?selectOrDeselectAll@DumpSectionGui@@AAEXXZ 0040e290 f   DumpSectionGui.obj
 0001:0000d350       ?push_back@?$vector@VPeSection@@V?$allocator@VPeSection@@@std@@@std@@QAEXABVPeSection@@@Z 0040e350 f i DumpSectionGui.obj
 0001:0000d400       ?DlgResize_Init@?$CDialogResize@VDumpSectionGui@@@WTL@@QAEX_N0K@Z 0040e400 f i DumpSectionGui.obj
 0001:0000d740       ?_Reserve@?$vector@VPeSection@@V?$allocator@VPeSection@@@std@@@std@@IAEXI@Z 0040e740 f i DumpSectionGui.obj
 0001:0000d7d0       ?_Reallocate@?$vector@VPeSection@@V?$allocator@VPeSection@@@std@@@std@@IAEXI@Z 0040e7d0 f i DumpSectionGui.obj
 0001:0000d8a0       ?deallocate@?$_Wrap_alloc@V?$allocator@VPeSection@@@std@@@std@@QAEXPAVPeSection@@I@Z 0040e8a0 f i DumpSectionGui.obj
 0001:0000d900       ??0ProcessLister@@QAE@XZ   0040e900 f i FunctionExport.obj
 0001:0000d9c0       ??1ProcessLister@@QAE@XZ   0040e9c0 f i FunctionExport.obj
 0001:0000da70       ??0ImportRebuilder@@QAE@PB_W@Z 0040ea70 f i FunctionExport.obj
 0001:0000dae0       ??1?$map@KVImportModuleThunk@@U?$less@K@std@@V?$allocator@U?$pair@$$CBKVImportModuleThunk@@@std@@@3@@std@@QAE@XZ 0040eae0 f i FunctionExport.obj
 0001:0000db10       ??1ImportRebuilder@@QAE@XZ 0040eb10 f i FunctionExport.obj
 0001:0000db20       ??1?$vector@VProcess@@V?$allocator@VProcess@@@std@@@std@@QAE@XZ 0040eb20 f i FunctionExport.obj
 0001:0000db70       ?erase@?$_Tree@V?$_Tmap_traits@KVImportModuleThunk@@U?$less@K@std@@V?$allocator@U?$pair@$$CBKVImportModuleThunk@@@std@@@3@$0A@@std@@@std@@QAE?AV?$_Tree_iterator@V?$_Tree_val@U?$_Tree_simple_types@U?$pair@$$CBKVImportModuleThunk@@@std@@@std@@@std@@@2@V?$_Tree_const_iterator@V?$_Tree_val@U?$_Tree_simple_types@U?$pair@$$CBKVImportModuleThunk@@@std@@@std@@@std@@@2@0@Z 0040eb70 f i FunctionExport.obj
 0001:0000dc30       ?deallocate@?$_Wrap_alloc@V?$allocator@VProcess@@@std@@@std@@QAEXPAVProcess@@I@Z 0040ec30 f i FunctionExport.obj
 0001:0000dc90       ?erase@?$_Tree@V?$_Tmap_traits@KVImportModuleThunk@@U?$less@K@std@@V?$allocator@U?$pair@$$CBKVImportModuleThunk@@@std@@@3@$0A@@std@@@std@@QAE?AV?$_Tree_iterator@V?$_Tree_val@U?$_Tree_simple_types@U?$pair@$$CBKVImportModuleThunk@@@std@@@std@@@std@@@2@V?$_Tree_const_iterator@V?$_Tree_val@U?$_Tree_simple_types@U?$pair@$$CBKVImportModuleThunk@@@std@@@std@@@std@@@2@@Z 0040ec90 f i FunctionExport.obj
 0001:0000e090       ?_Buyheadnode@?$_Tree_comp_alloc@V?$_Tmap_traits@KVImportModuleThunk@@U?$less@K@std@@V?$allocator@U?$pair@$$CBKVImportModuleThunk@@@std@@@3@$0A@@std@@@std@@QAEPAU?$_Tree_node@U?$pair@$$CBKVImportModuleThunk@@@std@@PAX@2@XZ 0040f090 f i FunctionExport.obj
 0001:0000e0c0       ?numberOfFoundUniqueDirectImports@IATReferenceScan@@QAEHXZ 0040f0c0 f   IATReferenceScan.obj
 0001:0000e170       ?numberOfDirectImportApisNotInIat@IATReferenceScan@@QAEHXZ 0040f170 f   IATReferenceScan.obj
 0001:0000e220       ?startScan@IATReferenceScan@@QAEXKKKK@Z 0040f220 f   IATReferenceScan.obj
 0001:0000e320       ?scanMemoryPage@IATReferenceScan@@AAEXPAXK@Z 0040f320 f   IATReferenceScan.obj
 0001:0000e4d0       ?analyzeInstruction@IATReferenceScan@@AAEXPAU_DInst@@@Z 0040f4d0 f   IATReferenceScan.obj
 0001:0000e5f0       ?findNormalIatReference@IATReferenceScan@@AAEXPAU_DInst@@@Z 0040f5f0 f   IATReferenceScan.obj
 0001:0000e730       ?patchDirectImportInMemory@IATReferenceScan@@AAEXPAVIATReference@@@Z 0040f730 f   IATReferenceScan.obj
 0001:0000e7d0       ?lookUpIatForPointer@IATReferenceScan@@AAEKK@Z 0040f7d0 f   IATReferenceScan.obj
 0001:0000e860       ?patchNewIat@IATReferenceScan@@QAEXKKPAVPeParser@@@Z 0040f860 f   IATReferenceScan.obj
 0001:0000e9a0       ?printDirectImportLog@IATReferenceScan@@QAEXXZ 0040f9a0 f   IATReferenceScan.obj
 0001:0000eab0       ?checkMemoryRangeAndAddToList@IATReferenceScan@@AAEXPAVIATReference@@PAU_DInst@@@Z 0040fab0 f   IATReferenceScan.obj
 0001:0000eba0       ?patchDirectJumpTableEntry@IATReferenceScan@@AAEXKKKPAVPeParser@@PAEK@Z 0040fba0 f   IATReferenceScan.obj
 0001:0000edc0       ?patchDirectJumpTable@IATReferenceScan@@QAEXKKPAVPeParser@@PAEK@Z 0040fdc0 f   IATReferenceScan.obj
 0001:0000ef20       ?addAdditionalApisToList@IATReferenceScan@@QAEKXZ 0040ff20 f   IATReferenceScan.obj
 0001:0000f0b0       ?_Reserve@?$vector@VIATReference@@V?$allocator@VIATReference@@@std@@@std@@IAEXI@Z 004100b0 f i IATReferenceScan.obj
 0001:0000f140       ?_Reallocate@?$vector@VIATReference@@V?$allocator@VIATReference@@@std@@@std@@IAEXI@Z 00410140 f i IATReferenceScan.obj
 0001:0000f1c0       ?deallocate@?$_Wrap_alloc@V?$allocator@VIATReference@@@std@@@std@@QAEXPAVIATReference@@I@Z 004101c0 f i IATReferenceScan.obj
 0001:0000f220       ?allocate@?$allocator@VIATReference@@@std@@QAEPAVIATReference@@I@Z 00410220 f i IATReferenceScan.obj
 0001:0000f280       ?_Buyheadnode@?$_Tree_comp_alloc@V?$_Tset_traits@KU?$less@K@std@@V?$allocator@K@2@$0A@@std@@@std@@QAEPAU?$_Tree_node@KPAX@2@XZ 00410280 f i IATReferenceScan.obj
 0001:0000f2b0       ??$_Insert_nohint@ABKU_Nil@std@@@?$_Tree@V?$_Tset_traits@KU?$less@K@std@@V?$allocator@K@2@$0A@@std@@@std@@IAE?AU?$pair@V?$_Tree_const_iterator@V?$_Tree_val@U?$_Tree_simple_types@K@std@@@std@@@std@@_N@1@_NABKU_Nil@1@@Z 004102b0 f i IATReferenceScan.obj
 0001:0000f2b0       ??$_Insert_nohint@KU_Nil@std@@@?$_Tree@V?$_Tset_traits@KU?$less@K@std@@V?$allocator@K@2@$0A@@std@@@std@@IAE?AU?$pair@V?$_Tree_const_iterator@V?$_Tree_val@U?$_Tree_simple_types@K@std@@@std@@@std@@_N@1@_N$$QAKU_Nil@1@@Z 004102b0 f i IATSearch.obj
 0001:0000f3b0       ??$_Insert_at@KU_Nil@std@@@?$_Tree@V?$_Tset_traits@KU?$less@K@std@@V?$allocator@K@2@$0A@@std@@@std@@IAE?AV?$_Tree_const_iterator@V?$_Tree_val@U?$_Tree_simple_types@K@std@@@std@@@1@_NPAU?$_Tree_node@KPAX@1@$$QAKU_Nil@1@@Z 004103b0 f i IATSearch.obj
 0001:0000f3b0       ??$_Insert_at@ABKU_Nil@std@@@?$_Tree@V?$_Tset_traits@KU?$less@K@std@@V?$allocator@K@2@$0A@@std@@@std@@IAE?AV?$_Tree_const_iterator@V?$_Tree_val@U?$_Tree_simple_types@K@std@@@std@@@1@_NPAU?$_Tree_node@KPAX@1@ABKU_Nil@1@@Z 004103b0 f i IATReferenceScan.obj
 0001:0000f5c0       ??$_Buynode@K@?$_Tree_comp_alloc@V?$_Tset_traits@KU?$less@K@std@@V?$allocator@K@2@$0A@@std@@@std@@QAEPAU?$_Tree_node@KPAX@1@$$QAK@Z 004105c0 f i IATSearch.obj
 0001:0000f5c0       ??$_Buynode@ABK@?$_Tree_comp_alloc@V?$_Tset_traits@KU?$less@K@std@@V?$allocator@K@2@$0A@@std@@@std@@QAEPAU?$_Tree_node@KPAX@1@ABK@Z 004105c0 f i IATReferenceScan.obj
 0001:0000f5e0       ?_Buynode0@?$_Tree_comp_alloc@V?$_Tset_traits@KU?$less@K@std@@V?$allocator@K@2@$0A@@std@@@std@@QAEPAU?$_Tree_node@KPAX@2@XZ 004105e0 f i IATReferenceScan.obj
 0001:0000f620       ?findIATAdvanced@IATSearch@@AAE_NKPAK0@Z 00410620 f   IATSearch.obj
 0001:0000f860       ?findAPIAddressInIAT@IATSearch@@AAEKK@Z 00410860 f   IATSearch.obj
 0001:0000fac0       ?findNextFunctionAddress@IATSearch@@AAEKXZ 00410ac0 f   IATSearch.obj
 0001:0000fb20       ?findIATPointer@IATSearch@@AAEKXZ 00410b20 f   IATSearch.obj
 0001:0000fb80       ?findIATStartAndSize@IATSearch@@AAE_NKPAK0@Z 00410b80 f   IATSearch.obj
 0001:0000fc30       ?findIATStartAddress@IATSearch@@AAEKKKPAE@Z 00410c30 f   IATSearch.obj
 0001:0000fd40       ?findIATSize@IATSearch@@AAEKKKPAEK@Z 00410d40 f   IATSearch.obj
 0001:0000fe40       ?findIATPointers@IATSearch@@AAEXAAV?$set@KU?$less@K@std@@V?$allocator@K@2@@std@@@Z 00410e40 f   IATSearch.obj
 0001:0000fec0       ?findExecutableMemoryPagesByStartAddress@IATSearch@@AAEXKPAK0@Z 00410ec0 f   IATSearch.obj
 0001:0000ff80       ?filterIATPointersList@IATSearch@@AAEXAAV?$set@KU?$less@K@std@@V?$allocator@K@2@@std@@@Z 00410f80 f   IATSearch.obj
 0001:00010210       ?getMemoryBaseAndSizeForIat@IATSearch@@AAEXKPAK0@Z 00411210 f   IATSearch.obj
 0001:00010310       ?rebuildImportTable@ImportRebuilder@@QAE_NPB_WAAV?$map@KVImportModuleThunk@@U?$less@K@std@@V?$allocator@U?$pair@$$CBKVImportModuleThunk@@@std@@@3@@std@@@Z 00411310 f   ImportRebuilder.obj
 0001:00010420       ?buildNewImportTable@ImportRebuilder@@AAE_NAAV?$map@KVImportModuleThunk@@U?$less@K@std@@V?$allocator@U?$pair@$$CBKVImportModuleThunk@@@std@@@3@@std@@@Z 00411420 f   ImportRebuilder.obj
 0001:00010570       ?createNewImportSection@ImportRebuilder@@AAE_NAAV?$map@KVImportModuleThunk@@U?$less@K@std@@V?$allocator@U?$pair@$$CBKVImportModuleThunk@@@std@@@3@@std@@@Z 00411570 f   ImportRebuilder.obj
 0001:00010690       ?setFlagToIATSection@ImportRebuilder@@AAEXK@Z 00411690 f   ImportRebuilder.obj
 0001:00010710       ?fillImportSection@ImportRebuilder@@AAEKAAV?$map@KVImportModuleThunk@@U?$less@K@std@@V?$allocator@U?$pair@$$CBKVImportModuleThunk@@@std@@@3@@std@@@Z 00411710 f   ImportRebuilder.obj
 0001:000108d0       ?addImportDescriptor@ImportRebuilder@@AAEIPAVImportModuleThunk@@KK@Z 004118d0 f   ImportRebuilder.obj
 0001:00010a80       ?addSpecialImportDescriptor@ImportRebuilder@@AAEXKK@Z 00411a80 f   ImportRebuilder.obj
 0001:00010b30       ?calculateImportSizes@ImportRebuilder@@AAEXAAV?$map@KVImportModuleThunk@@U?$less@K@std@@V?$allocator@U?$pair@$$CBKVImportModuleThunk@@@std@@@3@@std@@@Z 00411b30 f   ImportRebuilder.obj
 0001:00010c60       ?addImportToImportTable@ImportRebuilder@@AAEIPAVImportThunk@@PAU_IMAGE_THUNK_DATA32@@PAU_IMAGE_IMPORT_BY_NAME@@K@Z 00411c60 f   ImportRebuilder.obj
 0001:00010d30       ?getMemoryPointerFromRVA@ImportRebuilder@@AAEPAEK@Z 00411d30 f   ImportRebuilder.obj
 0001:00010e30       ?patchFileForNewIatLocation@ImportRebuilder@@AAEXXZ 00411e30 f   ImportRebuilder.obj
 0001:00010e90       ?changeIatBaseAddress@ImportRebuilder@@AAEXAAV?$map@KVImportModuleThunk@@U?$less@K@std@@V?$allocator@U?$pair@$$CBKVImportModuleThunk@@@std@@@3@@std@@@Z 00411e90 f   ImportRebuilder.obj
 0001:00010f10       ?patchFileForDirectImportJumpTable@ImportRebuilder@@AAEXXZ 00411f10 f   ImportRebuilder.obj
 0001:00010fe0       ??$insert@V?$_Tree_iterator@V?$_Tree_val@U?$_Tree_simple_types@U?$pair@$$CBKVImportModuleThunk@@@std@@@std@@@std@@@std@@@?$_Tree@V?$_Tmap_traits@KVImportModuleThunk@@U?$less@K@std@@V?$allocator@U?$pair@$$CBKVImportModuleThunk@@@std@@@3@$0A@@std@@@std@@QAEXV?$_Tree_iterator@V?$_Tree_val@U?$_Tree_simple_types@U?$pair@$$CBKVImportModuleThunk@@@std@@@std@@@std@@@1@0@Z 00411fe0 f i ImportRebuilder.obj
 0001:00011030       ??$_Buynode@AAU?$pair@$$CBKVImportModuleThunk@@@std@@@?$_Tree_comp_alloc@V?$_Tmap_traits@KVImportModuleThunk@@U?$less@K@std@@V?$allocator@U?$pair@$$CBKVImportModuleThunk@@@std@@@3@$0A@@std@@@std@@QAEPAU?$_Tree_node@U?$pair@$$CBKVImportModuleThunk@@@std@@PAX@1@AAU?$pair@$$CBKVImportModuleThunk@@@1@@Z 00412030 f i ImportRebuilder.obj
 0001:000110b0       ??$_Insert_hint@AAU?$pair@$$CBKVImportModuleThunk@@@std@@PAU?$_Tree_node@U?$pair@$$CBKVImportModuleThunk@@@std@@PAX@2@@?$_Tree@V?$_Tmap_traits@KVImportModuleThunk@@U?$less@K@std@@V?$allocator@U?$pair@$$CBKVImportModuleThunk@@@std@@@3@$0A@@std@@@std@@IAE?AV?$_Tree_iterator@V?$_Tree_val@U?$_Tree_simple_types@U?$pair@$$CBKVImportModuleThunk@@@std@@@std@@@std@@@1@V?$_Tree_const_iterator@V?$_Tree_val@U?$_Tree_simple_types@U?$pair@$$CBKVImportModuleThunk@@@std@@@std@@@std@@@1@AAU?$pair@$$CBKVImportModuleThunk@@@1@PAU?$_Tree_node@U?$pair@$$CBKVImportModuleThunk@@@std@@PAX@1@@Z 004120b0 f i ImportRebuilder.obj
 0001:000112c0       ??0?$pair@$$CBKVImportModuleThunk@@@std@@QAE@ABU01@@Z 004122c0 f i ImportRebuilder.obj
 0001:00011340       ??0exception@std@@QAE@QBD@Z 00412340 f i ImportsHandling.obj
 0001:00011380       ??0exception@std@@QAE@ABV01@@Z 00412380 f i ImportsHandling.obj
 0001:000113b0       ?what@exception@std@@UBEPBDXZ 004123b0 f i ImportsHandling.obj
 0001:000113c0       ??_Eexception@std@@UAEPAXI@Z 004123c0 f i * CIL library *:* CIL module *
 0001:000113c0       ??_Gexception@std@@UAEPAXI@Z 004123c0 f i ImportsHandling.obj
 0001:000113f0       ?isValid@ImportModuleThunk@@QBE_NXZ 004123f0 f   ImportsHandling.obj
 0001:00011430       ??0ImportsHandling@@QAE@AAVCMultiSelectTreeViewCtrl@@@Z 00412430 f   ImportsHandling.obj
 0001:000115c0       ??1ImportsHandling@@QAE@XZ 004125c0 f   ImportsHandling.obj
 0001:00011660       ?isModule@ImportsHandling@@QAE_NV?$CTreeItemT@VCWindow@ATL@@@WTL@@@Z 00412660 f   ImportsHandling.obj
 0001:000116b0       ?isImport@ImportsHandling@@QAE_NV?$CTreeItemT@VCWindow@ATL@@@WTL@@@Z 004126b0 f   ImportsHandling.obj
 0001:00011700       ?updateCounts@ImportsHandling@@AAEXXZ 00412700 f   ImportsHandling.obj
 0001:00011790       ?displayAllImports@ImportsHandling@@QAEXXZ 00412790 f   ImportsHandling.obj
 0001:00011910       ?clearAllImports@ImportsHandling@@QAEXXZ 00412910 f   ImportsHandling.obj
 0001:000119d0       ?addDllToTreeView@ImportsHandling@@AAE?AV?$CTreeItemT@VCWindow@ATL@@@WTL@@AAVCMultiSelectTreeViewCtrl@@PAVImportModuleThunk@@@Z 004129d0 f   ImportsHandling.obj
 0001:00011af0       ?addApiToTreeView@ImportsHandling@@AAE?AV?$CTreeItemT@VCWindow@ATL@@@WTL@@AAVCMultiSelectTreeViewCtrl@@V23@PAVImportThunk@@@Z 00412af0 f   ImportsHandling.obj
 0001:00011c10       ?selectImports@ImportsHandling@@QAEX_N0@Z 00412c10 f   ImportsHandling.obj
 0001:00011d30       ?invalidateImport@ImportsHandling@@QAE_NV?$CTreeItemT@VCWindow@ATL@@@WTL@@@Z 00412d30 f   ImportsHandling.obj
 0001:00011e30       ?invalidateModule@ImportsHandling@@QAE_NV?$CTreeItemT@VCWindow@ATL@@@WTL@@@Z 00412e30 f   ImportsHandling.obj
 0001:00011f10       ?setImport@ImportsHandling@@QAE_NV?$CTreeItemT@VCWindow@ATL@@@WTL@@PB_WPBDGG_N3@Z 00412f10 f   ImportsHandling.obj
 0001:00012060       ?updateImportInTreeView@ImportsHandling@@AAEXPBVImportThunk@@V?$CTreeItemT@VCWindow@ATL@@@WTL@@@Z 00413060 f   ImportsHandling.obj
 0001:00012230       ?updateModuleInTreeView@ImportsHandling@@AAEXPBVImportModuleThunk@@V?$CTreeItemT@VCWindow@ATL@@@WTL@@@Z 00413230 f   ImportsHandling.obj
 0001:00012350       ?cutImport@ImportsHandling@@QAE_NV?$CTreeItemT@VCWindow@ATL@@@WTL@@@Z 00413350 f   ImportsHandling.obj
 0001:00012500       ?cutModule@ImportsHandling@@QAE_NV?$CTreeItemT@VCWindow@ATL@@@WTL@@@Z 00413500 f   ImportsHandling.obj
 0001:00012670       ?scanAndFixModuleList@ImportsHandling@@QAEXXZ 00413670 f   ImportsHandling.obj
 0001:00012860       ?addModuleToModuleList@ImportsHandling@@AAE_NPB_WK@Z 00413860 f   ImportsHandling.obj
 0001:00012950       ??4ImportModuleThunk@@QAEAAV0@ABV0@@Z 00413950 f i ImportsHandling.obj
 0001:000129f0       ?addUnknownModuleToModuleList@ImportsHandling@@AAEXK@Z 004139f0 f   ImportsHandling.obj
 0001:00012ae0       ?addNotFoundApiToModuleList@ImportsHandling@@AAE_NPBVImportThunk@@@Z 00413ae0 f   ImportsHandling.obj
 0001:00012cd0       ??4ImportThunk@@QAEAAV0@ABV0@@Z 00413cd0 f i ImportsHandling.obj
 0001:00012da0       ?addFunctionToModuleList@ImportsHandling@@AAE_NPBVImportThunk@@@Z 00413da0 f   ImportsHandling.obj
 0001:00012f10       ?changeExpandStateOfTreeNodes@ImportsHandling@@AAEXI@Z 00413f10 f   ImportsHandling.obj
 0001:00012f60       ?erase@?$_Tree@V?$_Tmap_traits@KVImportThunk@@U?$less@K@std@@V?$allocator@U?$pair@$$CBKVImportThunk@@@std@@@3@$0A@@std@@@std@@QAEIABK@Z 00413f60 f i ImportsHandling.obj
 0001:00013000       ?clear@?$_Hash@V?$_Hmap_traits@PAU_TREEITEM@@UTreeItemData@ImportsHandling@@V?$hash_compare@PAU_TREEITEM@@U?$less@PAU_TREEITEM@@@std@@@stdext@@V?$allocator@U?$pair@QAU_TREEITEM@@UTreeItemData@ImportsHandling@@@std@@@std@@$0A@@stdext@@@std@@QAEXXZ 00414000 f i ImportsHandling.obj
 0001:00013070       ?erase@?$_Hash@V?$_Hmap_traits@PAU_TREEITEM@@UTreeItemData@ImportsHandling@@V?$hash_compare@PAU_TREEITEM@@U?$less@PAU_TREEITEM@@@std@@@stdext@@V?$allocator@U?$pair@QAU_TREEITEM@@UTreeItemData@ImportsHandling@@@std@@@std@@$0A@@stdext@@@std@@QAEIABQAU_TREEITEM@@@Z 00414070 f i ImportsHandling.obj
 0001:000130f0       ??1?$_Hash@V?$_Hmap_traits@PAU_TREEITEM@@UTreeItemData@ImportsHandling@@V?$hash_compare@PAU_TREEITEM@@U?$less@PAU_TREEITEM@@@std@@@stdext@@V?$allocator@U?$pair@QAU_TREEITEM@@UTreeItemData@ImportsHandling@@@std@@@std@@$0A@@stdext@@@std@@QAE@XZ 004140f0 f i ImportsHandling.obj
 0001:00013160       ??A?$hash_map@PAU_TREEITEM@@UTreeItemData@ImportsHandling@@V?$hash_compare@PAU_TREEITEM@@U?$less@PAU_TREEITEM@@@std@@@stdext@@V?$allocator@U?$pair@QAU_TREEITEM@@UTreeItemData@ImportsHandling@@@std@@@std@@@stdext@@QAEAAUTreeItemData@ImportsHandling@@$$QAPAU_TREEITEM@@@Z 00414160 f i ImportsHandling.obj
 0001:00013200       ??0?$hash_map@PAU_TREEITEM@@UTreeItemData@ImportsHandling@@V?$hash_compare@PAU_TREEITEM@@U?$less@PAU_TREEITEM@@@std@@@stdext@@V?$allocator@U?$pair@QAU_TREEITEM@@UTreeItemData@ImportsHandling@@@std@@@std@@@stdext@@QAE@XZ 00414200 f i ImportsHandling.obj
 0001:000132a0       ?erase@?$_Tree@V?$_Tmap_traits@KVImportModuleThunk@@U?$less@K@std@@V?$allocator@U?$pair@$$CBKVImportModuleThunk@@@std@@@3@$0A@@std@@@std@@QAEIABK@Z 004142a0 f i ImportsHandling.obj
 0001:00013300       ?SetImageList@?$CTreeViewCtrlT@VCWindow@ATL@@@WTL@@QAE?AV?$CImageListT@$0A@@2@PAU_IMAGELIST@@H@Z 00414300 f i ImportsHandling.obj
 0001:00013320       ?_SelectItem@?$CMultiSelectTreeViewImpl@VCMultiSelectTreeViewCtrl@@V?$CTreeViewCtrlExT@VCWindow@ATL@@@WTL@@V?$CWinTraitsOR@$0CA@$0A@V?$CWinTraits@$0FGAAAAAA@$0A@@ATL@@@ATL@@@@QAEXH_NH@Z 00414320 f i ImportsHandling.obj
 0001:000134e0       ?equal_range@?$_Hash@V?$_Hmap_traits@PAU_TREEITEM@@UTreeItemData@ImportsHandling@@V?$hash_compare@PAU_TREEITEM@@U?$less@PAU_TREEITEM@@@std@@@stdext@@V?$allocator@U?$pair@QAU_TREEITEM@@UTreeItemData@ImportsHandling@@@std@@@std@@$0A@@stdext@@@std@@QAE?AU?$pair@V?$_List_iterator@V?$_List_val@U?$_List_simple_types@U?$pair@QAU_TREEITEM@@UTreeItemData@ImportsHandling@@@std@@@std@@@std@@@std@@V12@@2@ABQAU_TREEITEM@@@Z 004144e0 f i ImportsHandling.obj
 0001:000135b0       ?lower_bound@?$_Hash@V?$_Hmap_traits@PAU_TREEITEM@@UTreeItemData@ImportsHandling@@V?$hash_compare@PAU_TREEITEM@@U?$less@PAU_TREEITEM@@@std@@@stdext@@V?$allocator@U?$pair@QAU_TREEITEM@@UTreeItemData@ImportsHandling@@@std@@@std@@$0A@@stdext@@@std@@QAE?AV?$_List_iterator@V?$_List_val@U?$_List_simple_types@U?$pair@QAU_TREEITEM@@UTreeItemData@ImportsHandling@@@std@@@std@@@std@@@2@ABQAU_TREEITEM@@@Z 004145b0 f i ImportsHandling.obj
 0001:00013650       ?GetValueAt@?$CSimpleMap@PAU_TREEITEM@@_NV?$CSimpleMapEqualHelper@PAU_TREEITEM@@_N@ATL@@@ATL@@QBEAA_NH@Z 00414650 f i ImportsHandling.obj
 0001:00013680       ?GetItemData@?$CTreeViewCtrlT@VCWindow@ATL@@@WTL@@QBEKPAU_TREEITEM@@@Z 00414680 f i ImportsHandling.obj
 0001:000136d0       ?GetParent@?$CTreeItemT@VCWindow@ATL@@@WTL@@QBE?AV12@XZ 004146d0 f i ImportsHandling.obj
 0001:00013700       ??$swprintf_s@$0BCM@@@YAHAAY0BCM@_WPB_WZZ 00414700 f i ImportsHandling.obj
 0001:00013720       ??$swprintf_s@$0CFI@@@YAHAAY0CFI@_WPB_WZZ 00414720 f i ImportsHandling.obj
 0001:00013740       ??$_Copy@U_Copy_tag@?$_Tree@V?$_Tmap_traits@KVImportModuleThunk@@U?$less@K@std@@V?$allocator@U?$pair@$$CBKVImportModuleThunk@@@std@@@3@$0A@@std@@@std@@@?$_Tree@V?$_Tmap_traits@KVImportModuleThunk@@U?$less@K@std@@V?$allocator@U?$pair@$$CBKVImportModuleThunk@@@std@@@3@$0A@@std@@@std@@IAEXABV01@U_Copy_tag@01@@Z 00414740 f i ImportsHandling.obj
 0001:000137c0       ??$_Eqrange@K@?$_Tree@V?$_Tmap_traits@KVImportThunk@@U?$less@K@std@@V?$allocator@U?$pair@$$CBKVImportThunk@@@std@@@3@$0A@@std@@@std@@IBE?AU?$pair@V?$_Tree_const_iterator@V?$_Tree_val@U?$_Tree_simple_types@U?$pair@$$CBKVImportThunk@@@std@@@std@@@std@@@std@@V12@@1@ABK@Z 004147c0 f i ImportsHandling.obj
 0001:000137c0       ??$_Eqrange@K@?$_Tree@V?$_Tmap_traits@KVImportModuleThunk@@U?$less@K@std@@V?$allocator@U?$pair@$$CBKVImportModuleThunk@@@std@@@3@$0A@@std@@@std@@IBE?AU?$pair@V?$_Tree_const_iterator@V?$_Tree_val@U?$_Tree_simple_types@U?$pair@$$CBKVImportModuleThunk@@@std@@@std@@@std@@@std@@V12@@1@ABK@Z 004147c0 f i ImportsHandling.obj
 0001:00013840       ??$_Try_emplace@ABK$$V@?$map@KVImportThunk@@U?$less@K@std@@V?$allocator@U?$pair@$$CBKVImportThunk@@@std@@@3@@std@@QAE?AU?$pair@V?$_Tree_iterator@V?$_Tree_val@U?$_Tree_simple_types@U?$pair@$$CBKVImportThunk@@@std@@@std@@@std@@@std@@_N@1@ABK@Z 00414840 f i ImportsHandling.obj
 0001:000138d0       ??$_Try_emplace@ABK$$V@?$map@KVImportModuleThunk@@U?$less@K@std@@V?$allocator@U?$pair@$$CBKVImportModuleThunk@@@std@@@3@@std@@QAE?AU?$pair@V?$_Tree_iterator@V?$_Tree_val@U?$_Tree_simple_types@U?$pair@$$CBKVImportModuleThunk@@@std@@@std@@@std@@@std@@_N@1@ABK@Z 004148d0 f i ImportsHandling.obj
 0001:00013960       ??$_Copy_nodes@U_Copy_tag@?$_Tree@V?$_Tmap_traits@KVImportModuleThunk@@U?$less@K@std@@V?$allocator@U?$pair@$$CBKVImportModuleThunk@@@std@@@3@$0A@@std@@@std@@@?$_Tree@V?$_Tmap_traits@KVImportModuleThunk@@U?$less@K@std@@V?$allocator@U?$pair@$$CBKVImportModuleThunk@@@std@@@3@$0A@@std@@@std@@IAEPAU?$_Tree_node@U?$pair@$$CBKVImportModuleThunk@@@std@@PAX@1@PAU21@0U_Copy_tag@01@@Z 00414960 f i ImportsHandling.obj
 0001:00013a20       ?_Buynode0@?$_List_alloc@U?$_List_base_types@U?$pair@QAU_TREEITEM@@UTreeItemData@ImportsHandling@@@std@@V?$allocator@U?$pair@QAU_TREEITEM@@UTreeItemData@ImportsHandling@@@std@@@2@@std@@@std@@QAEPAU?$_List_node@U?$pair@QAU_TREEITEM@@UTreeItemData@ImportsHandling@@@std@@PAX@2@PAU32@0@Z 00414a20 f i ImportsHandling.obj
 0001:00013a50       ??$_Insert@AAU?$pair@QAU_TREEITEM@@UTreeItemData@ImportsHandling@@@std@@V?$_List_unchecked_iterator@V?$_List_val@U?$_List_simple_types@U?$pair@QAU_TREEITEM@@UTreeItemData@ImportsHandling@@@std@@@std@@@std@@@2@@?$_Hash@V?$_Hmap_traits@PAU_TREEITEM@@UTreeItemData@ImportsHandling@@V?$hash_compare@PAU_TREEITEM@@U?$less@PAU_TREEITEM@@@std@@@stdext@@V?$allocator@U?$pair@QAU_TREEITEM@@UTreeItemData@ImportsHandling@@@std@@@std@@$0A@@stdext@@@std@@IAE?AU?$pair@V?$_List_iterator@V?$_List_val@U?$_List_simple_types@U?$pair@QAU_TREEITEM@@UTreeItemData@ImportsHandling@@@std@@@std@@@std@@@std@@_N@1@AAU?$pair@QAU_TREEITEM@@UTreeItemData@ImportsHandling@@@1@V?$_List_unchecked_iterator@V?$_List_val@U?$_List_simple_types@U?$pair@QAU_TREEITEM@@UTreeItemData@ImportsHandling@@@std@@@std@@@std@@@1@@Z 00414a50 f i ImportsHandling.obj
 0001:00013be0       ?_Check_size@?$_Hash@V?$_Hmap_traits@PAU_TREEITEM@@UTreeItemData@ImportsHandling@@V?$hash_compare@PAU_TREEITEM@@U?$less@PAU_TREEITEM@@@std@@@stdext@@V?$allocator@U?$pair@QAU_TREEITEM@@UTreeItemData@ImportsHandling@@@std@@@std@@$0A@@stdext@@@std@@IAEXXZ 00414be0 f i ImportsHandling.obj
 0001:00013c80       ??$_Buynode@ABUpiecewise_construct_t@std@@V?$tuple@ABK@2@V?$tuple@$$V@2@@?$_Tree_comp_alloc@V?$_Tmap_traits@KVImportThunk@@U?$less@K@std@@V?$allocator@U?$pair@$$CBKVImportThunk@@@std@@@3@$0A@@std@@@std@@QAEPAU?$_Tree_node@U?$pair@$$CBKVImportThunk@@@std@@PAX@1@ABUpiecewise_construct_t@1@$$QAV?$tuple@ABK@1@$$QAV?$tuple@$$V@1@@Z 00414c80 f i ImportsHandling.obj
 0001:00013ce0       ??$_Insert_hint@AAU?$pair@$$CBKVImportThunk@@@std@@PAU?$_Tree_node@U?$pair@$$CBKVImportThunk@@@std@@PAX@2@@?$_Tree@V?$_Tmap_traits@KVImportThunk@@U?$less@K@std@@V?$allocator@U?$pair@$$CBKVImportThunk@@@std@@@3@$0A@@std@@@std@@IAE?AV?$_Tree_iterator@V?$_Tree_val@U?$_Tree_simple_types@U?$pair@$$CBKVImportThunk@@@std@@@std@@@std@@@1@V?$_Tree_const_iterator@V?$_Tree_val@U?$_Tree_simple_types@U?$pair@$$CBKVImportThunk@@@std@@@std@@@std@@@1@AAU?$pair@$$CBKVImportThunk@@@1@PAU?$_Tree_node@U?$pair@$$CBKVImportThunk@@@std@@PAX@1@@Z 00414ce0 f i ImportsHandling.obj
 0001:00013f00       ??$_Buynode@ABUpiecewise_construct_t@std@@V?$tuple@ABK@2@V?$tuple@$$V@2@@?$_Tree_comp_alloc@V?$_Tmap_traits@KVImportModuleThunk@@U?$less@K@std@@V?$allocator@U?$pair@$$CBKVImportModuleThunk@@@std@@@3@$0A@@std@@@std@@QAEPAU?$_Tree_node@U?$pair@$$CBKVImportModuleThunk@@@std@@PAX@1@ABUpiecewise_construct_t@1@$$QAV?$tuple@ABK@1@$$QAV?$tuple@$$V@1@@Z 00414f00 f i ImportsHandling.obj
 0001:00013fd0       ??$_Buynode@U?$pair@PAU_TREEITEM@@UTreeItemData@ImportsHandling@@@std@@@?$_List_buy@U?$pair@QAU_TREEITEM@@UTreeItemData@ImportsHandling@@@std@@V?$allocator@U?$pair@QAU_TREEITEM@@UTreeItemData@ImportsHandling@@@std@@@2@@std@@QAEPAU?$_List_node@U?$pair@QAU_TREEITEM@@UTreeItemData@ImportsHandling@@@std@@PAX@1@PAU21@0$$QAU?$pair@PAU_TREEITEM@@UTreeItemData@ImportsHandling@@@1@@Z 00414fd0 f i ImportsHandling.obj
 0001:00014010       ?AtlThrowLastWin32@ATL@@YGXXZ 00415010 f i Logger.obj
 0001:00014030       ?log@Logger@@UAAXPB_WZZ    00415030 f   Logger.obj
 0001:00014080       ?log@Logger@@UAAXPBDZZ     00415080 f   Logger.obj
 0001:000140d0       ?write@Logger@@MAEXPBD@Z   004150d0 f   Logger.obj
 0001:00014170       ?write@FileLog@@EAEXPBD@Z  00415170 f   Logger.obj
 0001:000141c0       ?write@FileLog@@EAEXPB_W@Z 004151c0 f   Logger.obj
 0001:00014210       ?write@ListboxLog@@EAEXPB_W@Z 00415210 f   Logger.obj
 0001:00014260       ??1?$CA2WEX@$0BAE@@ATL@@QAE@XZ 00415260 f i PickApiGui.obj
 0001:00014260       ??1?$CA2WEX@$0IA@@ATL@@QAE@XZ 00415260 f i Logger.obj
 0001:00014280       ?Init@?$CA2WEX@$0IA@@ATL@@AAEXPBDI@Z 00415280 f i Logger.obj
 0001:00014350       ??$AtlConvAllocMemory@_W@ATL@@YAXPAPA_WHPA_WH@Z 00415350 f i Logger.obj
 0001:00014480       _swprintf_s                00415480 f i main.obj
 0001:000144a0       ?ocslen@@YAHPB_W@Z         004154a0 f i main.obj
 0001:000144d0       ?ocscpy_s@@YA_NPA_WIPB_W@Z 004154d0 f i main.obj
 0001:00014520       ?AtlCrtErrorCheck@ATL@@YAHH@Z 00415520 f i main.obj
 0001:000145c0       ?AtlHresultFromLastError@ATL@@YAJXZ 004155c0 f i main.obj
 0001:000145e0       ?AtlHresultFromWin32@ATL@@YAJK@Z 004155e0 f i main.obj
 0001:000145f0       ?AddCreateWndData@CAtlWinModule@ATL@@QAEXPAU_AtlCreateWndData@2@PAX@Z 004155f0 f i main.obj
 0001:00014650       ??0CAtlModule@ATL@@QAE@XZ  00415650 f i main.obj
 0001:000146e0       ?Lock@CAtlModule@ATL@@UAEJXZ 004156e0 f i main.obj
 0001:000146f0       ?Unlock@CAtlModule@ATL@@UAEJXZ 004156f0 f i main.obj
 0001:00014700       ?GetLockCount@CAtlModule@ATL@@UAEJXZ 00415700 f i main.obj
 0001:00014710       ?GetGITPtr@CAtlModule@ATL@@UAEJPAPAUIGlobalInterfaceTable@@@Z 00415710 f i main.obj
 0001:00014760       ?EscapeSingleQuote@CAtlModule@ATL@@SAXPA_WIPB_W@Z 00415760 f i main.obj
 0001:000147b0       ?UpdateRegistryFromResourceD@CComModule@ATL@@UAGJIHPAU_ATL_REGMAP_ENTRY@2@@Z 004157b0 f i main.obj
 0001:000147b0       ?UpdateRegistryFromResourceD@CComModule@ATL@@UAGJPB_WHPAU_ATL_REGMAP_ENTRY@2@@Z 004157b0 f i main.obj
 0001:000147c0       ?UpdateRegistryFromResource@CComModule@ATL@@UAGJPB_WHPAU_ATL_REGMAP_ENTRY@2@@Z 004157c0 f i main.obj
 0001:000147e0       ?UpdateRegistryFromResource@CComModule@ATL@@UAGJIHPAU_ATL_REGMAP_ENTRY@2@@Z 004157e0 f i main.obj
 0001:00014800       ??_GCComModule@ATL@@UAEPAXI@Z 00415800 f i main.obj
 0001:00014800       ??_ECComModule@ATL@@UAEPAXI@Z 00415800 f i * CIL library *:* CIL module *
 0001:00014890       ??1CRegKey@ATL@@QAE@XZ     00415890 f i main.obj
 0001:000148b0       ?DeleteSubKey@CRegKey@ATL@@QAEJPB_W@Z 004158b0 f i main.obj
 0001:00014990       ?Create@CRegKey@ATL@@QAEJPAUHKEY__@@PB_WPA_WKKPAU_SECURITY_ATTRIBUTES@@PAK@Z 00415990 f i main.obj
 0001:00014a60       ?Open@CRegKey@ATL@@QAEJPAUHKEY__@@PB_WK@Z 00415a60 f i main.obj
 0001:00014b10       ?RecurseDeleteKey@CRegKey@ATL@@QAEJPB_W@Z 00415b10 f i main.obj
 0001:00014c30       ?Add@CExpansionVector@ATL@@QAEHPB_W0@Z 00415c30 f i main.obj
 0001:00014db0       ?ClearReplacements@CExpansionVector@ATL@@QAEJXZ 00415db0 f i main.obj
 0001:00014e40       ??1CParseBuffer@CRegParser@ATL@@QAE@XZ 00415e40 f i main.obj
 0001:00014e50       ?Append@CParseBuffer@CRegParser@ATL@@QAEHPB_WH@Z 00415e50 f i main.obj
 0001:00014f00       ?QueryInterface@CRegObject@ATL@@UAGJABU_GUID@@PAPAX@Z 00415f00 f i main.obj
 0001:00014f10       ?AddRef@CRegObject@ATL@@UAGKXZ 00415f10 f i main.obj
 0001:00014f20       ?Release@CRegObject@ATL@@UAGKXZ 00415f20 f i main.obj
 0001:00014f30       ??1CRegObject@ATL@@UAE@XZ  00415f30 f i main.obj
 0001:00014fb0       ??_ECRegObject@ATL@@UAEPAXI@Z 00415fb0 f i * CIL library *:* CIL module *
 0001:00014fb0       ??_GCRegObject@ATL@@UAEPAXI@Z 00415fb0 f i main.obj
 0001:00014fe0       ?AddReplacement@CRegObject@ATL@@UAGJPB_W0@Z 00415fe0 f i main.obj
 0001:00015080       ?RegisterFromResource@CRegObject@ATL@@IAEJPB_W00H@Z 00416080 f i main.obj
 0001:00015260       ?ResourceRegisterSz@CRegObject@ATL@@QAGJPB_W00@Z 00416260 f i main.obj
 0001:000152d0       ?ResourceUnregisterSz@CRegObject@ATL@@QAGJPB_W00@Z 004162d0 f i main.obj
 0001:00015340       ?ClearReplacements@CRegObject@ATL@@UAGJXZ 00416340 f i main.obj
 0001:00015370       ?StrFromMap@CRegObject@ATL@@QAEPB_WPA_W@Z 00416370 f i main.obj
 0001:00015400       ?VTFromRegType@CRegParser@ATL@@KAHPB_WAAG@Z 00416400 f i main.obj
 0001:000154e0       ?SkipWhiteSpace@CRegParser@ATL@@IAEXXZ 004164e0 f i main.obj
 0001:00015530       ?NextToken@CRegParser@ATL@@IAEJPA_W@Z 00416530 f i main.obj
 0001:000156d0       ?AddValue@CRegParser@ATL@@IAEJAAVCRegKey@2@PB_WPA_W@Z 004166d0 f i main.obj
 0001:00015bc0       ?SkipAssignment@CRegParser@ATL@@IAEJPA_W@Z 00416bc0 f i main.obj
 0001:00015c30       ?PreProcessBuffer@CRegParser@ATL@@QAEJPA_WPAPA_W@Z 00416c30 f i main.obj
 0001:00015f70       ?RegisterBuffer@CRegParser@ATL@@QAEJPA_WH@Z 00416f70 f i main.obj
 0001:000160d0       ?RegisterSubkeys@CRegParser@ATL@@IAEJPA_WPAUHKEY__@@HH@Z 004170d0 f i main.obj
 0001:00016870       ?UpdateRegistryFromResource@CAtlModule@ATL@@QAGJPB_WHPAU_ATL_REGMAP_ENTRY@2@@Z 00417870 f i main.obj
 0001:00016b60       ?UpdateRegistryFromResource@CAtlModule@ATL@@QAGJIHPAU_ATL_REGMAP_ENTRY@2@@Z 00417b60 f i main.obj
 0001:00016e40       ?Term@CComModule@ATL@@QAEXXZ 00417e40 f i main.obj
 0001:00016ef0       ?AtlWinModuleExtractCreateWndData@ATL@@YGPAXPAU_ATL_WIN_MODULE70@1@@Z 00417ef0 f i main.obj
 0001:00016f70       ?AtlCallTermFunc@ATL@@YGXPAU_ATL_MODULE70@1@@Z 00417f70 f i main.obj
 0001:00016fc0       ??1CMessageLoop@WTL@@UAE@XZ 00417fc0 f i main.obj
 0001:00017020       ?Run@CMessageLoop@WTL@@QAEHXZ 00418020 f i main.obj
 0001:000170c0       ?PreTranslateMessage@CMessageLoop@WTL@@UAEHPAUtagMSG@@@Z 004180c0 f i main.obj
 0001:00017120       ?OnIdle@CMessageLoop@WTL@@UAEHH@Z 00418120 f i main.obj
 0001:00017170       ?IsIdleMessage@CMessageLoop@WTL@@UBEHPAUtagMSG@@@Z 00418170 f i main.obj
 0001:000171b0       ??_GCMessageLoop@WTL@@UAEPAXI@Z 004181b0 f i main.obj
 0001:000171b0       ??_ECMessageLoop@WTL@@UAEPAXI@Z 004181b0 f i * CIL library *:* CIL module *
 0001:00017220       ?Init@CAppModule@WTL@@QAEJPAU_ATL_OBJMAP_ENTRY30@ATL@@PAUHINSTANCE__@@PBU_GUID@@@Z 00418220 f i main.obj
 0001:00017310       ?TermSettingChangeNotify@CAppModule@WTL@@QAEXXZ 00418310 f i main.obj
 0001:00017390       ??_ECAppModule@WTL@@UAEPAXI@Z 00418390 f i * CIL library *:* CIL module *
 0001:00017390       ??_GCAppModule@WTL@@UAEPAXI@Z 00418390 f i main.obj
 0001:00017420       ??1IATReferenceScan@@QAE@XZ 00418420 f i main.obj
 0001:000174c0       _wWinMain@16               004184c0 f   main.obj
 0001:000174e0       ?InitializeGui@@YAHPAUHINSTANCE__@@J@Z 004184e0 f   main.obj
 0001:000177b0       ??1MainGui@@UAE@XZ         004187b0 f i main.obj
 0001:00017920       ?HandleUnknownException@@YGJPAU_EXCEPTION_POINTERS@@@Z 00418920 f   main.obj
 0001:00017ad0       ?Add@?$CSimpleMap@PA_WPA_WVCExpansionVectorEqualHelper@ATL@@@ATL@@QAEHABQA_W0@Z 00418ad0 f i main.obj
 0001:00017ad0       ?Add@?$CSimpleMap@KPAVCMessageLoop@WTL@@V?$CSimpleMapEqualHelper@KPAVCMessageLoop@WTL@@@ATL@@@ATL@@QAEHABKABQAVCMessageLoop@WTL@@@Z 00418ad0 f i main.obj
 0001:00017b40       ??1?$CTempBuffer@E$0BAA@VCCRTAllocator@ATL@@@ATL@@QAE@XZ 00418b40 f i main.obj
 0001:00017b40       ??1?$CTempBuffer@_W$0BAA@VCCRTAllocator@ATL@@@ATL@@QAE@XZ 00418b40 f i main.obj
 0001:00017b40       ??1?$CTempBuffer@_W$0EAA@VCCRTAllocator@ATL@@@ATL@@QAE@XZ 00418b40 f i main.obj
 0001:00017b50       ?Allocate@?$CTempBuffer@_W$0EAA@VCCRTAllocator@ATL@@@ATL@@QAEPA_WI@Z 00418b50 f i main.obj
 0001:00017ba0       ??1?$CAutoVectorPtr@_W@ATL@@QAE@XZ 00418ba0 f i main.obj
 0001:00017bc0       ?AddCommonRGSReplacements@?$CAtlModuleT@VCComModule@ATL@@@ATL@@UAEJPAUIRegistrarBase@@@Z 00418bc0 f i main.obj
 0001:00017be0       ??1?$CAtlSafeAllocBufferManager@VCCRTAllocator@ATL@@@_ATL_SAFE_ALLOCA_IMPL@ATL@@QAE@XZ 00418be0 f i main.obj
 0001:00017c00       ?FreeHeap@?$CTempBuffer@E$0BAA@VCCRTAllocator@ATL@@@ATL@@AAEXXZ 00418c00 f i main.obj
 0001:00017c00       ?FreeHeap@?$CTempBuffer@_W$0BAA@VCCRTAllocator@ATL@@@ATL@@AAEXXZ 00418c00 f i main.obj
 0001:00017c00       ?FreeHeap@?$CTempBuffer@_W$0EAA@VCCRTAllocator@ATL@@@ATL@@AAEXXZ 00418c00 f i main.obj
 0001:00017c10       ?AllocateHeap@?$CTempBuffer@E$0BAA@VCCRTAllocator@ATL@@@ATL@@AAEXI@Z 00418c10 f i main.obj
 0001:00017c10       ?AllocateHeap@?$CTempBuffer@_W$0BAA@VCCRTAllocator@ATL@@@ATL@@AAEXI@Z 00418c10 f i main.obj
 0001:00017c10       ?AllocateHeap@?$CTempBuffer@_W$0EAA@VCCRTAllocator@ATL@@@ATL@@AAEXI@Z 00418c10 f i main.obj
 0001:00017c40       ?StartDialogProc@?$CDialogImplBaseT@VCWindow@ATL@@@ATL@@SGHPAUHWND__@@IIJ@Z 00418c40 f i main.obj
 0001:00017cb0       ?memmove_s@Checked@ATL@@YAXPAXIPBXI@Z 00418cb0 f i MainGui.obj
 0001:00017d30       ?ResizeClient@CWindow@ATL@@QAEHHHH@Z 00418d30 f i MainGui.obj
 0001:00017e10       ?DoDataExchange@MainGui@@QAEHHI@Z 00418e10 f i MainGui.obj
 0001:00017f40       ?ProcessWindowMessage@MainGui@@UAEHPAUHWND__@@IIJAAJK@Z 00418f40 f i MainGui.obj
 0001:00017f70       ?_ProcessWindowMessage@MainGui@@QAEHPAUHWND__@@IIJAAJK@Z 00418f70 f i MainGui.obj
 0001:00018610       ??1DllInjectionPlugin@@QAE@XZ 00419610 f i MainGui.obj
 0001:00018640       ?ProcessWindowMessage@AboutGui@@UAEHPAUHWND__@@IIJAAJK@Z 00419640 f i MainGui.obj
 0001:00018970       ?ProcessWindowMessage@DonateGui@@UAEHPAUHWND__@@IIJAAJK@Z 00419970 f i MainGui.obj
 0001:00018ab0       ?ProcessWindowMessage@OptionsGui@@UAEHPAUHWND__@@IIJAAJK@Z 00419ab0 f i MainGui.obj
 0001:00018bb0       ??0MainGui@@QAE@XZ         00419bb0 f   MainGui.obj
 0001:00018f00       ??_EMainGui@@UAEPAXI@Z     00419f00 f i * CIL library *:* CIL module *
 0001:00018f00       ??_GMainGui@@UAEPAXI@Z     00419f00 f i MainGui.obj
 0001:00018f30       ??_ECMultiSelectTreeViewCtrl@@UAEPAXI@Z 00419f30 f i * CIL library *:* CIL module *
 0001:00018f30       ??_GCMultiSelectTreeViewCtrl@@UAEPAXI@Z 00419f30 f i MainGui.obj
 0001:00018f90       ?PreTranslateMessage@MainGui@@MAEHPAUtagMSG@@@Z 00419f90 f   MainGui.obj
 0001:00018fd0       ?InitDllStartWithPreSelect@MainGui@@IAEXPAU_GUI_DLL_PARAMETER@@@Z 00419fd0 f   MainGui.obj
 0001:00019240       ?OnInitDialog@MainGui@@IAEHVCWindow@ATL@@J@Z 0041a240 f   MainGui.obj
 0001:000193a0       ?OnContextMenu@MainGui@@IAEXVCWindow@ATL@@VCPoint@@@Z 0041a3a0 f   MainGui.obj
 0001:00019400       ?OnCommand@MainGui@@IAEXIHVCWindow@ATL@@@Z 0041a400 f   MainGui.obj
 0001:00019490       ?OnTreeImportsDoubleClick@MainGui@@IAEJPBUtagNMHDR@@@Z 0041a490 f   MainGui.obj
 0001:00019560       ?OnTreeImportsKeyDown@MainGui@@IAEJPBUtagNMHDR@@@Z 0041a560 f   MainGui.obj
 0001:00019620       ?OnInvalidImports@MainGui@@IAEXIHVCWindow@ATL@@@Z 0041a620 f   MainGui.obj
 0001:00019650       ?OnSuspectImports@MainGui@@IAEXIHVCWindow@ATL@@@Z 0041a650 f   MainGui.obj
 0001:00019680       ?OnExit@MainGui@@IAEXIHVCWindow@ATL@@@Z 0041a680 f   MainGui.obj
 0001:000196f0       ?setupStatusBar@MainGui@@IAEXXZ 0041a6f0 f   MainGui.obj
 0001:00019800       ?updateStatusBar@MainGui@@IAEXXZ 0041a800 f   MainGui.obj
 0001:00019940       ?pickDllActionHandler@MainGui@@IAEXXZ 0041a940 f   MainGui.obj
 0001:00019b10       ??1PickApiGui@@UAE@XZ      0041ab10 f i MainGui.obj
 0001:00019b10       ??1PickDllGui@@UAE@XZ      0041ab10 f i MainGui.obj
 0001:00019b50       ?pickApiActionHandler@MainGui@@IAEXV?$CTreeItemT@VCWindow@ATL@@@WTL@@@Z 0041ab50 f   MainGui.obj
 0001:00019cd0       ?startDisassemblerGui@MainGui@@IAEXV?$CTreeItemT@VCWindow@ATL@@@WTL@@@Z 0041acd0 f   MainGui.obj
 0001:00019df0       ?processSelectedActionHandler@MainGui@@IAEXH@Z 0041adf0 f   MainGui.obj
 0001:00019f90       ?fillProcessListComboBox@MainGui@@IAEXAAV?$CComboBoxT@VCWindow@ATL@@@WTL@@@Z 0041af90 f   MainGui.obj
 0001:0001a050       ?saveLogToFile@MainGui@@IAE_NPB_W@Z 0041b050 f   MainGui.obj
 0001:0001a230       ?deleteSelectedImportsActionHandler@MainGui@@IAEXXZ 0041b230 f   MainGui.obj
 0001:0001a2e0       ?invalidateSelectedImportsActionHandler@MainGui@@IAEXXZ 0041b2e0 f   MainGui.obj
 0001:0001a380       ?loadTreeActionHandler@MainGui@@IAEXXZ 0041b380 f   MainGui.obj
 0001:0001a610       ?saveTreeActionHandler@MainGui@@IAEXXZ 0041b610 f   MainGui.obj
 0001:0001a820       ?iatAutosearchActionHandler@MainGui@@IAEXXZ 0041b820 f   MainGui.obj
 0001:0001a9e0       ?getImportsActionHandler@MainGui@@IAEXXZ 0041b9e0 f   MainGui.obj
 0001:0001ac50       ?SetupImportsMenuItems@MainGui@@IAEXV?$CTreeItemT@VCWindow@ATL@@@WTL@@@Z 0041bc50 f   MainGui.obj
 0001:0001ad00       ?DisplayContextMenuImports@MainGui@@IAEXVCWindow@ATL@@VCPoint@@@Z 0041bd00 f   MainGui.obj
 0001:0001b030       ?DisplayContextMenuLog@MainGui@@IAEXVCWindow@ATL@@VCPoint@@@Z 0041c030 f   MainGui.obj
 0001:0001b1c0       ?appendPluginListToMenu@MainGui@@IAEXV?$CMenuT@$0A@@WTL@@@Z 0041c1c0 f   MainGui.obj
 0001:0001b360       ?dumpMemoryActionHandler@MainGui@@IAEXXZ 0041c360 f   MainGui.obj
 0001:0001b550       ?dumpSectionActionHandler@MainGui@@IAEXXZ 0041c550 f   MainGui.obj
 0001:0001b8f0       ?dumpActionHandler@MainGui@@IAEXXZ 0041c8f0 f   MainGui.obj
 0001:0001bc30       ?peRebuildActionHandler@MainGui@@IAEXXZ 0041cc30 f   MainGui.obj
 0001:0001bfd0       ?dumpFixActionHandler@MainGui@@IAEXXZ 0041cfd0 f   MainGui.obj
 0001:0001c420       ?enableDialogControls@MainGui@@IAEXH@Z 0041d420 f   MainGui.obj
 0001:0001c5c0       ?findTreeItem@MainGui@@IAE?AV?$CTreeItemT@VCWindow@ATL@@@WTL@@VCPoint@@_N@Z 0041d5c0 f   MainGui.obj
 0001:0001c620       ?showAboutDialog@MainGui@@IAEXXZ 0041d620 f   MainGui.obj
 0001:0001c6a0       ??0AboutGui@@QAE@XZ        0041d6a0 f i MainGui.obj
 0001:0001c740       ??_GAboutGui@@UAEPAXI@Z    0041d740 f i MainGui.obj
 0001:0001c740       ??_EAboutGui@@UAEPAXI@Z    0041d740 f i * CIL library *:* CIL module *
 0001:0001c770       ?showDonateDialog@MainGui@@IAEXXZ 0041d770 f   MainGui.obj
 0001:0001c810       ??_EDonateGui@@UAEPAXI@Z   0041d810 f i * CIL library *:* CIL module *
 0001:0001c810       ??_GDonateGui@@UAEPAXI@Z   0041d810 f i MainGui.obj
 0001:0001c840       ?dllInjectActionHandler@MainGui@@IAEXXZ 0041d840 f   MainGui.obj
 0001:0001c9d0       ?disassemblerActionHandler@MainGui@@IAEXXZ 0041d9d0 f   MainGui.obj
 0001:0001caa0       ?optionsActionHandler@MainGui@@IAEXXZ 0041daa0 f   MainGui.obj
 0001:0001cb50       ??_EOptionsGui@@UAEPAXI@Z  0041db50 f i * CIL library *:* CIL module *
 0001:0001cb50       ??_GOptionsGui@@UAEPAXI@Z  0041db50 f i MainGui.obj
 0001:0001cb80       ?pluginActionHandler@MainGui@@IAEXH@Z 0041db80 f   MainGui.obj
 0001:0001cc90       ?getCurrentModulePath@MainGui@@IAE_NPA_WI@Z 0041dc90 f   MainGui.obj
 0001:0001ccf0       ?checkSuspendProcess@MainGui@@IAEXXZ 0041dcf0 f   MainGui.obj
 0001:0001cd70       ?setDialogIATAddressAndSize@MainGui@@IAEXKK@Z 0041dd70 f   MainGui.obj
 0001:0001ce20       ?isIATOutsidePeImage@MainGui@@IAE_NK@Z 0041de20 f   MainGui.obj
 0001:0001ce60       ?getCurrentDefaultDumpFilename@MainGui@@IAE_NPA_WI@Z 0041de60 f   MainGui.obj
 0001:0001cef0       ?DoModal@?$CDialogImpl@VDisassemblerGui@@VCWindow@ATL@@@ATL@@QAEHPAUHWND__@@J@Z 0041def0 f i MainGui.obj
 0001:0001cf50       ?ProcessWindowMessage@?$CDialogResize@VMainGui@@@WTL@@QAEHPAUHWND__@@IIJAAJK@Z 0041df50 f i MainGui.obj
 0001:0001cfb0       ?DlgResize_Init@?$CDialogResize@VMainGui@@@WTL@@QAEX_N0K@Z 0041dfb0 f i MainGui.obj
 0001:0001d2f0       ?ProcessWindowMessage@?$CMultiSelectTreeViewImpl@VCMultiSelectTreeViewCtrl@@V?$CTreeViewCtrlExT@VCWindow@ATL@@@WTL@@V?$CWinTraitsOR@$0CA@$0A@V?$CWinTraits@$0FGAAAAAA@$0A@@ATL@@@ATL@@@@UAEHPAUHWND__@@IIJAAJK@Z 0041e2f0 f i MainGui.obj
 0001:0001d320       ?GetNextSelectedItem@?$CMultiSelectTreeViewImpl@VCMultiSelectTreeViewCtrl@@V?$CTreeViewCtrlExT@VCWindow@ATL@@@WTL@@V?$CWinTraitsOR@$0CA@$0A@V?$CWinTraits@$0FGAAAAAA@$0A@@ATL@@@ATL@@@@QBE?AV?$CTreeItemT@VCWindow@ATL@@@WTL@@PAU_TREEITEM@@@Z 0041e320 f i MainGui.obj
 0001:0001d3b0       ?GetFirstSelectedItem@?$CMultiSelectTreeViewImpl@VCMultiSelectTreeViewCtrl@@V?$CTreeViewCtrlExT@VCWindow@ATL@@@WTL@@V?$CWinTraitsOR@$0CA@$0A@V?$CWinTraits@$0FGAAAAAA@$0A@@ATL@@@ATL@@@@QBE?AV?$CTreeItemT@VCWindow@ATL@@@WTL@@XZ 0041e3b0 f i MainGui.obj
 0001:0001d420       ??0?$CMultiSelectTreeViewImpl@VCMultiSelectTreeViewCtrl@@V?$CTreeViewCtrlExT@VCWindow@ATL@@@WTL@@V?$CWinTraitsOR@$0CA@$0A@V?$CWinTraits@$0FGAAAAAA@$0A@@ATL@@@ATL@@@@QAE@XZ 0041e420 f i MainGui.obj
 0001:0001d4a0       ?GetSubMenu@?$CMenuT@$0A@@WTL@@QBE?AV12@H@Z 0041e4a0 f i MainGui.obj
 0001:0001d4c0       ?Lookup@?$CSimpleMap@KPAVCMessageLoop@WTL@@V?$CSimpleMapEqualHelper@KPAVCMessageLoop@WTL@@@ATL@@@ATL@@QBEPAVCMessageLoop@WTL@@ABK@Z 0041e4c0 f i MainGui.obj
 0001:0001d520       ?Add@?$CSimpleArray@PAVCMessageFilter@WTL@@V?$CSimpleArrayEqualHelper@PAVCMessageFilter@WTL@@@ATL@@@ATL@@QAEHABQAVCMessageFilter@WTL@@@Z 0041e520 f i MainGui.obj
 0001:0001d5a0       ?OnSize@?$CDialogResize@VMainGui@@@WTL@@QAEJIIJAAH@Z 0041e5a0 f i MainGui.obj
 0001:0001d610       ?_ProcessWindowMessage@?$CMultiSelectTreeViewImpl@VCMultiSelectTreeViewCtrl@@V?$CTreeViewCtrlExT@VCWindow@ATL@@@WTL@@V?$CWinTraitsOR@$0CA@$0A@V?$CWinTraits@$0FGAAAAAA@$0A@@ATL@@@ATL@@@@QAEHPAUHWND__@@IIJAAJK@Z 0041e610 f i MainGui.obj
 0001:0001d860       ?DlgResize_UpdateLayout@?$CDialogResize@VMainGui@@@WTL@@QAEXHH@Z 0041e860 f i MainGui.obj
 0001:0001dad0       ?ProcessWindowMessage@?$CCustomDraw@VCMultiSelectTreeViewCtrl@@@WTL@@QAEHPAUHWND__@@IIJAAJK@Z 0041ead0 f i MainGui.obj
 0001:0001db20       ?OnDeleteItem@?$CMultiSelectTreeViewImpl@VCMultiSelectTreeViewCtrl@@V?$CTreeViewCtrlExT@VCWindow@ATL@@@WTL@@V?$CWinTraitsOR@$0CA@$0A@V?$CWinTraits@$0FGAAAAAA@$0A@@ATL@@@ATL@@@@QAEJPAUtagNMHDR@@@Z 0041eb20 f i MainGui.obj
 0001:0001db70       ?OnInsertItem@?$CMultiSelectTreeViewImpl@VCMultiSelectTreeViewCtrl@@V?$CTreeViewCtrlExT@VCWindow@ATL@@@WTL@@V?$CWinTraitsOR@$0CA@$0A@V?$CWinTraits@$0FGAAAAAA@$0A@@ATL@@@ATL@@@@QAEJIIJ@Z 0041eb70 f i MainGui.obj
 0001:0001dbc0       ?OnMouseMove@?$CMultiSelectTreeViewImpl@VCMultiSelectTreeViewCtrl@@V?$CTreeViewCtrlExT@VCWindow@ATL@@@WTL@@V?$CWinTraitsOR@$0CA@$0A@V?$CWinTraits@$0FGAAAAAA@$0A@@ATL@@@ATL@@@@QAEXIVCPoint@@@Z 0041ebc0 f i MainGui.obj
 0001:0001dc70       ?OnLButtonDown@?$CMultiSelectTreeViewImpl@VCMultiSelectTreeViewCtrl@@V?$CTreeViewCtrlExT@VCWindow@ATL@@@WTL@@V?$CWinTraitsOR@$0CA@$0A@V?$CWinTraits@$0FGAAAAAA@$0A@@ATL@@@ATL@@@@QAEXIVCPoint@@@Z 0041ec70 f i MainGui.obj
 0001:0001df90       ?OnSetFocus@?$CMultiSelectTreeViewImpl@VCMultiSelectTreeViewCtrl@@V?$CTreeViewCtrlExT@VCWindow@ATL@@@WTL@@V?$CWinTraitsOR@$0CA@$0A@V?$CWinTraits@$0FGAAAAAA@$0A@@ATL@@@ATL@@@@QAEXVCWindow@ATL@@@Z 0041ef90 f i MainGui.obj
 0001:0001dfd0       ?OnChar@?$CMultiSelectTreeViewImpl@VCMultiSelectTreeViewCtrl@@V?$CTreeViewCtrlExT@VCWindow@ATL@@@WTL@@V?$CWinTraitsOR@$0CA@$0A@V?$CWinTraits@$0FGAAAAAA@$0A@@ATL@@@ATL@@@@QAEXIII@Z 0041efd0 f i MainGui.obj
 0001:0001e050       ?OnKeyUp@?$CMultiSelectTreeViewImpl@VCMultiSelectTreeViewCtrl@@V?$CTreeViewCtrlExT@VCWindow@ATL@@@WTL@@V?$CWinTraitsOR@$0CA@$0A@V?$CWinTraits@$0FGAAAAAA@$0A@@ATL@@@ATL@@@@QAEXIII@Z 0041f050 f i MainGui.obj
 0001:0001e160       ?OnKeyDown@?$CMultiSelectTreeViewImpl@VCMultiSelectTreeViewCtrl@@V?$CTreeViewCtrlExT@VCWindow@ATL@@@WTL@@V?$CWinTraitsOR@$0CA@$0A@V?$CWinTraits@$0FGAAAAAA@$0A@@ATL@@@ATL@@@@QAEXIII@Z 0041f160 f i MainGui.obj
 0001:0001e200       ?OnDestroy@?$CMultiSelectTreeViewImpl@VCMultiSelectTreeViewCtrl@@V?$CTreeViewCtrlExT@VCWindow@ATL@@@WTL@@V?$CWinTraitsOR@$0CA@$0A@V?$CWinTraits@$0FGAAAAAA@$0A@@ATL@@@ATL@@@@QAEXXZ 0041f200 f i MainGui.obj
 0001:0001e250       ?DlgResize_PositionControl@?$CDialogResize@VMainGui@@@WTL@@QAE_NHHAAUtagRECT@@AAU_AtlDlgResizeData@12@_NPAU412@@Z 0041f250 f i MainGui.obj
 0001:0001e5f0       ?OnCustomDraw@?$CCustomDraw@VCMultiSelectTreeViewCtrl@@@WTL@@QAEJHPAUtagNMHDR@@AAH@Z 0041f5f0 f i MainGui.obj
 0001:0001e6a0       ?_DrawDragRect@?$CMultiSelectTreeViewImpl@VCMultiSelectTreeViewCtrl@@V?$CTreeViewCtrlExT@VCWindow@ATL@@@WTL@@V?$CWinTraitsOR@$0CA@$0A@V?$CWinTraits@$0FGAAAAAA@$0A@@ATL@@@ATL@@@@QAEXVCPoint@@@Z 0041f6a0 f i MainGui.obj
 0001:0001e730       ?_SelectBox@?$CMultiSelectTreeViewImpl@VCMultiSelectTreeViewCtrl@@V?$CTreeViewCtrlExT@VCWindow@ATL@@@WTL@@V?$CWinTraitsOR@$0CA@$0A@V?$CWinTraits@$0FGAAAAAA@$0A@@ATL@@@ATL@@@@QAEXVCRect@@@Z 0041f730 f i MainGui.obj
 0001:0001e860       ?_SelectTree@?$CMultiSelectTreeViewImpl@VCMultiSelectTreeViewCtrl@@V?$CTreeViewCtrlExT@VCWindow@ATL@@@WTL@@V?$CWinTraitsOR@$0CA@$0A@V?$CWinTraits@$0FGAAAAAA@$0A@@ATL@@@ATL@@@@QAEXPAU_TREEITEM@@0H@Z 0041f860 f i MainGui.obj
 0001:0001e8d0       ?IsItemSelected@?$CMultiSelectTreeViewImpl@VCMultiSelectTreeViewCtrl@@V?$CTreeViewCtrlExT@VCWindow@ATL@@@WTL@@V?$CWinTraitsOR@$0CA@$0A@V?$CWinTraits@$0FGAAAAAA@$0A@@ATL@@@ATL@@@@QAEHPAU_TREEITEM@@@Z 0041f8d0 f i MainGui.obj
 0001:0001e930       ?Add@?$CSimpleMap@PAU_TREEITEM@@_NV?$CSimpleMapEqualHelper@PAU_TREEITEM@@_N@ATL@@@ATL@@QAEHABQAU_TREEITEM@@AB_N@Z 0041f930 f i MainGui.obj
 0001:0001e9a0       ?OnItemPrePaint@?$CMultiSelectTreeViewImpl@VCMultiSelectTreeViewCtrl@@V?$CTreeViewCtrlExT@VCWindow@ATL@@@WTL@@V?$CWinTraitsOR@$0CA@$0A@V?$CWinTraits@$0FGAAAAAA@$0A@@ATL@@@ATL@@@@QAEKHPAUtagNMCUSTOMDRAWINFO@@@Z 0041f9a0 f i MainGui.obj
 0001:0001ea80       ?_SelectTreeSub@?$CMultiSelectTreeViewImpl@VCMultiSelectTreeViewCtrl@@V?$CTreeViewCtrlExT@VCWindow@ATL@@@WTL@@V?$CWinTraitsOR@$0CA@$0A@V?$CWinTraits@$0FGAAAAAA@$0A@@ATL@@@ATL@@@@QAE_NPAU_TREEITEM@@0H@Z 0041fa80 f i MainGui.obj
 0001:0001eb20       ?RemoveAt@?$CSimpleMap@PAU_TREEITEM@@_NV?$CSimpleMapEqualHelper@PAU_TREEITEM@@_N@ATL@@@ATL@@QAEHH@Z 0041fb20 f i MainGui.obj
 0001:0001ebd0       ?DrawDragRect@?$CDCT@$00@WTL@@QAEXPBUtagRECT@@UtagSIZE@@01PAUHBRUSH__@@2@Z 0041fbd0 f i MainGui.obj
 0001:0001ecf0       ?GetHalftoneBrush@?$CDCT@$0A@@WTL@@SG?AV?$CBrushT@$0A@@2@XZ 0041fcf0 f i MainGui.obj
 0001:0001ed80       ?ReflectNotifications@?$CWindowImplRoot@VCWindow@ATL@@@ATL@@QAEJIIJAAH@Z 0041fd80 f i MainGui.obj
 0001:0001ee80       ?SubclassWindow@?$CMultiSelectTreeViewImpl@VCMultiSelectTreeViewCtrl@@V?$CTreeViewCtrlExT@VCWindow@ATL@@@WTL@@V?$CWinTraitsOR@$0CA@$0A@V?$CWinTraits@$0FGAAAAAA@$0A@@ATL@@@ATL@@@@QAEHPAUHWND__@@@Z 0041fe80 f i MainGui.obj
 0001:0001ef00       ?SubclassWindow@?$CContainedWindowT@VCWindow@ATL@@V?$CWinTraits@$0FGAAAAAA@$0A@@2@@ATL@@QAEHPAUHWND__@@@Z 0041ff00 f i MainGui.obj
 0001:0001ef60       ?WindowProc@?$CContainedWindowT@VCWindow@ATL@@V?$CWinTraits@$0FGAAAAAA@$0A@@2@@ATL@@SGJPAUHWND__@@IIJ@Z 0041ff60 f i MainGui.obj
 0001:0001f080       ?initialize@NativeWinApi@@SAXXZ 00420080 f   NativeWinApi.obj
 0001:0001f190       ?DoDataExchange@OptionsGui@@QAEHHI@Z 00420190 f i OptionsGui.obj
 0001:0001f6b0       ?saveOptions@OptionsGui@@IBEXXZ 004206b0 f   OptionsGui.obj
 0001:0001f990       ?loadOptions@OptionsGui@@IAEXXZ 00420990 f   OptionsGui.obj
 0001:0001fc70       ?DDX_Text@?$CWinDataExchange@VOptionsGui@@@WTL@@QAEHIPA_WHHHH@Z 00420c70 f i OptionsGui.obj
 0001:0001fd10       ??0PeParser@@QAE@PB_W_N@Z  00420d10 f   PeParser.obj
 0001:0001fe00       ??0PeParser@@QAE@K_N@Z     00420e00 f   PeParser.obj
 0001:0001fef0       ??1PeParser@@QAE@XZ        00420ef0 f   PeParser.obj
 0001:0001ffb0       ?getEntryPoint@PeParser@@QAEKXZ 00420fb0 f   PeParser.obj
 0001:00020020       ?readPeHeaderFromProcess@PeParser@@IAE_N_N@Z 00421020 f   PeParser.obj
 0001:000200d0       ?readPeHeaderFromFile@PeParser@@IAE_N_N@Z 004210d0 f   PeParser.obj
 0001:00020240       ?readPeSectionsFromProcess@PeParser@@QAE_NXZ 00421240 f   PeParser.obj
 0001:000202e0       ?readPeSectionsFromFile@PeParser@@QAE_NXZ 004212e0 f   PeParser.obj
 0001:000203e0       ?getSectionHeaders@PeParser@@IAE_NXZ 004213e0 f   PeParser.obj
 0001:000204d0       ?getDosAndNtHeader@PeParser@@IAEXPAEJ@Z 004214d0 f   PeParser.obj
 0001:00020540       ?calcCorrectPeHeaderSize@PeParser@@IAEK_N@Z 00421540 f   PeParser.obj
 0001:000205e0       ?getSectionHeaderBasedFileSize@PeParser@@QAEKXZ 004215e0 f   PeParser.obj
 0001:00020620       ?getSectionHeaderBasedSizeOfImage@PeParser@@QAEKXZ 00421620 f   PeParser.obj
 0001:00020660       ?readSectionFrom@PeParser@@IAE_NKAAVPeFileSection@@_N@Z 00421660 f   PeParser.obj
 0001:00020930       ?savePeFileToDisk@PeParser@@QAE_NPB_W@Z 00421930 f   PeParser.obj
 0001:00020d60       ?addNewLastSection@PeParser@@IAE_NPBDKPAE@Z 00421d60 f   PeParser.obj
 0001:00020ec0       ?fixPeHeader@PeParser@@QAEXXZ 00421ec0 f   PeParser.obj
 0001:000210f0       ?removeIatDirectory@PeParser@@IAEXXZ 004220f0 f   PeParser.obj
 0001:000211b0       ?setDefaultFileAlignment@PeParser@@QAEXXZ 004221b0 f   PeParser.obj
 0001:00021200       ?PeFileSectionSortByPointerToRawData@@YA_NABVPeFileSection@@0@Z 00422200 f   PeParser.obj
 0001:00021220       ?PeFileSectionSortByVirtualAddress@@YA_NABVPeFileSection@@0@Z 00422220 f   PeParser.obj
 0001:00021240       ?alignAllSectionHeaders@PeParser@@QAEXXZ 00422240 f   PeParser.obj
 0001:000213d0       ?dumpProcess@PeParser@@QAE_NKKPB_W@Z 004223d0 f   PeParser.obj
 0001:00021470       ?dumpProcess@PeParser@@QAE_NKKPB_WAAV?$vector@VPeSection@@V?$allocator@VPeSection@@@std@@@std@@@Z 00422470 f   PeParser.obj
 0001:00021560       ?setEntryPointRva@PeParser@@QAEXK@Z 00422560 f   PeParser.obj
 0001:000215e0       ?getFileOverlay@PeParser@@IAE_NXZ 004225e0 f   PeParser.obj
 0001:00021720       ?updatePeHeaderChecksum@PeParser@@SA_NPB_WK@Z 00422720 f   PeParser.obj
 0001:000217f0       ?push_back@?$vector@VPeFileSection@@V?$allocator@VPeFileSection@@@std@@@std@@QAEXABVPeFileSection@@@Z 004227f0 f i PeParser.obj
 0001:000218a0       ??1?$vector@VPeFileSection@@V?$allocator@VPeFileSection@@@std@@@std@@QAE@XZ 004228a0 f i PeParser.obj
 0001:000218e0       ?_Reserve@?$vector@VPeFileSection@@V?$allocator@VPeFileSection@@@std@@@std@@IAEXI@Z 004228e0 f i PeParser.obj
 0001:00021970       ?_Reallocate@?$vector@VPeFileSection@@V?$allocator@VPeFileSection@@@std@@@std@@IAEXI@Z 00422970 f i PeParser.obj
 0001:00021a40       ?deallocate@?$_Wrap_alloc@V?$allocator@VPeFileSection@@@std@@@std@@QAEXPAVPeFileSection@@I@Z 00422a40 f i PeParser.obj
 0001:00021aa0       ??$_Sort_unchecked1@PAVPeFileSection@@HP6A_NABV1@0@Z@std@@YAXPAVPeFileSection@@0HAAP6A_NABV1@1@Z@Z 00422aa0 f i PeParser.obj
 0001:00021bc0       ??$_Partition_by_median_guess_unchecked@PAVPeFileSection@@P6A_NABV1@0@Z@std@@YA?AU?$pair@PAVPeFileSection@@PAV1@@0@PAVPeFileSection@@0AAP6A_NABV2@1@Z@Z 00422bc0 f i PeParser.obj
 0001:00021f30       ??$_Make_heap_unchecked@PAVPeFileSection@@P6A_NABV1@0@Z@std@@YAXPAVPeFileSection@@0AAP6A_NABV1@1@Z@Z 00422f30 f i PeParser.obj
 0001:00021fd0       ??$_Sort_heap_unchecked@PAVPeFileSection@@P6A_NABV1@0@Z@std@@YAXPAVPeFileSection@@0AAP6A_NABV1@1@Z@Z 00422fd0 f i PeParser.obj
 0001:000220b0       ??$_Insertion_sort_unchecked@PAVPeFileSection@@P6A_NABV1@0@Z@std@@YAXPAVPeFileSection@@0AAP6A_NABV1@1@Z@Z 004230b0 f i PeParser.obj
 0001:000221f0       ??$_Uninitialized_move_al_unchecked1@PAVPeFileSection@@PAV1@V?$allocator@VPeFileSection@@@std@@@std@@YAPAVPeFileSection@@PAV1@00AAU?$_Wrap_alloc@V?$allocator@VPeFileSection@@@std@@@0@U_General_ptr_iterator_tag@0@U_Any_tag@0@@Z 004231f0 f i PeParser.obj
 0001:00022230       ??$_Guess_median_unchecked@PAVPeFileSection@@P6A_NABV1@0@Z@std@@YAXPAVPeFileSection@@00AAP6A_NABV1@1@Z@Z 00423230 f i PeParser.obj
 0001:000222e0       ??$_Pop_heap_hole_by_index@PAVPeFileSection@@HV1@P6A_NABV1@0@Z@std@@YAXPAVPeFileSection@@HH$$QAV1@AAP6A_NABV1@2@Z@Z 004232e0 f i PeParser.obj
 0001:000223c0       ??$_Med3_unchecked@PAVPeFileSection@@P6A_NABV1@0@Z@std@@YAXPAVPeFileSection@@00AAP6A_NABV1@1@Z@Z 004233c0 f i PeParser.obj
 0001:000224b0       ??$_Push_heap_by_index@PAVPeFileSection@@HV1@P6A_NABV1@0@Z@std@@YAXPAVPeFileSection@@HH$$QAV1@AAP6A_NABV1@2@Z@Z 004234b0 f i PeParser.obj
 0001:00022560       ?DoDataExchange@PickApiGui@@QAEHHI@Z 00423560 f i PickApiGui.obj
 0001:000225e0       ?ProcessWindowMessage@PickApiGui@@UAEHPAUHWND__@@IIJAAJK@Z 004235e0 f i PickApiGui.obj
 0001:000227b0       ??0PickApiGui@@QAE@ABV?$vector@VModuleInfo@@V?$allocator@VModuleInfo@@@std@@@std@@@Z 004237b0 f   PickApiGui.obj
 0001:00022830       ??_EPickDllGui@@UAEPAXI@Z  00423830 f i * CIL library *:* CIL module *
 0001:00022830       ??_GPickApiGui@@UAEPAXI@Z  00423830 f i PickApiGui.obj
 0001:00022830       ??_GPickDllGui@@UAEPAXI@Z  00423830 f i PickDllGui.obj
 0001:00022830       ??_EPickApiGui@@UAEPAXI@Z  00423830 f i * CIL library *:* CIL module *
 0001:00022880       ?OnDllListSelected@PickApiGui@@IAEXIHVCWindow@ATL@@@Z 00423880 f   PickApiGui.obj
 0001:000228d0       ?OnApiFilterUpdated@PickApiGui@@IAEXIHVCWindow@ATL@@@Z 004238d0 f   PickApiGui.obj
 0001:00022ae0       ?actionApiSelected@PickApiGui@@IAEXXZ 00423ae0 f   PickApiGui.obj
 0001:00022b50       ?fillDllComboBox@PickApiGui@@IAEXAAV?$CComboBoxT@VCWindow@ATL@@@WTL@@@Z 00423b50 f   PickApiGui.obj
 0001:00022be0       ?fillApiListBox@PickApiGui@@IAEXAAV?$CListBoxT@VCWindow@ATL@@@WTL@@ABV?$vector@PAVApiInfo@@V?$allocator@PAVApiInfo@@@std@@@std@@@Z 00423be0 f   PickApiGui.obj
 0001:00022d00       ?DlgResize_Init@?$CDialogResize@VPickApiGui@@@WTL@@QAEX_N0K@Z 00423d00 f i PickApiGui.obj
 0001:00023040       ??4?$vector@PAVApiInfo@@V?$allocator@PAVApiInfo@@@std@@@std@@QAEAAV01@ABV01@@Z 00424040 f i PickApiGui.obj
 0001:00023140       ?Init@?$CA2WEX@$0BAE@@ATL@@AAEXPBDI@Z 00424140 f i PickApiGui.obj
 0001:00023210       ?_Buy@?$vector@PAVApiInfo@@V?$allocator@PAVApiInfo@@@std@@@std@@IAE_NI@Z 00424210 f i PickApiGui.obj
 0001:00023270       ??$swprintf_s@$05@@YAHAAY05_WPB_WZZ 00424270 f i PickApiGui.obj
 0001:00023290       ?ProcessWindowMessage@PickDllGui@@UAEHPAUHWND__@@IIJAAJK@Z 00424290 f i PickDllGui.obj
 0001:000233f0       ??0PickDllGui@@QAE@AAV?$vector@VModuleInfo@@V?$allocator@VModuleInfo@@@std@@@std@@@Z 004243f0 f   PickDllGui.obj
 0001:00023470       ?OnInitDialog@PickDllGui@@IAEHVCWindow@ATL@@J@Z 00424470 f   PickDllGui.obj
 0001:000234d0       ?OnListDllColumnClicked@PickDllGui@@IAEJPAUtagNMHDR@@@Z 004244d0 f   PickDllGui.obj
 0001:00023520       ?OnListDllDoubleClick@PickDllGui@@IAEJPAUtagNMHDR@@@Z 00424520 f   PickDllGui.obj
 0001:000235c0       ?OnOK@PickDllGui@@IAEXIHVCWindow@ATL@@@Z 004245c0 f   PickDllGui.obj
 0001:00023630       ?addColumnsToModuleList@PickDllGui@@IAEXAAV?$CListViewCtrlT@VCWindow@ATL@@@WTL@@@Z 00424630 f   PickDllGui.obj
 0001:00023730       ?displayModuleList@PickDllGui@@IAEXAAV?$CListViewCtrlT@VCWindow@ATL@@@WTL@@@Z 00424730 f   PickDllGui.obj
 0001:00023a50       ?listviewCompareFunc@PickDllGui@@KGHJJJ@Z 00424a50 f   PickDllGui.obj
 0001:00023b10       ?DlgResize_Init@?$CDialogResize@VPickDllGui@@@WTL@@QAEX_N0K@Z 00424b10 f i PickDllGui.obj
 0001:00023e50       ?findAllPlugins@PluginLoader@@QAE_NXZ 00424e50 f   PluginLoader.obj
 0001:00023ed0       ?searchForPlugin@PluginLoader@@AAE_NAAV?$vector@VPlugin@@V?$allocator@VPlugin@@@std@@@std@@PB_W_N@Z 00424ed0 f   PluginLoader.obj
 0001:00024100       ?getScyllaPluginName@PluginLoader@@AAE_NPAVPlugin@@@Z 00425100 f   PluginLoader.obj
 0001:00024240       ?buildSearchString@PluginLoader@@AAE_NXZ 00425240 f   PluginLoader.obj
 0001:000242c0       ?isValidDllFile@PluginLoader@@CA_NPB_W@Z 004252c0 f   PluginLoader.obj
 0001:000243d0       ?buildSearchStringImprecPlugins@PluginLoader@@AAE_NXZ 004253d0 f   PluginLoader.obj
 0001:00024470       ?_Reserve@?$vector@VPlugin@@V?$allocator@VPlugin@@@std@@@std@@IAEXI@Z 00425470 f i PluginLoader.obj
 0001:00024500       ?_Reallocate@?$vector@VPlugin@@V?$allocator@VPlugin@@@std@@@std@@IAEXI@Z 00425500 f i PluginLoader.obj
 0001:000245d0       ?deallocate@?$_Wrap_alloc@V?$allocator@VPlugin@@@std@@@std@@QAEXPAVPlugin@@I@Z 004255d0 f i PluginLoader.obj
 0001:00024630       ?NativeOpenProcess@ProcessAccessHelp@@SAPAXKK@Z 00425630 f   ProcessAccessHelp.obj
 0001:000246a0       ?closeProcessHandle@ProcessAccessHelp@@SAXXZ 004256a0 f   ProcessAccessHelp.obj
 0001:00024700       ?readMemoryPartlyFromProcess@ProcessAccessHelp@@SA_NKKPAX@Z 00425700 f   ProcessAccessHelp.obj
 0001:000247f0       ?readMemoryFromProcess@ProcessAccessHelp@@SA_NKKPAX@Z 004257f0 f   ProcessAccessHelp.obj
 0001:000248a0       ?decomposeMemory@ProcessAccessHelp@@SA_NPAEKK@Z 004258a0 f   ProcessAccessHelp.obj
 0001:00024910       ?getFileSize@ProcessAccessHelp@@SA_JPB_W@Z 00425910 f   ProcessAccessHelp.obj
 0001:00024990       ?writeMemoryToNewFile@ProcessAccessHelp@@SA_NPB_WKPBX@Z 00425990 f   ProcessAccessHelp.obj
 0001:00024a30       ?writeMemoryToFile@ProcessAccessHelp@@SA_NPAXJKPBX@Z 00425a30 f   ProcessAccessHelp.obj
 0001:00024a90       ?createFileMappingView@ProcessAccessHelp@@SAPAXPB_WKKK@Z 00425a90 f   ProcessAccessHelp.obj
 0001:00024b10       ?getProcessModules@ProcessAccessHelp@@SA_NPAXAAV?$vector@VModuleInfo@@V?$allocator@VModuleInfo@@@std@@@std@@@Z 00425b10 f   ProcessAccessHelp.obj
 0001:00024dd0       ??1ModuleInfo@@QAE@XZ      00425dd0 f i ProcessAccessHelp.obj
 0001:00024e10       ?getSizeOfImageProcess@ProcessAccessHelp@@SAKPAXK@Z 00425e10 f   ProcessAccessHelp.obj
 0001:00024f40       ?getEntryPointFromFile@ProcessAccessHelp@@SAKPB_W@Z 00425f40 f   ProcessAccessHelp.obj
 0001:00025010       ?createBackupFile@ProcessAccessHelp@@SA_NPB_W@Z 00426010 f   ProcessAccessHelp.obj
 0001:00025090       ?getModuleHandlesFromProcess@ProcessAccessHelp@@SAKQAXPAPAPAUHINSTANCE__@@@Z 00426090 f   ProcessAccessHelp.obj
 0001:00025130       ?isPageExecutable@ProcessAccessHelp@@SA_NK@Z 00426130 f   ProcessAccessHelp.obj
 0001:00025200       ?push_back@?$vector@VModuleInfo@@V?$allocator@VModuleInfo@@@std@@@std@@QAEXABVModuleInfo@@@Z 00426200 f i ProcessAccessHelp.obj
 0001:00025370       ?_Reserve@?$vector@VModuleInfo@@V?$allocator@VModuleInfo@@@std@@@std@@IAEXI@Z 00426370 f i ProcessAccessHelp.obj
 0001:00025400       ?_Reallocate@?$vector@VModuleInfo@@V?$allocator@VModuleInfo@@@std@@@std@@IAEXI@Z 00426400 f i ProcessAccessHelp.obj
 0001:000254a0       ?deallocate@?$_Wrap_alloc@V?$allocator@VModuleInfo@@@std@@@std@@QAEXPAVModuleInfo@@I@Z 004264a0 f i ProcessAccessHelp.obj
 0001:00025500       ?allocate@?$allocator@VModuleInfo@@@std@@QAEPAVModuleInfo@@I@Z 00426500 f i ProcessAccessHelp.obj
 0001:00025560       ?ToDocument@TiXmlDocument@@UAEPAV1@XZ 00426560 f i TreeImportExport.obj
 0001:00025560       ?ToElement@TiXmlElement@@UAEPAV1@XZ 00426560 f i tinyxml:tinyxml.obj
 0001:00025560       ?ToUnknown@TiXmlUnknown@@UAEPAV1@XZ 00426560 f i tinyxml:tinyxml.obj
 0001:00025560       ??0?$_Wrap_alloc@V?$allocator@VPlugin@@@std@@@std@@QAE@XZ 00426560 f i Scylla.obj
 0001:00025560       ?ToText@TiXmlText@@UBEPBV1@XZ 00426560 f i tinyxml:tinyxml.obj
 0001:00025560       ?ToDeclaration@TiXmlDeclaration@@UAEPAV1@XZ 00426560 f i tinyxml:tinyxml.obj
 0001:00025560       ?ToComment@TiXmlComment@@UAEPAV1@XZ 00426560 f i tinyxml:tinyxml.obj
 0001:00025560       ??0?$_Wrap_alloc@V?$allocator@VModuleInfo@@@std@@@std@@QAE@XZ 00426560 f i ProcessAccessHelp.obj
 0001:00025560       ?ToDocument@TiXmlDocument@@UBEPBV1@XZ 00426560 f i TreeImportExport.obj
 0001:00025560       ?ToText@TiXmlText@@UAEPAV1@XZ 00426560 f i tinyxml:tinyxml.obj
 0001:00025560       ?ToComment@TiXmlComment@@UBEPBV1@XZ 00426560 f i tinyxml:tinyxml.obj
 0001:00025560       ?ToUnknown@TiXmlUnknown@@UBEPBV1@XZ 00426560 f i tinyxml:tinyxml.obj
 0001:00025560       ?ToElement@TiXmlElement@@UBEPBV1@XZ 00426560 f i tinyxml:tinyxml.obj
 0001:00025560       ?ToDeclaration@TiXmlDeclaration@@UBEPBV1@XZ 00426560 f i tinyxml:tinyxml.obj
 0001:00025570       ??$_Destroy_range1@V?$allocator@VModuleInfo@@@std@@PAVModuleInfo@@@std@@YAXPAVModuleInfo@@0AAU?$_Wrap_alloc@V?$allocator@VModuleInfo@@@std@@@0@U?$integral_constant@_N$0A@@0@@Z 00426570 f i ProcessAccessHelp.obj
 0001:000255c0       ??0?$vector@PAVApiInfo@@V?$allocator@PAVApiInfo@@@std@@@std@@QAE@ABV01@@Z 004265c0 f i ProcessAccessHelp.obj
 0001:00025650       ??$_Uninitialized_move_al_unchecked1@PAVModuleInfo@@PAV1@V?$allocator@VModuleInfo@@@std@@@std@@YAPAVModuleInfo@@PAV1@00AAU?$_Wrap_alloc@V?$allocator@VModuleInfo@@@std@@@0@U_General_ptr_iterator_tag@0@U_Any_tag@0@@Z 00426650 f i ProcessAccessHelp.obj
 0001:00025690       ??0ModuleInfo@@QAE@$$QAV0@@Z 00426690 f i ProcessAccessHelp.obj
 0001:00025750       ?setDebugPrivileges@ProcessLister@@SAKXZ 00426750 f   ProcessLister.obj
 0001:00025830       ?getAbsoluteFilePath@ProcessLister@@AAE_NPAXPAVProcess@@@Z 00426830 f   ProcessLister.obj
 0001:00025900       ?getProcessListSnapshotNative@ProcessLister@@QAEAAV?$vector@VProcess@@V?$allocator@VProcess@@@std@@@std@@XZ 00426900 f   ProcessLister.obj
 0001:000259e0       ?handleProcessInformationAndAddToList@ProcessLister@@AAEXPAU_SYSTEM_PROCESS_INFORMATION@@@Z 004269e0 f   ProcessLister.obj
 0001:00025bd0       ?getPebAddressFromProcess@ProcessLister@@AAEKPAX@Z 00426bd0 f   ProcessLister.obj
 0001:00025c80       ?push_back@?$vector@VProcess@@V?$allocator@VProcess@@@std@@@std@@QAEXABVProcess@@@Z 00426c80 f i ProcessLister.obj
 0001:00025d10       ?_Reserve@?$vector@VProcess@@V?$allocator@VProcess@@@std@@@std@@IAEXI@Z 00426d10 f i ProcessLister.obj
 0001:00025dc0       ?_Reallocate@?$vector@VProcess@@V?$allocator@VProcess@@@std@@@std@@IAEXI@Z 00426dc0 f i ProcessLister.obj
 0001:00025e60       ?allocate@?$allocator@VProcess@@@std@@QAEPAVProcess@@I@Z 00426e60 f i ProcessLister.obj
 0001:00025ec0       ??$_Reverse_unchecked@PAVProcess@@@std@@YAXPAVProcess@@0@Z 00426ec0 f i ProcessLister.obj
 0001:00025f20       ??$_Uninitialized_move_al_unchecked1@PAVProcess@@PAV1@V?$allocator@VProcess@@@std@@@std@@YAPAVProcess@@PAV1@00AAU?$_Wrap_alloc@V?$allocator@VProcess@@@std@@@0@U_General_ptr_iterator_tag@0@U_Any_tag@0@@Z 00426f20 f i ProcessLister.obj
 0001:00025f60       ??1PluginLoader@@QAE@XZ    00426f60 f i Scylla.obj
 0001:00026000       ?Init@?$CW2AEX@$0IA@@ATL@@AAEXPB_WI@Z 00427000 f i StringConversion.obj
 0001:000260e0       ??$AtlConvAllocMemory@D@ATL@@YAXPAPADHPADH@Z 004270e0 f i StringConversion.obj
 0001:00026180       ?getSystemInformation@SystemInformation@@SA_NXZ 00427180 f   SystemInformation.obj
 0001:000264d0       ??1TiXmlString@@QAE@XZ     004274d0 f i TreeImportExport.obj
 0001:000264f0       ?ToDocument@TiXmlNode@@UAEPAVTiXmlDocument@@XZ 004274f0 f i tinyxml:tinyxml.obj
 0001:000264f0       ?ToText@TiXmlNode@@UAEPAVTiXmlText@@XZ 004274f0 f i TreeImportExport.obj
 0001:000264f0       ?ToUnknown@TiXmlNode@@UAEPAVTiXmlUnknown@@XZ 004274f0 f i TreeImportExport.obj
 0001:000264f0       ___scrt_initialize_winrt   004274f0 f i LIBCMT:utility_desktop.obj
 0001:000264f0       ?ToComment@TiXmlNode@@UAEPAVTiXmlComment@@XZ 004274f0 f i TreeImportExport.obj
 0001:000264f0       __get_startup_thread_locale_mode 004274f0 f i LIBCMT:thread_locale.obj
 0001:000264f0       ?ToText@TiXmlNode@@UBEPBVTiXmlText@@XZ 004274f0 f i TreeImportExport.obj
 0001:000264f0       ?ToComment@TiXmlNode@@UBEPBVTiXmlComment@@XZ 004274f0 f i TreeImportExport.obj
 0001:000264f0       ?ToDeclaration@TiXmlNode@@UBEPBVTiXmlDeclaration@@XZ 004274f0 f i TreeImportExport.obj
 0001:000264f0       ?ToUnknown@TiXmlNode@@UBEPBVTiXmlUnknown@@XZ 004274f0 f i TreeImportExport.obj
 0001:000264f0       ?ToDocument@TiXmlNode@@UBEPBVTiXmlDocument@@XZ 004274f0 f i tinyxml:tinyxml.obj
 0001:000264f0       __matherr                  004274f0 f i LIBCMT:matherr.obj
 0001:000264f0       __get_startup_new_mode     004274f0 f i LIBCMT:new_mode.obj
 0001:000264f0       ?ToDeclaration@TiXmlNode@@UAEPAVTiXmlDeclaration@@XZ 004274f0 f i TreeImportExport.obj
 0001:000264f0       ?ToElement@TiXmlNode@@UAEPAVTiXmlElement@@XZ 004274f0 f i TreeImportExport.obj
 0001:000264f0       __get_startup_commit_mode  004274f0 f i LIBCMT:commit_mode.obj
 0001:000264f0       ?ToElement@TiXmlNode@@UBEPBVTiXmlElement@@XZ 004274f0 f i TreeImportExport.obj
 0001:00026500       ??1TiXmlDocument@@UAE@XZ   00427500 f i TreeImportExport.obj
 0001:00026560       ??_ETiXmlDocument@@UAEPAXI@Z 00427560 f i * CIL library *:* CIL module *
 0001:00026560       ??_GTiXmlDocument@@UAEPAXI@Z 00427560 f i TreeImportExport.obj
 0001:00026590       ?exportTreeList@TreeImportExport@@QAE_NABV?$map@KVImportModuleThunk@@U?$less@K@std@@V?$allocator@U?$pair@$$CBKVImportModuleThunk@@@std@@@3@@std@@PBVProcess@@KKK@Z 00427590 f   TreeImportExport.obj
 0001:000266a0       ?importTreeList@TreeImportExport@@QAE_NAAV?$map@KVImportModuleThunk@@U?$less@K@std@@V?$allocator@U?$pair@$$CBKVImportModuleThunk@@@std@@@3@@std@@PAK11@Z 004276a0 f   TreeImportExport.obj
 0001:000268a0       ?setTargetInformation@TreeImportExport@@AAEXPAVTiXmlElement@@PBVProcess@@KKK@Z 004278a0 f   TreeImportExport.obj
 0001:00026a20       ?addModuleListToRootElement@TreeImportExport@@AAEXPAVTiXmlElement@@ABV?$map@KVImportModuleThunk@@U?$less@K@std@@V?$allocator@U?$pair@$$CBKVImportModuleThunk@@@std@@@3@@std@@@Z 00427a20 f   TreeImportExport.obj
 0001:00026ab0       ?getModuleXmlElement@TreeImportExport@@AAEPAVTiXmlElement@@PBVImportModuleThunk@@@Z 00427ab0 f   TreeImportExport.obj
 0001:00026c20       ?getImportXmlElement@TreeImportExport@@AAEPAVTiXmlElement@@PBVImportThunk@@@Z 00427c20 f   TreeImportExport.obj
 0001:00026e80       ?parseAllElementModules@TreeImportExport@@AAEXPAVTiXmlElement@@AAV?$map@KVImportModuleThunk@@U?$less@K@std@@V?$allocator@U?$pair@$$CBKVImportModuleThunk@@@std@@@3@@std@@@Z 00427e80 f   TreeImportExport.obj
 0001:000270d0       ?parseAllElementImports@TreeImportExport@@AAEXPAVTiXmlElement@@PAVImportModuleThunk@@@Z 004280d0 f   TreeImportExport.obj
 0001:00027330       ??$sprintf_s@$0BAE@@@YAHAAY0BAE@DPBDZZ 00428330 f i TreeImportExport.obj
 0001:00027360       ___local_stdio_scanf_options 00428360 f i tinyxml:tinyxml.obj
 0001:00027370       _fprintf                   00428370 f i tinyxml:tinyxml.obj
 0001:000273a0       ??0TiXmlString@@QAE@PBD@Z  004283a0 f i tinyxml:tinyxml.obj
 0001:00027400       ??4TiXmlString@@QAEAAV0@PBD@Z 00428400 f i tinyxml:tinyxml.obj
 0001:00027430       ??YTiXmlString@@QAEAAV0@PBD@Z 00428430 f i tinyxml:tinyxml.obj
 0001:00027490       ??YTiXmlString@@QAEAAV0@ABV0@@Z 00428490 f i tinyxml:tinyxml.obj
 0001:000274f0       ??_ETiXmlBase@@UAEPAXI@Z   004284f0 f i * CIL library *:* CIL module *
 0001:000274f0       ??_GTiXmlBase@@UAEPAXI@Z   004284f0 f i tinyxml:tinyxml.obj
 0001:00027520       ??0TiXmlAttribute@@QAE@XZ  00428520 f i tinyxml:tinyxml.obj
 0001:00027570       ?Print@TiXmlAttribute@@UBEXPAU_iobuf@@H@Z 00428570 f i tinyxml:tinyxml.obj
 0001:00027590       ??_GTiXmlAttribute@@UAEPAXI@Z 00428590 f i tinyxml:tinyxml.obj
 0001:00027590       ??_ETiXmlAttribute@@UAEPAXI@Z 00428590 f i * CIL library *:* CIL module *
 0001:000275e0       ??1TiXmlAttribute@@UAE@XZ  004285e0 f i tinyxml:tinyxml.obj
 0001:000275e0       ??1TiXmlAttributeSet@@QAE@XZ 004285e0 f i tinyxml:tinyxml.obj
 0001:00027620       ??0TiXmlComment@@QAE@XZ    00428620 f i tinyxml:tinyxml.obj
 0001:00027670       ??_ETiXmlUnknown@@UAEPAXI@Z 00428670 f i * CIL library *:* CIL module *
 0001:00027670       ??_GTiXmlNode@@UAEPAXI@Z   00428670 f i tinyxml:tinyxml.obj
 0001:00027670       ??_GTiXmlUnknown@@UAEPAXI@Z 00428670 f i tinyxml:tinyxml.obj
 0001:00027670       ??_ETiXmlNode@@UAEPAXI@Z   00428670 f i * CIL library *:* CIL module *
 0001:00027670       ??_GTiXmlComment@@UAEPAXI@Z 00428670 f i tinyxml:tinyxml.obj
 0001:00027670       ??_ETiXmlComment@@UAEPAXI@Z 00428670 f i * CIL library *:* CIL module *
 0001:000276d0       ??0TiXmlText@@QAE@PBD@Z    004286d0 f i tinyxml:tinyxml.obj
 0001:00027780       ??_GTiXmlText@@UAEPAXI@Z   00428780 f i tinyxml:tinyxml.obj
 0001:00027780       ??_ETiXmlText@@UAEPAXI@Z   00428780 f i * CIL library *:* CIL module *
 0001:000277e0       ??0TiXmlDeclaration@@QAE@XZ 004287e0 f i tinyxml:tinyxml.obj
 0001:00027850       ??1TiXmlDeclaration@@UAE@XZ 00428850 f i tinyxml:tinyxml.obj
 0001:000278d0       ?Print@TiXmlDeclaration@@UBEXPAU_iobuf@@H@Z 004288d0 f i tinyxml:tinyxml.obj
 0001:000278f0       ??_GTiXmlDeclaration@@UAEPAXI@Z 004288f0 f i tinyxml:tinyxml.obj
 0001:000278f0       ??_ETiXmlDeclaration@@UAEPAXI@Z 004288f0 f i * CIL library *:* CIL module *
 0001:00027920       ??0TiXmlUnknown@@QAE@XZ    00428920 f i tinyxml:tinyxml.obj
 0001:00027970       ?EncodeString@TiXmlBase@@SAXABVTiXmlString@@PAV2@@Z 00428970 f   tinyxml:tinyxml.obj
 0001:00027be0       ??1TiXmlNode@@UAE@XZ       00428be0 f   tinyxml:tinyxml.obj
 0001:00027c20       ?LinkEndChild@TiXmlNode@@QAEPAV1@PAV1@@Z 00428c20 f   tinyxml:tinyxml.obj
 0001:00027d00       ??0TiXmlElement@@QAE@PBD@Z 00428d00 f   tinyxml:tinyxml.obj
 0001:00027df0       ??_ETiXmlElement@@UAEPAXI@Z 00428df0 f i * CIL library *:* CIL module *
 0001:00027df0       ??_GTiXmlElement@@UAEPAXI@Z 00428df0 f i tinyxml:tinyxml.obj
 0001:00027e20       ??1TiXmlElement@@UAE@XZ    00428e20 f   tinyxml:tinyxml.obj
 0001:00027ea0       ?ClearThis@TiXmlElement@@IAEXXZ 00428ea0 f   tinyxml:tinyxml.obj
 0001:00027f30       ?Print@TiXmlElement@@UBEXPAU_iobuf@@H@Z 00428f30 f   tinyxml:tinyxml.obj
 0001:000280a0       ?CopyTo@TiXmlElement@@IBEXPAV1@@Z 004290a0 f   tinyxml:tinyxml.obj
 0001:00028170       ?Accept@TiXmlElement@@UBE_NPAVTiXmlVisitor@@@Z 00429170 f   tinyxml:tinyxml.obj
 0001:000281d0       ?Clone@TiXmlElement@@UBEPAVTiXmlNode@@XZ 004291d0 f   tinyxml:tinyxml.obj
 0001:00028260       ??0TiXmlDocument@@QAE@XZ   00429260 f   tinyxml:tinyxml.obj
 0001:00028340       ?LoadFile@TiXmlDocument@@QAE_NPAU_iobuf@@W4TiXmlEncoding@@@Z 00429340 f   tinyxml:tinyxml.obj
 0001:000284d0       ?CopyTo@TiXmlDocument@@ABEXPAV1@@Z 004294d0 f   tinyxml:tinyxml.obj
 0001:00028570       ?Clone@TiXmlDocument@@MBEPAVTiXmlNode@@XZ 00429570 f   tinyxml:tinyxml.obj
 0001:000285f0       ?Print@TiXmlDocument@@UBEXPAU_iobuf@@H@Z 004295f0 f   tinyxml:tinyxml.obj
 0001:00028630       ?Accept@TiXmlDocument@@UBE_NPAVTiXmlVisitor@@@Z 00429630 f   tinyxml:tinyxml.obj
 0001:00028680       ?Print@TiXmlAttribute@@QBEXPAU_iobuf@@HPAVTiXmlString@@@Z 00429680 f   tinyxml:tinyxml.obj
 0001:00028770       ?Print@TiXmlComment@@UBEXPAU_iobuf@@H@Z 00429770 f   tinyxml:tinyxml.obj
 0001:000287c0       ?Accept@TiXmlComment@@UBE_NPAVTiXmlVisitor@@@Z 004297c0 f   tinyxml:tinyxml.obj
 0001:000287e0       ?Clone@TiXmlComment@@UBEPAVTiXmlNode@@XZ 004297e0 f   tinyxml:tinyxml.obj
 0001:00028880       ?Print@TiXmlText@@UBEXPAU_iobuf@@H@Z 00429880 f   tinyxml:tinyxml.obj
 0001:00028960       ?Accept@TiXmlText@@UBE_NPAVTiXmlVisitor@@@Z 00429960 f   tinyxml:tinyxml.obj
 0001:00028980       ?Clone@TiXmlText@@MBEPAVTiXmlNode@@XZ 00429980 f   tinyxml:tinyxml.obj
 0001:00028a30       ??0TiXmlDeclaration@@QAE@PBD00@Z 00429a30 f   tinyxml:tinyxml.obj
 0001:00028b10       ?Print@TiXmlDeclaration@@UBEXPAU_iobuf@@HPAVTiXmlString@@@Z 00429b10 f   tinyxml:tinyxml.obj
 0001:00028cb0       ?CopyTo@TiXmlDeclaration@@IBEXPAV1@@Z 00429cb0 f   tinyxml:tinyxml.obj
 0001:00028d30       ?Accept@TiXmlDeclaration@@UBE_NPAVTiXmlVisitor@@@Z 00429d30 f   tinyxml:tinyxml.obj
 0001:00028d50       ?Clone@TiXmlDeclaration@@UBEPAVTiXmlNode@@XZ 00429d50 f   tinyxml:tinyxml.obj
 0001:00028de0       ?Print@TiXmlUnknown@@UBEXPAU_iobuf@@H@Z 00429de0 f   tinyxml:tinyxml.obj
 0001:00028e30       ?Accept@TiXmlUnknown@@UBE_NPAVTiXmlVisitor@@@Z 00429e30 f   tinyxml:tinyxml.obj
 0001:00028e50       ?Clone@TiXmlUnknown@@UBEPAVTiXmlNode@@XZ 00429e50 f   tinyxml:tinyxml.obj
 0001:00028ef0       ?Find@TiXmlAttributeSet@@QBEPAVTiXmlAttribute@@PBD@Z 00429ef0 f   tinyxml:tinyxml.obj
 0001:00028f60       ?FindOrCreate@TiXmlAttributeSet@@QAEPAVTiXmlAttribute@@PBD@Z 00429f60 f   tinyxml:tinyxml.obj
 0001:00028ff0       ??$_snprintf_s@$0CA@@@YAHAAY0CA@DIPBDZZ 00429ff0 f i tinyxml:tinyxml.obj
 0001:00029020       ?reserve@TiXmlString@@QAEXI@Z 0042a020 f   tinyxml:tinystr.obj
 0001:000290e0       ?assign@TiXmlString@@QAEAAV1@PBDI@Z 0042a0e0 f   tinyxml:tinystr.obj
 0001:000291c0       ?append@TiXmlString@@QAEAAV1@PBDI@Z 0042a1c0 f   tinyxml:tinystr.obj
 0001:00029210       ?GetChar@TiXmlBase@@KAPBDPBDPADPAHW4TiXmlEncoding@@@Z 0042a210 f i tinyxml:tinyxmlparser.obj
 0001:000292a0       ?ConvertUTF32ToUTF8@TiXmlBase@@KAXKPADPAH@Z 0042a2a0 f   tinyxml:tinyxmlparser.obj
 0001:000293a0       ?IsAlpha@TiXmlBase@@KAHEW4TiXmlEncoding@@@Z 0042a3a0 f   tinyxml:tinyxmlparser.obj
 0001:000293c0       ?Stamp@TiXmlParsingData@@QAEXPBDW4TiXmlEncoding@@@Z 0042a3c0 f   tinyxml:tinyxmlparser.obj
 0001:000295e0       ?SkipWhiteSpace@TiXmlBase@@KAPBDPBDW4TiXmlEncoding@@@Z 0042a5e0 f   tinyxml:tinyxmlparser.obj
 0001:00029690       ?ReadName@TiXmlBase@@KAPBDPBDPAVTiXmlString@@W4TiXmlEncoding@@@Z 0042a690 f   tinyxml:tinyxmlparser.obj
 0001:00029720       ?GetEntity@TiXmlBase@@KAPBDPBDPADPAHW4TiXmlEncoding@@@Z 0042a720 f   tinyxml:tinyxmlparser.obj
 0001:000298f0       ?StringEqual@TiXmlBase@@KA_NPBD0_NW4TiXmlEncoding@@@Z 0042a8f0 f   tinyxml:tinyxmlparser.obj
 0001:00029990       ?ReadText@TiXmlBase@@KAPBDPBDPAVTiXmlString@@_N02W4TiXmlEncoding@@@Z 0042a990 f   tinyxml:tinyxmlparser.obj
 0001:00029bd0       ?Parse@TiXmlDocument@@UAEPBDPBDPAVTiXmlParsingData@@W4TiXmlEncoding@@@Z 0042abd0 f   tinyxml:tinyxmlparser.obj
 0001:00029e60       ?SetError@TiXmlDocument@@QAEXHPBDPAVTiXmlParsingData@@W4TiXmlEncoding@@@Z 0042ae60 f   tinyxml:tinyxmlparser.obj
 0001:00029ed0       ?Identify@TiXmlNode@@IAEPAV1@PBDW4TiXmlEncoding@@@Z 0042aed0 f   tinyxml:tinyxmlparser.obj
 0001:0002a0b0       ?Parse@TiXmlElement@@UAEPBDPBDPAVTiXmlParsingData@@W4TiXmlEncoding@@@Z 0042b0b0 f   tinyxml:tinyxmlparser.obj
 0001:0002a420       ?ReadValue@TiXmlElement@@IAEPBDPBDPAVTiXmlParsingData@@W4TiXmlEncoding@@@Z 0042b420 f   tinyxml:tinyxmlparser.obj
 0001:0002a660       ?Parse@TiXmlUnknown@@UAEPBDPBDPAVTiXmlParsingData@@W4TiXmlEncoding@@@Z 0042b660 f   tinyxml:tinyxmlparser.obj
 0001:0002a7d0       ?Parse@TiXmlComment@@UAEPBDPBDPAVTiXmlParsingData@@W4TiXmlEncoding@@@Z 0042b7d0 f   tinyxml:tinyxmlparser.obj
 0001:0002a950       ?Parse@TiXmlAttribute@@UAEPBDPBDPAVTiXmlParsingData@@W4TiXmlEncoding@@@Z 0042b950 f   tinyxml:tinyxmlparser.obj
 0001:0002ab10       ?Parse@TiXmlText@@UAEPBDPBDPAVTiXmlParsingData@@W4TiXmlEncoding@@@Z 0042bb10 f   tinyxml:tinyxmlparser.obj
 0001:0002ad60       ?Parse@TiXmlDeclaration@@UAEPBDPBDPAVTiXmlParsingData@@W4TiXmlEncoding@@@Z 0042bd60 f   tinyxml:tinyxmlparser.obj
 0001:0002b150       _distorm_decode64          0042c150 f   diStorm:distorm.obj
 0001:0002b2a0       _distorm_decompose64       0042c2a0 f   diStorm:distorm.obj
 0001:0002b310       _distorm_format64          0042c310 f   diStorm:distorm.obj
 0001:0002c340       _decode_internal           0042d340 f   diStorm:decoder.obj
 0001:0002c7e0       _chrcat_WS                 0042d7e0 f   diStorm:wstring.obj
 0001:0002c800       _strcat_WS                 0042d800 f   diStorm:wstring.obj
 0001:0002c830       _strcatlen_WS              0042d830 f   diStorm:wstring.obj
 0001:0002c860       _strclear_WS               0042d860 f   diStorm:wstring.obj
 0001:0002c880       _strcpylen_WS              0042d880 f   diStorm:wstring.obj
 0001:0002c8a0       @str_code_hb@8             0042d8a0 f   diStorm:textdefs.obj
 0001:0002c8e0       @str_code_hdw@8            0042d8e0 f   diStorm:textdefs.obj
 0001:0002c940       @str_code_hqw@8            0042d940 f   diStorm:textdefs.obj
 0001:0002c9d0       @str_hex_b@8               0042d9d0 f   diStorm:textdefs.obj
 0001:0002ca00       @str_off64@12              0042da00 f   diStorm:textdefs.obj
 0001:0002ca80       _prefixes_decode           0042da80 f   diStorm:prefix.obj
 0001:0002cd90       _prefixes_ignore           0042dd90 f   diStorm:prefix.obj
 0001:0002cdb0       _prefixes_ignore_all       0042ddb0 f   diStorm:prefix.obj
 0001:0002ce20       _prefixes_is_valid         0042de20 f   diStorm:prefix.obj
 0001:0002cf30       _prefixes_set_unused_mask  0042df30 f   diStorm:prefix.obj
 0001:0002cfd0       _prefixes_use_segment      0042dfd0 f   diStorm:prefix.obj
 0001:0002d0c0       _inst_lookup               0042e0c0 f   diStorm:instructions.obj
 0001:0002d530       _inst_lookup_3dnow         0042e530 f   diStorm:instructions.obj
 0001:0002d9c0       _operands_extract          0042e9c0 f   diStorm:operands.obj
 0001:0002f212       ??0CAtlBaseModule@ATL@@QAE@XZ 00430212 f   atls:atlbase.obj
 0001:0002f265       ??0_ATL_BASE_MODULE70@ATL@@QAE@XZ 00430265 f i atls:atlbase.obj
 0001:0002f288       ??1CAtlBaseModule@ATL@@QAE@XZ 00430288 f   atls:atlbase.obj
 0001:0002f29e       ?RemoveAll@?$CSimpleArray@PAUHINSTANCE__@@V?$CSimpleArrayEqualHelper@PAUHINSTANCE__@@@ATL@@@ATL@@QAEXXZ 0043029e f i atls:atlbase.obj
 0001:0002f397       ?Init@_stdcallthunk@ATL@@QAEHKPAX@Z 00430397 f i atls:atlthunk.obj
 0001:0002f3cc       ?__AllocStdCallThunk_cmn@@YAPAXXZ 004303cc f   atls:atlthunk.obj
 0001:0002f479       ?__FreeStdCallThunk_cmn@@YAXPAX@Z 00430479 f   atls:atlthunk.obj
 0001:0002f50d       _AtlThunk_AllocateData@0   0043050d f   atls:atlthunk.obj
 0001:0002f566       _AtlThunk_DataToCode@4     00430566 f   atls:atlthunk.obj
 0001:0002f5a1       _AtlThunk_FreeData@4       004305a1 f   atls:atlthunk.obj
 0001:0002f5eb       _AtlThunk_InitData@12      004305eb f   atls:atlthunk.obj
 0001:0002f62e       ??0bad_alloc@std@@QAE@ABV01@@Z 0043062e f i libcpmt:xthrow.obj
 0001:0002f649       ??0bad_alloc@std@@QAE@XZ   00430649 f i libcpmt:xthrow.obj
 0001:0002f661       ??0length_error@std@@QAE@ABV01@@Z 00430661 f i libcpmt:xthrow.obj
 0001:0002f67c       ??0length_error@std@@QAE@PBD@Z 0043067c f i libcpmt:xthrow.obj
 0001:0002f69d       ??0logic_error@std@@QAE@ABV01@@Z 0043069d f i libcpmt:xthrow.obj
 0001:0002f6b8       ??0out_of_range@std@@QAE@ABV01@@Z 004306b8 f i libcpmt:xthrow.obj
 0001:0002f6d3       ??0out_of_range@std@@QAE@PBD@Z 004306d3 f i libcpmt:xthrow.obj
 0001:0002f6f4       ??1length_error@std@@UAE@XZ 004306f4 f i libcpmt:xthrow.obj
 0001:0002f6f4       ??1bad_alloc@std@@UAE@XZ   004306f4 f i libcpmt:xthrow.obj
 0001:0002f6f4       ??1bad_array_new_length@std@@UAE@XZ 004306f4 f i LIBCMT:throw_bad_alloc.obj
 0001:0002f6f4       ??1out_of_range@std@@UAE@XZ 004306f4 f i libcpmt:xthrow.obj
 0001:0002f6f4       ??1bad_exception@std@@UAE@XZ 004306f4 f i libvcruntime:frame.obj
 0001:0002f705       ??_Ebad_exception@std@@UAEPAXI@Z 00430705 f i libvcruntime:frame.obj
 0001:0002f705       ??_Gbad_exception@std@@UAEPAXI@Z 00430705 f i libvcruntime:frame.obj
 0001:0002f705       ??_Glogic_error@std@@UAEPAXI@Z 00430705 f i libcpmt:xthrow.obj
 0001:0002f705       ??_Elength_error@std@@UAEPAXI@Z 00430705 f i libcpmt:xthrow.obj
 0001:0002f705       ??_Ebad_array_new_length@std@@UAEPAXI@Z 00430705 f i LIBCMT:throw_bad_alloc.obj
 0001:0002f705       ??_Elogic_error@std@@UAEPAXI@Z 00430705 f i libcpmt:xthrow.obj
 0001:0002f705       ??_Ebad_alloc@std@@UAEPAXI@Z 00430705 f i libcpmt:xthrow.obj
 0001:0002f705       ??_Gout_of_range@std@@UAEPAXI@Z 00430705 f i libcpmt:xthrow.obj
 0001:0002f705       ??_Glength_error@std@@UAEPAXI@Z 00430705 f i libcpmt:xthrow.obj
 0001:0002f705       ??_Eout_of_range@std@@UAEPAXI@Z 00430705 f i libcpmt:xthrow.obj
 0001:0002f705       ??_Gbad_array_new_length@std@@UAEPAXI@Z 00430705 f i LIBCMT:throw_bad_alloc.obj
 0001:0002f705       ??_Gbad_alloc@std@@UAEPAXI@Z 00430705 f i libcpmt:xthrow.obj
 0001:0002f732       ?__scrt_throw_std_bad_alloc@@YAXXZ 00430732 f   LIBCMT:throw_bad_alloc.obj
 0001:0002f732       ?_Xbad_alloc@std@@YAXXZ    00430732 f   libcpmt:xthrow.obj
 0001:0002f74f       ?_Xlength_error@std@@YAXPBD@Z 0043074f f   libcpmt:xthrow.obj
 0001:0002f76f       ?_Xout_of_range@std@@YAXPBD@Z 0043076f f   libcpmt:xthrow.obj
 0001:0002f78f       ??3@YAXPAX@Z               0043078f f   LIBCMT:delete_scalar.obj
 0001:0002f794       @__security_check_cookie@4 00430794 f   LIBCMT:_secchk_.obj
 0001:0002f7e9       ___scrt_acquire_startup_lock 004307e9 f   LIBCMT:utility.obj
 0001:0002f81e       ___scrt_initialize_crt     0043081e f   LIBCMT:utility.obj
 0001:0002f857       ___scrt_initialize_onexit_tables 00430857 f   LIBCMT:utility.obj
 0001:0002f8ee       ___scrt_is_nonwritable_in_current_image 004308ee f   LIBCMT:utility.obj
 0001:0002f978       ___scrt_release_startup_lock 00430978 f   LIBCMT:utility.obj
 0001:0002f995       ___scrt_uninitialize_crt   00430995 f   LIBCMT:utility.obj
 0001:0002f9bd       __onexit                   004309bd f   LIBCMT:utility.obj
 0001:0002f9f8       _atexit                    004309f8 f   LIBCMT:utility.obj
 0001:0002fa0d       ??3@YAXPAXI@Z              00430a0d f   LIBCMT:delete_scalar_size.obj
 0001:0002fa1b       ??_V@YAXPAX@Z              00430a1b f   LIBCMT:delete_array.obj
 0001:0002fae0       ??$__crt_fast_encode_pointer@PAX@@YAPAXQAX@Z 00430ae0 f i libvcruntime:winapi_downlevel.obj
 0001:0002fae0       ??$__crt_fast_encode_pointer@PAP6AXXZ@@YAPAP6AXXZQAP6AXXZ@Z 00430ae0 f i LIBCMT:utility.obj
 0001:0002fae0       ??$__crt_fast_encode_pointer@P6GHPAU_RTL_CONDITION_VARIABLE@@PAU_RTL_CRITICAL_SECTION@@K@Z@@YAP6GHPAU_RTL_CONDITION_VARIABLE@@PAU_RTL_CRITICAL_SECTION@@K@ZQ6GH01K@Z@Z 00430ae0 f i LIBCMT:thread_safe_statics.obj
 0001:0002fae0       ??$__crt_fast_encode_pointer@P6GXPAU_RTL_CONDITION_VARIABLE@@@Z@@YAP6GXPAU_RTL_CONDITION_VARIABLE@@@ZQ6GX0@Z@Z 00430ae0 f i LIBCMT:thread_safe_statics.obj
 0001:0002fb19       __Init_thread_footer       00430b19 f   LIBCMT:thread_safe_statics.obj
 0001:0002fb58       __Init_thread_header       00430b58 f   LIBCMT:thread_safe_statics.obj
 0001:0002fb9e       __Init_thread_lock         00430b9e f   LIBCMT:thread_safe_statics.obj
 0001:0002fbaa       __Init_thread_notify       00430baa f   LIBCMT:thread_safe_statics.obj
 0001:0002fbeb       __Init_thread_unlock       00430beb f   LIBCMT:thread_safe_statics.obj
 0001:0002fbf7       __Init_thread_wait         00430bf7 f   LIBCMT:thread_safe_statics.obj
 0001:0002fc5c       ??2@YAPAXI@Z               00430c5c f   LIBCMT:new_scalar.obj
 0001:0002fc8f       ??_U@YAPAXI@Z              00430c8f f   LIBCMT:new_array.obj
 0001:0002fc98       ??_Gtype_info@@UAEPAXI@Z   00430c98 f i LIBCMT:std_type_info_static.obj
 0001:0002fc98       ??_Etype_info@@UAEPAXI@Z   00430c98 f i LIBCMT:std_type_info_static.obj
 0001:0002fcbb       ___raise_securityfailure   00430cbb f   LIBCMT:gs_report.obj
 0001:0002fce3       ___report_gsfailure        00430ce3 f   LIBCMT:gs_report.obj
 0001:0002fdde       ___report_rangecheckfailure 00430dde f   LIBCMT:gs_report.obj
 0001:0002fdea       ___report_securityfailure  00430dea f   LIBCMT:gs_report.obj
 0001:0002feba       ??_U@YAPAXIABUnothrow_t@std@@@Z 00430eba f   LIBCMT:new_array_nothrow.obj
 0001:000300e9       _wWinMainCRTStartup        004310e9 f   LIBCMT:exe_wwinmain.obj
 0001:00030100       __aullshr                  00431100 f   LIBCMT:ullshr.obj
 0001:0003011f       @_guard_check_icall@4      0043111f f i LIBCMT:checkcfg.obj
 0001:00030130       __SEH_prolog4              00431130 f   LIBCMT:_sehprolg4_.obj
 0001:00030176       __SEH_epilog4              00431176 f   LIBCMT:_sehprolg4_.obj
 0001:0003018b       ___isa_available_init      0043118b f   LIBCMT:_cpu_disp_.obj
 0001:00030325       __get_startup_argv_mode    00431325 f   LIBCMT:argv_mode.obj
 0001:00030329       ___scrt_is_ucrt_dll_in_use 00431329 f   LIBCMT:ucrt_detection.obj
 0001:00030335       ___scrt_fastfail           00431335 f   LIBCMT:utility_desktop.obj
 0001:00030450       ___scrt_get_show_window_mode 00431450 f   LIBCMT:utility_desktop.obj
 0001:00030483       ___scrt_is_managed_app     00431483 f   LIBCMT:utility_desktop.obj
 0001:000304c7       ___scrt_set_unhandled_exception_filter 004314c7 f   LIBCMT:utility_desktop.obj
 0001:000304d3       ___scrt_unhandled_exception_filter@4 004314d3 f   LIBCMT:utility_desktop.obj
 0001:00030514       __crt_debugger_hook        00431514 f   LIBCMT:utility_desktop.obj
 0001:0003051c       ??0bad_array_new_length@std@@QAE@ABV01@@Z 0043151c f i LIBCMT:throw_bad_alloc.obj
 0001:00030537       ??0bad_array_new_length@std@@QAE@XZ 00431537 f i LIBCMT:throw_bad_alloc.obj
 0001:0003054f       ?__scrt_throw_std_bad_array_new_length@@YAXXZ 0043154f f   LIBCMT:throw_bad_alloc.obj
 0001:0003056c       ??2@YAPAXIABUnothrow_t@std@@@Z 0043156c f   LIBCMT:new_scalar_nothrow.obj
 0001:000305be       ___security_init_cookie    004315be f   LIBCMT:gs_support.obj
 0001:0003065a       __get_startup_file_mode    0043165a f   LIBCMT:file_mode.obj
 0001:00030660       ?__scrt_initialize_type_info@@YAXXZ 00431660 f   LIBCMT:tncleanup.obj
 0001:0003066c       ___acrt_uninitialize_command_line 0043166c f   libucrt:argv_data.obj
 0001:0003066c       __should_initialize_environment 0043166c f   LIBCMT:env_mode.obj
 0001:0003066f       __initialize_default_precision 0043166f f   LIBCMT:default_precision.obj
 0001:00030690       ___scrt_initialize_default_local_stdio_options 00431690 f   LIBCMT:default_local_stdio_options.obj
 0001:000306ad       ___scrt_is_user_matherr_present 004316ad f   LIBCMT:matherr_detection.obj
 0001:000306b9       ___scrt_get_dyn_tls_init_callback 004316b9 f   LIBCMT:dyn_tls_init.obj
 0001:000306bf       ___scrt_get_dyn_tls_dtor_callback 004316bf f   LIBCMT:dyn_tls_dtor.obj
 0001:000306c5       __RTC_Initialize           004316c5 f   LIBCMT:_initsect_.obj
 0001:000306f0       __RTC_Terminate            004316f0 f   LIBCMT:_initsect_.obj
 0001:0003071b       ___DestructExceptionObject 0043171b f   libvcruntime:frame.obj
 0001:000307af       ??0bad_exception@std@@QAE@ABV01@@Z 004317af f i libvcruntime:frame.obj
 0001:000307ca       ??0bad_exception@std@@QAE@XZ 004317ca f i libvcruntime:frame.obj
 0001:00030ffb       ?_CallMemberFunction2@@YGXQAX00H@Z 00431ffb f i libvcruntime:frame.obj
 0001:00030ffb       ?_CallMemberFunction1@@YGXQAX00@Z 00431ffb f i libvcruntime:frame.obj
 0001:00030ffb       ?_CallMemberFunction0@@YGXQAX0@Z 00431ffb f i libvcruntime:frame.obj
 0001:00031002       ___AdjustPointer           00432002 f   libvcruntime:frame.obj
 0001:00031027       ___BuildCatchObject        00432027 f   libvcruntime:frame.obj
 0001:000310b6       ___BuildCatchObjectHelper  004320b6 f   libvcruntime:frame.obj
 0001:000311e4       ___FrameUnwindFilter       004321e4 f   libvcruntime:frame.obj
 0001:00031229       ___FrameUnwindToState      00432229 f   libvcruntime:frame.obj
 0001:000312f1       ___InternalCxxFrameHandler 004322f1 f   libvcruntime:frame.obj
 0001:000313ed       ___TypeMatch               004323ed f   libvcruntime:frame.obj
 0001:0003147b       ___std_terminate           0043247b f   libvcruntime:frame.obj
 0001:00031480       _memmove                   00432480 f   libvcruntime:memmove.obj
 0001:000319f4       _wcsstr                    004329f4 f   libvcruntime:wcsstr.obj
 0001:00031c80       _strchr                    00432c80 f   libvcruntime:strchr.obj
 0001:00031cee       ___from_strstr_to_strchr   00432cee     libvcruntime:strchr.obj
 0001:00031dab       _wcsrchr                   00432dab f   libvcruntime:wcsrchr.obj
 0001:00031e50       _strrchr                   00432e50 f   libvcruntime:strrchr.obj
 0001:00031f87       ___std_exception_copy      00432f87 f   libvcruntime:std_exception.obj
 0001:00031fea       ___std_exception_destroy   00432fea f   libvcruntime:std_exception.obj
 0001:00032009       __get_purecall_handler     00433009 f   libvcruntime:purevirt.obj
 0001:00032028       __purecall                 00433028 f   libvcruntime:purevirt.obj
 0001:00032050       _memcpy                    00433050 f   libvcruntime:memcpy.obj
 0001:000325d0       _memset                    004335d0 f   libvcruntime:memset.obj
 0001:0003272a       __CxxThrowException@8      0043372a f   libvcruntime:throw.obj
 0001:000327e0       __except_handler4          004337e0 f   libvcruntime:_chandler4_.obj
 0001:00032946       ___vcrt_initialize         00433946 f   libvcruntime:initialization.obj
 0001:0003296f       ___vcrt_uninitialize       0043396f f   libvcruntime:initialization.obj
 0001:00032aaf       ___vcrt_FlsAlloc           00433aaf f   libvcruntime:winapi_downlevel.obj
 0001:00032ae9       ___vcrt_FlsFree            00433ae9 f   libvcruntime:winapi_downlevel.obj
 0001:00032b23       ___vcrt_FlsGetValue        00433b23 f   libvcruntime:winapi_downlevel.obj
 0001:00032b5d       ___vcrt_FlsSetValue        00433b5d f   libvcruntime:winapi_downlevel.obj
 0001:00032b9a       ___vcrt_InitializeCriticalSectionEx 00433b9a f   libvcruntime:winapi_downlevel.obj
 0001:00032be0       ___vcrt_initialize_winapi_thunks 00433be0 f   libvcruntime:winapi_downlevel.obj
 0001:00032c1a       ___vcrt_uninitialize_winapi_thunks 00433c1a f   libvcruntime:winapi_downlevel.obj
 0001:00032c4c       ?_CallCatchBlock2@@YAPAXPAUEHRegistrationNode@@PBU_s_FuncInfo@@PAXHK@Z 00433c4c f   libvcruntime:trnsctrl.obj
 0001:00032cac       ?_CallSETranslator@@YAHPAUEHExceptionRecord@@PAUEHRegistrationNode@@PAX2PBU_s_FuncInfo@@H1@Z 00433cac f   libvcruntime:trnsctrl.obj
 0001:00032d89       ?_GetRangeOfTrysToCheck@@YAPBU_s_TryBlockMapEntry@@PBU_s_FuncInfo@@HHPAI1@Z 00433d89 f   libvcruntime:trnsctrl.obj
 0001:00032e01       ?_JumpToContinuation@@YGXPAXPAUEHRegistrationNode@@@Z 00433e01 f   libvcruntime:trnsctrl.obj
 0001:00032e33       ?_UnwindNestedFrames@@YGXPAUEHRegistrationNode@@PAUEHExceptionRecord@@@Z 00433e33 f   libvcruntime:trnsctrl.obj
 0001:00032e88       __CatchGuardHandler        00433e88 f   libvcruntime:trnsctrl.obj
 0001:00032eb9       __CreateFrameInfo          00433eb9 f   libvcruntime:trnsctrl.obj
 0001:00032edd       __FindAndUnlinkFrame       00433edd f   libvcruntime:trnsctrl.obj
 0001:00032f27       __IsExceptionObjectToBeDestroyed 00433f27 f   libvcruntime:trnsctrl.obj
 0001:00032f4d       __TranslatorGuardHandler   00433f4d f   libvcruntime:trnsctrl.obj
 0001:00032fec       ___CxxFrameHandler3        00433fec f   libvcruntime:trnsctrl.obj
 0001:00033022       ___std_type_info_compare   00434022 f   libvcruntime:std_type_info.obj
 0001:0003305e       _unexpected                0043405e f   libvcruntime:unexpected.obj
 0001:0003307a       ___vcrt_freefls@4          0043407a f   libvcruntime:per_thread_data.obj
 0001:00033096       ___vcrt_getptd             00434096 f   libvcruntime:per_thread_data.obj
 0001:000330a4       ___vcrt_getptd_noexit      004340a4 f   libvcruntime:per_thread_data.obj
 0001:00033136       ___vcrt_initialize_ptd     00434136 f   libvcruntime:per_thread_data.obj
 0001:00033169       ___vcrt_uninitialize_ptd   00434169 f   libvcruntime:per_thread_data.obj
 0001:00033190       __CallSettingFrame@12      00434190 f   libvcruntime:lowhelpr.obj
 0001:000331b7       __NLG_Return               004341b7     libvcruntime:lowhelpr.obj
 0001:000331dc       ___vcrt_initialize_pure_virtual_call_handler 004341dc f   libvcruntime:purevirt_data.obj
 0001:00033200       __local_unwind4            00434200 f   libvcruntime:_exsup4_.obj
 0001:000332d6       __seh_longjmp_unwind4@4    004342d6 f   libvcruntime:_exsup4_.obj
 0001:000332fe       @_EH4_CallFilterFunc@8     004342fe f   libvcruntime:_exsup4_.obj
 0001:00033315       @_EH4_TransferToHandler@8  00434315 f   libvcruntime:_exsup4_.obj
 0001:0003332e       @_EH4_GlobalUnwind2@8      0043432e f   libvcruntime:_exsup4_.obj
 0001:00033347       @_EH4_LocalUnwind@16       00434347 f   libvcruntime:_exsup4_.obj
 0001:0003335e       ___vcrt_initialize_locks   0043435e f   libvcruntime:locks.obj
 0001:0003339a       ___vcrt_uninitialize_locks 0043439a f   libvcruntime:locks.obj
 0001:000333d0       __global_unwind2           004343d0 f   libvcruntime:_exsup_.obj
 0001:00033435       __local_unwind2            00434435 f   libvcruntime:_exsup_.obj
 0001:000334b9       __abnormal_termination     004344b9 f   libvcruntime:_exsup_.obj
 0001:000334dc       __NLG_Notify1              004344dc f   libvcruntime:_exsup_.obj
 0001:000334e5       __NLG_Notify               004344e5 f   libvcruntime:_exsup_.obj
 0001:000334fc       __NLG_Dispatch2            004344fc     libvcruntime:_exsup_.obj
 0001:000334fc       __NLG_Dispatch             004344fc     libvcruntime:_exsup_.obj
 0001:00033504       __NLG_Call                 00434504 f   libvcruntime:_exsup_.obj
 0001:00033506       __NLG_Return2              00434506     libvcruntime:_exsup_.obj
 0001:00033507       _wcscpy_s                  00434507 f   libucrt:wcscpy_s.obj
 0001:0003356b       _free                      0043456b f   libucrt:free.obj
 0001:00033570       ??0_LocaleUpdate@@QAE@QAU__crt_locale_pointers@@@Z 00434570 f i libucrt:wcsicmp.obj
 0001:000335f3       __wcsicmp                  004345f3 f   libucrt:wcsicmp.obj
 0001:00033688       __wcsicmp_l                00434688 f   libucrt:wcsicmp.obj
 0001:00033819       _strncpy_s                 00434819 f   libucrt:strncpy_s.obj
 0001:00033824       __strnicmp                 00434824 f   libucrt:strnicmp.obj
 0001:00033890       __strnicmp_l               00434890 f   libucrt:strnicmp.obj
 0001:00033947       _ldiv                      00434947 f   libucrt:ldiv.obj
 0001:00033955       _strcpy_s                  00434955 f   libucrt:strcpy_s.obj
 0001:000339af       ??$is_overflow_condition@K@__crt_strtox@@YA_NIK@Z 004349af f i libucrt:atox.obj
 0001:000339e2       ??$make_c_string_character_source@D$$T@__crt_strtox@@YA?AV?$c_string_character_source@D@0@QBD$$T@Z 004349e2 f i libucrt:atox.obj
 0001:000339e2       ??$make_c_string_character_source@DPAPAD@__crt_strtox@@YA?AV?$c_string_character_source@D@0@QBDQAPAD@Z 004349e2 f i libucrt:strtox.obj
 0001:000339e2       ??$make_c_string_character_source@_WPAPA_W@__crt_strtox@@YA?AV?$c_string_character_source@_W@0@QB_WQAPA_W@Z 004349e2 f i libucrt:strtox.obj
 0001:000339fd       ??$parse_integer@KV?$c_string_character_source@D@__crt_strtox@@@__crt_strtox@@YAKQAU__crt_locale_pointers@@V?$c_string_character_source@D@0@H_N@Z 004349fd f i libucrt:atox.obj
 0001:00033c25       ??$parse_integer@KV?$c_string_character_source@_W@__crt_strtox@@@__crt_strtox@@YAKQAU__crt_locale_pointers@@V?$c_string_character_source@_W@0@H_N@Z 00434c25 f i libucrt:atox.obj
 0001:0003430a       ?unget@?$c_string_character_source@D@__crt_strtox@@QAEXD@Z 0043530a f i libucrt:atox.obj
 0001:00034332       ?unget@?$c_string_character_source@_W@__crt_strtox@@QAEX_W@Z 00435332 f i libucrt:atox.obj
 0001:0003435e       __chvalidchk_l             0043535e f i libucrt:atox.obj
 0001:00034388       __ischartype_l             00435388 f i libucrt:atox.obj
 0001:000343bb       _atoi                      004353bb f   libucrt:atox.obj
 0001:000343e5       _strcat_s                  004353e5 f   libucrt:strcat_s.obj
 0001:0003444e       __wcsnicmp                 0043544e f   libucrt:wcsnicmp.obj
 0001:00034506       __wcsnicmp_l               00435506 f   libucrt:wcsnicmp.obj
 0001:00034607       ___acrt_call_reportfault   00435607 f   libucrt:invalid_parameter.obj
 0001:00034742       ___acrt_initialize_invalid_parameter_handler 00435742 f   libucrt:invalid_parameter.obj
 0001:00034756       __invalid_parameter        00435756 f   libucrt:invalid_parameter.obj
 0001:000347d1       __invalid_parameter_noinfo 004357d1 f   libucrt:invalid_parameter.obj
 0001:000347e1       __invalid_parameter_noinfo_noreturn 004357e1 f   libucrt:invalid_parameter.obj
 0001:000347fe       __invoke_watson            004357fe f   libucrt:invalid_parameter.obj
 0001:000348fe       _wcsncpy_s                 004358fe f   libucrt:wcsncpy_s.obj
 0001:00034909       ??$?RV<lambda_db08b09ef7aa9d4f8620ce68402612bc>@@AAV<lambda_4f2c1eaeead2a5fc776db5b62ea0fb9b>@@V<lambda_3ae262bc35d4ba6a3825c4f6bcaaf95c>@@@?$__crt_seh_guarded_call@H@@QAEH$$QAV<lambda_db08b09ef7aa9d4f8620ce68402612bc>@@AAV<lambda_4f2c1eaeead2a5fc776db5b62ea0fb9b>@@$$QAV<lambda_3ae262bc35d4ba6a3825c4f6bcaaf95c>@@@Z 00435909 f i libucrt:output.obj
 0001:0003495a       ??$__acrt_lock_stream_and_call@V<lambda_4f2c1eaeead2a5fc776db5b62ea0fb9b>@@@@YAHQAU_iobuf@@$$QAV<lambda_4f2c1eaeead2a5fc776db5b62ea0fb9b>@@@Z 0043595a f i libucrt:output.obj
 0001:00034f81       ??$count@D@formatting_buffer@__crt_stdio_output@@QBEIXZ 00435f81 f i libucrt:output.obj
 0001:00034f99       ??$ensure_buffer_is_big_enough@D@formatting_buffer@__crt_stdio_output@@QAE_NI@Z 00435f99 f i libucrt:output.obj
 0001:0003501f       ??$is_wide_character_specifier@D@__crt_stdio_output@@YA_N_KDW4length_modifier@0@@Z 0043601f f i libucrt:output.obj
 0001:0003505f       ??$is_wide_character_specifier@_W@__crt_stdio_output@@YA_N_K_WW4length_modifier@0@@Z 0043605f f i libucrt:output.obj
 0001:000350ae       ??$scratch_data@D@formatting_buffer@__crt_stdio_output@@QAEPADXZ 004360ae f i libucrt:output.obj
 0001:000350cc       ??$type_case_integer_parse_into_buffer@I@?$output_processor@DV?$stream_output_adapter@D@__crt_stdio_output@@V?$standard_base@DV?$stream_output_adapter@D@__crt_stdio_output@@@2@@__crt_stdio_output@@AAEXII_N@Z 004360cc f i libucrt:output.obj
 0001:000350cc       ??$type_case_integer_parse_into_buffer@I@?$output_processor@DV?$string_output_adapter@D@__crt_stdio_output@@V?$format_validation_base@DV?$string_output_adapter@D@__crt_stdio_output@@@2@@__crt_stdio_output@@AAEXII_N@Z 004360cc f i libucrt:output.obj
 0001:000350cc       ??$type_case_integer_parse_into_buffer@I@?$output_processor@_WV?$string_output_adapter@_W@__crt_stdio_output@@V?$format_validation_base@_WV?$string_output_adapter@_W@__crt_stdio_output@@@2@@__crt_stdio_output@@AAEXII_N@Z 004360cc f i libucrt:output.obj
 0001:00035141       ??$type_case_integer_parse_into_buffer@_K@?$output_processor@DV?$stream_output_adapter@D@__crt_stdio_output@@V?$standard_base@DV?$stream_output_adapter@D@__crt_stdio_output@@@2@@__crt_stdio_output@@AAEX_KI_N@Z 00436141 f i libucrt:output.obj
 0001:00035141       ??$type_case_integer_parse_into_buffer@_K@?$output_processor@_WV?$string_output_adapter@_W@__crt_stdio_output@@V?$format_validation_base@_WV?$string_output_adapter@_W@__crt_stdio_output@@@2@@__crt_stdio_output@@AAEX_KI_N@Z 00436141 f i libucrt:output.obj
 0001:00035141       ??$type_case_integer_parse_into_buffer@_K@?$output_processor@DV?$string_output_adapter@D@__crt_stdio_output@@V?$format_validation_base@DV?$string_output_adapter@D@__crt_stdio_output@@@2@@__crt_stdio_output@@AAEX_KI_N@Z 00436141 f i libucrt:output.obj
 0001:000351c9       ??$write_multiple_characters@V?$stream_output_adapter@D@__crt_stdio_output@@D@__crt_stdio_output@@YAXABV?$stream_output_adapter@D@0@DHQAH@Z 004361c9 f i libucrt:output.obj
 0001:000351f5       ??$write_multiple_characters@V?$string_output_adapter@D@__crt_stdio_output@@D@__crt_stdio_output@@YAXABV?$string_output_adapter@D@0@DHQAH@Z 004361f5 f i libucrt:output.obj
 0001:00035221       ??$write_multiple_characters@V?$string_output_adapter@_W@__crt_stdio_output@@D@__crt_stdio_output@@YAXABV?$string_output_adapter@_W@0@DHQAH@Z 00436221 f i libucrt:output.obj
 0001:00035252       ??0?$common_data@D@__crt_stdio_output@@IAE@XZ 00436252 f i libucrt:output.obj
 0001:00035299       ??0?$common_data@_W@__crt_stdio_output@@IAE@XZ 00436299 f i libucrt:output.obj
 0001:000352e5       ??0?$output_adapter_data@DV?$string_output_adapter@D@__crt_stdio_output@@@__crt_stdio_output@@IAE@ABV?$string_output_adapter@D@1@_KQBDQAU__crt_locale_pointers@@QAD@Z 004362e5 f i libucrt:output.obj
 0001:000352e5       ??0?$output_adapter_data@DV?$stream_output_adapter@D@__crt_stdio_output@@@__crt_stdio_output@@IAE@ABV?$stream_output_adapter@D@1@_KQBDQAU__crt_locale_pointers@@QAD@Z 004362e5 f i libucrt:output.obj
 0001:00035321       ??0?$output_adapter_data@_WV?$string_output_adapter@_W@__crt_stdio_output@@@__crt_stdio_output@@IAE@ABV?$string_output_adapter@_W@1@_KQB_WQAU__crt_locale_pointers@@QAD@Z 00436321 f i libucrt:output.obj
 0001:0003535d       ??0?$output_processor@DV?$string_output_adapter@D@__crt_stdio_output@@V?$format_validation_base@DV?$string_output_adapter@D@__crt_stdio_output@@@2@@__crt_stdio_output@@QAE@ABV?$string_output_adapter@D@1@_KQBDQAU__crt_locale_pointers@@QAD@Z 0043635d f i libucrt:output.obj
 0001:0003535d       ??0?$output_processor@DV?$stream_output_adapter@D@__crt_stdio_output@@V?$standard_base@DV?$stream_output_adapter@D@__crt_stdio_output@@@2@@__crt_stdio_output@@QAE@ABV?$stream_output_adapter@D@1@_KQBDQAU__crt_locale_pointers@@QAD@Z 0043635d f i libucrt:output.obj
 0001:00035392       ??0?$output_processor@_WV?$string_output_adapter@_W@__crt_stdio_output@@V?$format_validation_base@_WV?$string_output_adapter@_W@__crt_stdio_output@@@2@@__crt_stdio_output@@QAE@ABV?$string_output_adapter@_W@1@_KQB_WQAU__crt_locale_pointers@@QAD@Z 00436392 f i libucrt:output.obj
 0001:000353c7       ??1formatting_buffer@__crt_stdio_output@@QAE@XZ 004363c7 f i libucrt:output.obj
 0001:000353e1       ??4?$__crt_unique_heap_ptr@DU__crt_internal_free_policy@@@@QAEAAV0@$$QAV0@@Z 004363e1 f i libucrt:output.obj
 0001:000354c2       ?crop_zeroes@__crt_stdio_output@@YAXPADQAU__crt_locale_pointers@@@Z 004364c2 f i libucrt:output.obj
 0001:00035519       ?find_next_state@?$output_processor@DV?$stream_output_adapter@D@__crt_stdio_output@@V?$standard_base@DV?$stream_output_adapter@D@__crt_stdio_output@@@2@@__crt_stdio_output@@ABE?AW4state@2@DW432@@Z 00436519 f i libucrt:output.obj
 0001:0003554b       ?find_next_state@?$output_processor@DV?$string_output_adapter@D@__crt_stdio_output@@V?$format_validation_base@DV?$string_output_adapter@D@__crt_stdio_output@@@2@@__crt_stdio_output@@ABE?AW4state@2@DW432@@Z 0043654b f i libucrt:output.obj
 0001:00035580       ?find_next_state@?$output_processor@_WV?$string_output_adapter@_W@__crt_stdio_output@@V?$format_validation_base@_WV?$string_output_adapter@_W@__crt_stdio_output@@@2@@__crt_stdio_output@@ABE?AW4state@2@_WW432@@Z 00436580 f i libucrt:output.obj
 0001:000355b7       ?force_decimal_point@__crt_stdio_output@@YAXPADQAU__crt_locale_pointers@@@Z 004365b7 f i libucrt:output.obj
 0001:00035613       ?parse_int_from_format_string@?$output_processor@DV?$string_output_adapter@D@__crt_stdio_output@@V?$format_validation_base@DV?$string_output_adapter@D@__crt_stdio_output@@@2@@__crt_stdio_output@@AAE_NQAH@Z 00436613 f i libucrt:output.obj
 0001:00035613       ?parse_int_from_format_string@?$output_processor@DV?$stream_output_adapter@D@__crt_stdio_output@@V?$standard_base@DV?$stream_output_adapter@D@__crt_stdio_output@@@2@@__crt_stdio_output@@AAE_NQAH@Z 00436613 f i libucrt:output.obj
 0001:0003566f       ?parse_int_from_format_string@?$output_processor@_WV?$string_output_adapter@_W@__crt_stdio_output@@V?$format_validation_base@_WV?$string_output_adapter@_W@__crt_stdio_output@@@2@@__crt_stdio_output@@AAE_NQAH@Z 0043666f f i libucrt:output.obj
 0001:000356cd       ?process@?$output_processor@DV?$stream_output_adapter@D@__crt_stdio_output@@V?$standard_base@DV?$stream_output_adapter@D@__crt_stdio_output@@@2@@__crt_stdio_output@@QAEHXZ 004366cd f i libucrt:output.obj
 0001:000357e9       ?process@?$output_processor@DV?$string_output_adapter@D@__crt_stdio_output@@V?$format_validation_base@DV?$string_output_adapter@D@__crt_stdio_output@@@2@@__crt_stdio_output@@QAEHXZ 004367e9 f i libucrt:output.obj
 0001:00035911       ?process@?$output_processor@_WV?$string_output_adapter@_W@__crt_stdio_output@@V?$format_validation_base@_WV?$string_output_adapter@_W@__crt_stdio_output@@@2@@__crt_stdio_output@@QAEHXZ 00436911 f i libucrt:output.obj
 0001:00035a41       ?state_case_flag@?$output_processor@DV?$stream_output_adapter@D@__crt_stdio_output@@V?$standard_base@DV?$stream_output_adapter@D@__crt_stdio_output@@@2@@__crt_stdio_output@@AAE_NXZ 00436a41 f i libucrt:output.obj
 0001:00035a41       ?state_case_flag@?$output_processor@DV?$string_output_adapter@D@__crt_stdio_output@@V?$format_validation_base@DV?$string_output_adapter@D@__crt_stdio_output@@@2@@__crt_stdio_output@@AAE_NXZ 00436a41 f i libucrt:output.obj
 0001:00035a7e       ?state_case_flag@?$output_processor@_WV?$string_output_adapter@_W@__crt_stdio_output@@V?$format_validation_base@_WV?$string_output_adapter@_W@__crt_stdio_output@@@2@@__crt_stdio_output@@AAE_NXZ 00436a7e f i libucrt:output.obj
 0001:00035abb       ?state_case_normal@?$output_processor@DV?$stream_output_adapter@D@__crt_stdio_output@@V?$standard_base@DV?$stream_output_adapter@D@__crt_stdio_output@@@2@@__crt_stdio_output@@AAE_NXZ 00436abb f i libucrt:output.obj
 0001:00035ada       ?state_case_normal@?$output_processor@DV?$string_output_adapter@D@__crt_stdio_output@@V?$format_validation_base@DV?$string_output_adapter@D@__crt_stdio_output@@@2@@__crt_stdio_output@@AAE_NXZ 00436ada f i libucrt:output.obj
 0001:00035af9       ?state_case_normal@?$output_processor@_WV?$string_output_adapter@_W@__crt_stdio_output@@V?$format_validation_base@_WV?$string_output_adapter@_W@__crt_stdio_output@@@2@@__crt_stdio_output@@AAE_NXZ 00436af9 f i libucrt:output.obj
 0001:00035b18       ?state_case_normal_common@?$output_processor@DV?$stream_output_adapter@D@__crt_stdio_output@@V?$standard_base@DV?$stream_output_adapter@D@__crt_stdio_output@@@2@@__crt_stdio_output@@AAE_NXZ 00436b18 f i libucrt:output.obj
 0001:00035b42       ?state_case_normal_common@?$output_processor@DV?$string_output_adapter@D@__crt_stdio_output@@V?$format_validation_base@DV?$string_output_adapter@D@__crt_stdio_output@@@2@@__crt_stdio_output@@AAE_NXZ 00436b42 f i libucrt:output.obj
 0001:00035b6c       ?state_case_normal_common@?$output_processor@_WV?$string_output_adapter@_W@__crt_stdio_output@@V?$format_validation_base@_WV?$string_output_adapter@_W@__crt_stdio_output@@@2@@__crt_stdio_output@@AAE_NXZ 00436b6c f i libucrt:output.obj
 0001:00035b87       ?state_case_normal_tchar@?$output_processor@DV?$stream_output_adapter@D@__crt_stdio_output@@V?$standard_base@DV?$stream_output_adapter@D@__crt_stdio_output@@@2@@__crt_stdio_output@@AAE_ND@Z 00436b87 f i libucrt:output.obj
 0001:00035be8       ?state_case_normal_tchar@?$output_processor@DV?$string_output_adapter@D@__crt_stdio_output@@V?$format_validation_base@DV?$string_output_adapter@D@__crt_stdio_output@@@2@@__crt_stdio_output@@AAE_ND@Z 00436be8 f i libucrt:output.obj
 0001:00035c49       ?state_case_precision@?$output_processor@DV?$string_output_adapter@D@__crt_stdio_output@@V?$format_validation_base@DV?$string_output_adapter@D@__crt_stdio_output@@@2@@__crt_stdio_output@@AAE_NXZ 00436c49 f i libucrt:output.obj
 0001:00035c49       ?state_case_precision@?$output_processor@DV?$stream_output_adapter@D@__crt_stdio_output@@V?$standard_base@DV?$stream_output_adapter@D@__crt_stdio_output@@@2@@__crt_stdio_output@@AAE_NXZ 00436c49 f i libucrt:output.obj
 0001:00035c71       ?state_case_precision@?$output_processor@_WV?$string_output_adapter@_W@__crt_stdio_output@@V?$format_validation_base@_WV?$string_output_adapter@_W@__crt_stdio_output@@@2@@__crt_stdio_output@@AAE_NXZ 00436c71 f i libucrt:output.obj
 0001:00035c9a       ?state_case_size@?$output_processor@DV?$stream_output_adapter@D@__crt_stdio_output@@V?$standard_base@DV?$stream_output_adapter@D@__crt_stdio_output@@@2@@__crt_stdio_output@@AAE_NXZ 00436c9a f i libucrt:output.obj
 0001:00035e03       ?state_case_size@?$output_processor@DV?$string_output_adapter@D@__crt_stdio_output@@V?$format_validation_base@DV?$string_output_adapter@D@__crt_stdio_output@@@2@@__crt_stdio_output@@AAE_NXZ 00436e03 f i libucrt:output.obj
 0001:00035f6c       ?state_case_size@?$output_processor@_WV?$string_output_adapter@_W@__crt_stdio_output@@V?$format_validation_base@_WV?$string_output_adapter@_W@__crt_stdio_output@@@2@@__crt_stdio_output@@AAE_NXZ 00436f6c f i libucrt:output.obj
 0001:000360e8       ?state_case_type@?$output_processor@DV?$stream_output_adapter@D@__crt_stdio_output@@V?$standard_base@DV?$stream_output_adapter@D@__crt_stdio_output@@@2@@__crt_stdio_output@@AAE_NXZ 004370e8 f i libucrt:output.obj
 0001:00036317       ?state_case_type@?$output_processor@DV?$string_output_adapter@D@__crt_stdio_output@@V?$format_validation_base@DV?$string_output_adapter@D@__crt_stdio_output@@@2@@__crt_stdio_output@@AAE_NXZ 00437317 f i libucrt:output.obj
 0001:00036546       ?state_case_type@?$output_processor@_WV?$string_output_adapter@_W@__crt_stdio_output@@V?$format_validation_base@_WV?$string_output_adapter@_W@__crt_stdio_output@@@2@@__crt_stdio_output@@AAE_NXZ 00437546 f i libucrt:output.obj
 0001:000367a3       ?state_case_width@?$output_processor@DV?$stream_output_adapter@D@__crt_stdio_output@@V?$standard_base@DV?$stream_output_adapter@D@__crt_stdio_output@@@2@@__crt_stdio_output@@AAE_NXZ 004377a3 f i libucrt:output.obj
 0001:000367a3       ?state_case_width@?$output_processor@DV?$string_output_adapter@D@__crt_stdio_output@@V?$format_validation_base@DV?$string_output_adapter@D@__crt_stdio_output@@@2@@__crt_stdio_output@@AAE_NXZ 004377a3 f i libucrt:output.obj
 0001:000367ce       ?state_case_width@?$output_processor@_WV?$string_output_adapter@_W@__crt_stdio_output@@V?$format_validation_base@_WV?$string_output_adapter@_W@__crt_stdio_output@@@2@@__crt_stdio_output@@AAE_NXZ 004377ce f i libucrt:output.obj
 0001:000367fa       ?to_integer_size@__crt_stdio_output@@YAIW4length_modifier@1@@Z 004377fa f i libucrt:output.obj
 0001:00036856       ?type_case_Z@?$output_processor@DV?$string_output_adapter@D@__crt_stdio_output@@V?$format_validation_base@DV?$string_output_adapter@D@__crt_stdio_output@@@2@@__crt_stdio_output@@AAE_NXZ 00437856 f i libucrt:output.obj
 0001:00036856       ?type_case_Z@?$output_processor@DV?$stream_output_adapter@D@__crt_stdio_output@@V?$standard_base@DV?$stream_output_adapter@D@__crt_stdio_output@@@2@@__crt_stdio_output@@AAE_NXZ 00437856 f i libucrt:output.obj
 0001:000368b9       ?type_case_Z@?$output_processor@_WV?$string_output_adapter@_W@__crt_stdio_output@@V?$format_validation_base@_WV?$string_output_adapter@_W@__crt_stdio_output@@@2@@__crt_stdio_output@@AAE_NXZ 004378b9 f i libucrt:output.obj
 0001:0003691c       ?type_case_a@?$output_processor@DV?$stream_output_adapter@D@__crt_stdio_output@@V?$standard_base@DV?$stream_output_adapter@D@__crt_stdio_output@@@2@@__crt_stdio_output@@AAE_NXZ 0043791c f i libucrt:output.obj
 0001:0003691c       ?type_case_a@?$output_processor@DV?$string_output_adapter@D@__crt_stdio_output@@V?$format_validation_base@DV?$string_output_adapter@D@__crt_stdio_output@@@2@@__crt_stdio_output@@AAE_NXZ 0043791c f i libucrt:output.obj
 0001:00036a76       ?type_case_a@?$output_processor@_WV?$string_output_adapter@_W@__crt_stdio_output@@V?$format_validation_base@_WV?$string_output_adapter@_W@__crt_stdio_output@@@2@@__crt_stdio_output@@AAE_NXZ 00437a76 f i libucrt:output.obj
 0001:00036be8       ?type_case_c_tchar@?$output_processor@DV?$string_output_adapter@D@__crt_stdio_output@@V?$format_validation_base@DV?$string_output_adapter@D@__crt_stdio_output@@@2@@__crt_stdio_output@@AAE_ND@Z 00437be8 f i libucrt:output.obj
 0001:00036be8       ?type_case_c_tchar@?$output_processor@DV?$stream_output_adapter@D@__crt_stdio_output@@V?$standard_base@DV?$stream_output_adapter@D@__crt_stdio_output@@@2@@__crt_stdio_output@@AAE_ND@Z 00437be8 f i libucrt:output.obj
 0001:00036c78       ?type_case_c_tchar@?$output_processor@_WV?$string_output_adapter@_W@__crt_stdio_output@@V?$format_validation_base@_WV?$string_output_adapter@_W@__crt_stdio_output@@@2@@__crt_stdio_output@@AAE_N_W@Z 00437c78 f i libucrt:output.obj
 0001:00036d10       ?type_case_integer@?$output_processor@_WV?$string_output_adapter@_W@__crt_stdio_output@@V?$format_validation_base@_WV?$string_output_adapter@_W@__crt_stdio_output@@@2@@__crt_stdio_output@@AAE_NI_N@Z 00437d10 f i libucrt:output.obj
 0001:00036d10       ?type_case_integer@?$output_processor@DV?$string_output_adapter@D@__crt_stdio_output@@V?$format_validation_base@DV?$string_output_adapter@D@__crt_stdio_output@@@2@@__crt_stdio_output@@AAE_NI_N@Z 00437d10 f i libucrt:output.obj
 0001:00036d10       ?type_case_integer@?$output_processor@DV?$stream_output_adapter@D@__crt_stdio_output@@V?$standard_base@DV?$stream_output_adapter@D@__crt_stdio_output@@@2@@__crt_stdio_output@@AAE_NI_N@Z 00437d10 f i libucrt:output.obj
 0001:00036e5a       ?type_case_n@?$output_processor@_WV?$string_output_adapter@_W@__crt_stdio_output@@V?$format_validation_base@_WV?$string_output_adapter@_W@__crt_stdio_output@@@2@@__crt_stdio_output@@AAE_NXZ 00437e5a f i libucrt:output.obj
 0001:00036e5a       ?type_case_n@?$output_processor@DV?$stream_output_adapter@D@__crt_stdio_output@@V?$standard_base@DV?$stream_output_adapter@D@__crt_stdio_output@@@2@@__crt_stdio_output@@AAE_NXZ 00437e5a f i libucrt:output.obj
 0001:00036e5a       ?type_case_n@?$output_processor@DV?$string_output_adapter@D@__crt_stdio_output@@V?$format_validation_base@DV?$string_output_adapter@D@__crt_stdio_output@@@2@@__crt_stdio_output@@AAE_NXZ 00437e5a f i libucrt:output.obj
 0001:00036ece       ?type_case_o@?$output_processor@_WV?$string_output_adapter@_W@__crt_stdio_output@@V?$format_validation_base@_WV?$string_output_adapter@_W@__crt_stdio_output@@@2@@__crt_stdio_output@@AAE_NXZ 00437ece f i libucrt:output.obj
 0001:00036ece       ?type_case_o@?$output_processor@DV?$stream_output_adapter@D@__crt_stdio_output@@V?$standard_base@DV?$stream_output_adapter@D@__crt_stdio_output@@@2@@__crt_stdio_output@@AAE_NXZ 00437ece f i libucrt:output.obj
 0001:00036ece       ?type_case_o@?$output_processor@DV?$string_output_adapter@D@__crt_stdio_output@@V?$format_validation_base@DV?$string_output_adapter@D@__crt_stdio_output@@@2@@__crt_stdio_output@@AAE_NXZ 00437ece f i libucrt:output.obj
 0001:00036eed       ?type_case_p@?$output_processor@DV?$stream_output_adapter@D@__crt_stdio_output@@V?$standard_base@DV?$stream_output_adapter@D@__crt_stdio_output@@@2@@__crt_stdio_output@@AAE_NXZ 00437eed f i libucrt:output.obj
 0001:00036eed       ?type_case_p@?$output_processor@_WV?$string_output_adapter@_W@__crt_stdio_output@@V?$format_validation_base@_WV?$string_output_adapter@_W@__crt_stdio_output@@@2@@__crt_stdio_output@@AAE_NXZ 00437eed f i libucrt:output.obj
 0001:00036eed       ?type_case_p@?$output_processor@DV?$string_output_adapter@D@__crt_stdio_output@@V?$format_validation_base@DV?$string_output_adapter@D@__crt_stdio_output@@@2@@__crt_stdio_output@@AAE_NXZ 00437eed f i libucrt:output.obj
 0001:00036f05       ?type_case_s@?$output_processor@DV?$string_output_adapter@D@__crt_stdio_output@@V?$format_validation_base@DV?$string_output_adapter@D@__crt_stdio_output@@@2@@__crt_stdio_output@@AAE_NXZ 00437f05 f i libucrt:output.obj
 0001:00036f05       ?type_case_s@?$output_processor@DV?$stream_output_adapter@D@__crt_stdio_output@@V?$standard_base@DV?$stream_output_adapter@D@__crt_stdio_output@@@2@@__crt_stdio_output@@AAE_NXZ 00437f05 f i libucrt:output.obj
 0001:00036f78       ?type_case_s@?$output_processor@_WV?$string_output_adapter@_W@__crt_stdio_output@@V?$format_validation_base@_WV?$string_output_adapter@_W@__crt_stdio_output@@@2@@__crt_stdio_output@@AAE_NXZ 00437f78 f i libucrt:output.obj
 0001:00036fec       ?type_case_s_compute_narrow_string_length@?$output_processor@_WV?$string_output_adapter@_W@__crt_stdio_output@@V?$format_validation_base@_WV?$string_output_adapter@_W@__crt_stdio_output@@@2@@__crt_stdio_output@@ABEHH_W@Z 00437fec f i libucrt:output.obj
 0001:0003702c       ?validate@?$stream_output_adapter@D@__crt_stdio_output@@QBE_NXZ 0043802c f i libucrt:output.obj
 0001:0003704d       ?validate@?$c_string_character_source@_W@__crt_strtox@@QBE_NXZ 0043804d f i libucrt:atox.obj
 0001:0003704d       ?validate@?$string_output_adapter@D@__crt_stdio_output@@QBE_NXZ 0043804d f i libucrt:output.obj
 0001:0003704d       ?validate@?$c_string_character_source@D@__crt_strtox@@QBE_NXZ 0043804d f i libucrt:atox.obj
 0001:0003704d       ?validate@?$string_output_adapter@_W@__crt_stdio_output@@QBE_NXZ 0043804d f i libucrt:output.obj
 0001:00037068       ?validate_and_update_state_at_end_of_format_string@?$format_validation_base@_WV?$string_output_adapter@_W@__crt_stdio_output@@@__crt_stdio_output@@IBE_NXZ 00438068 f i libucrt:output.obj
 0001:00037068       ?validate_and_update_state_at_end_of_format_string@?$format_validation_base@DV?$string_output_adapter@D@__crt_stdio_output@@@__crt_stdio_output@@IBE_NXZ 00438068 f i libucrt:output.obj
 0001:0003708a       ?validate_stream_is_ansi_if_required@?$__acrt_stdio_char_traits@D@@SA_NQAU_iobuf@@@Z 0043808a f i libucrt:output.obj
 0001:0003710c       ?write_character@?$stream_output_adapter@D@__crt_stdio_output@@QBEXDQAH@Z 0043810c f i libucrt:output.obj
 0001:00037149       ?write_character@?$string_output_adapter@D@__crt_stdio_output@@QBE_NDQAH@Z 00438149 f i libucrt:output.obj
 0001:0003718b       ?write_character@?$string_output_adapter@_W@__crt_stdio_output@@QBE_N_WQAH@Z 0043818b f i libucrt:output.obj
 0001:000371d0       ?write_stored_string_tchar@?$output_processor@DV?$stream_output_adapter@D@__crt_stdio_output@@V?$standard_base@DV?$stream_output_adapter@D@__crt_stdio_output@@@2@@__crt_stdio_output@@AAE_ND@Z 004381d0 f i libucrt:output.obj
 0001:00037277       ?write_stored_string_tchar@?$output_processor@DV?$string_output_adapter@D@__crt_stdio_output@@V?$format_validation_base@DV?$string_output_adapter@D@__crt_stdio_output@@@2@@__crt_stdio_output@@AAE_ND@Z 00438277 f i libucrt:output.obj
 0001:0003731e       ?write_stored_string_tchar@?$output_processor@_WV?$string_output_adapter@_W@__crt_stdio_output@@V?$format_validation_base@_WV?$string_output_adapter@_W@__crt_stdio_output@@@2@@__crt_stdio_output@@AAE_N_W@Z 0043831e f i libucrt:output.obj
 0001:000373a9       ?write_string@?$stream_output_adapter@D@__crt_stdio_output@@QBEXQBDHQAH1@Z 004383a9 f i libucrt:output.obj
 0001:00037433       ?write_string@?$string_output_adapter@D@__crt_stdio_output@@QBEXQBDHQAH1@Z 00438433 f i libucrt:output.obj
 0001:000374c6       ?write_string@?$string_output_adapter@_W@__crt_stdio_output@@QBEXQB_WHQAH1@Z 004384c6 f i libucrt:output.obj
 0001:00037560       ___stdio_common_vfprintf   00438560 f   libucrt:output.obj
 0001:000375d7       ___stdio_common_vsnprintf_s 004385d7 f   libucrt:output.obj
 0001:000375fe       ___stdio_common_vsnwprintf_s 004385fe f   libucrt:output.obj
 0001:00037625       ___stdio_common_vsprintf_s 00438625 f   libucrt:output.obj
 0001:00037649       ___stdio_common_vswprintf_s 00438649 f   libucrt:output.obj
 0001:0003766d       _strtol                    0043866d f   libucrt:strtox.obj
 0001:00037699       _strtoul                   00438699 f   libucrt:strtox.obj
 0001:000376c5       _wcstol                    004386c5 f   libucrt:strtox.obj
 0001:000376f1       _wcstoul                   004386f1 f   libucrt:strtox.obj
 0001:0003771d       _wcscat_s                  0043871d f   libucrt:wcscat_s.obj
 0001:00037792       __towupper_l               00438792 f   libucrt:towupper.obj
 0001:00037861       _towupper                  00438861 f   libucrt:towupper.obj
 0001:00037874       _malloc                    00438874 f   libucrt:malloc.obj
 0001:0003787f       __recalloc                 0043887f f   libucrt:recalloc.obj
 0001:0003788a       __recalloc_base            0043888a f   libucrt:recalloc.obj
 0001:000378f7       __isleadbyte_l             004388f7 f i libucrt:_wctype.obj
 0001:00037930       _iswprint                  00438930 f i libucrt:_wctype.obj
 0001:00037946       _calloc                    00438946 f   libucrt:calloc.obj
 0001:00037a12       __wfopen_s                 00438a12 f   libucrt:fopen.obj
 0001:00037a59       __fclose_nolock            00438a59 f   libucrt:fclose.obj
 0001:00037acf       _fclose                    00438acf f   libucrt:fclose.obj
 0001:00037b4f       _fputws                    00438b4f f   libucrt:fputws.obj
 0001:00037be7       ??$?RV<lambda_b0cac3301889906f8da68b04e3d9a7f4>@@AAV<lambda_9a20e10065b92b5193c3597a66cba9d4>@@V<lambda_24b35df97fd4c1fecac72a72d95cc146>@@@?$__crt_seh_guarded_call@H@@QAEH$$QAV<lambda_b0cac3301889906f8da68b04e3d9a7f4>@@AAV<lambda_9a20e10065b92b5193c3597a66cba9d4>@@$$QAV<lambda_24b35df97fd4c1fecac72a72d95cc146>@@@Z 00438be7 f i libucrt:fputs.obj
 0001:00037c38       ??$__acrt_lock_stream_and_call@V<lambda_9a20e10065b92b5193c3597a66cba9d4>@@@@YAHQAU_iobuf@@$$QAV<lambda_9a20e10065b92b5193c3597a66cba9d4>@@@Z 00438c38 f i libucrt:fputs.obj
 0001:00037cae       _fputs                     00438cae f   libucrt:fputs.obj
 0001:00037d89       ___acrt_errno_from_os_error 00438d89 f   libucrt:errno.obj
 0001:00037dcc       ___acrt_errno_map_os_error 00438dcc f   libucrt:errno.obj
 0001:00037def       ___doserrno                00438def f   libucrt:errno.obj
 0001:00037e02       __errno                    00438e02 f   libucrt:errno.obj
 0001:00038361       __ftelli64_nolock          00439361 f   libucrt:ftell.obj
 0001:0003836c       _ftell                     0043936c f   libucrt:ftell.obj
 0001:00038377       __fputc_nolock             00439377 f   libucrt:fputc.obj
 0001:000383a0       ?LongLongSub@@YAJ_J0PA_J@Z 004393a0 f i libucrt:fseek.obj
 0001:0003865a       _fseek                     0043965a f   libucrt:fseek.obj
 0001:00038680       ?divide@__crt_strtox@@YA_KAAUbig_integer@1@ABU21@@Z 00439680 f i libucrt:atof.obj
 0001:00038baf       __fread_nolock_s           00439baf f   libucrt:fread.obj
 0001:00038d7b       _fread                     00439d7b f   libucrt:fread.obj
 0001:00038d98       _fread_s                   00439d98 f   libucrt:fread.obj
 0001:00038f92       __tolower_l                00439f92 f   libucrt:tolower_toupper.obj
 0001:00038fac       _tolower                   00439fac f   libucrt:tolower_toupper.obj
 0001:00038fdc       __isalnum_l                00439fdc f i libucrt:_ctype.obj
 0001:00039017       __isalpha_l                0043a017 f i libucrt:_ctype.obj
 0001:00039052       __isdigit_l                0043a052 f i libucrt:_ctype.obj
 0001:0003908a       __isspace_l                0043a08a f i libucrt:_ctype.obj
 0001:000390c2       _isalnum                   0043a0c2 f i libucrt:_ctype.obj
 0001:000390f1       _isalpha                   0043a0f1 f i libucrt:_ctype.obj
 0001:00039120       _isdigit                   0043a120 f i libucrt:_ctype.obj
 0001:0003914d       _isspace                   0043a14d f i libucrt:_ctype.obj
 0001:00039180       _strncmp                   0043a180 f   libucrt:strncmp.obj
 0001:000391f8       _terminate                 0043a1f8 f   libucrt:terminate.obj
 0001:00039234       __seh_filter_exe           0043a234 f   libucrt:exception_filter.obj
 0001:000393a7       ??$__crt_fast_encode_pointer@P6AHXZ@@YAP6AHXZQ6AHXZ@Z 0043a3a7 f i libucrt:onexit.obj
 0001:000393a7       ??$__crt_fast_encode_pointer@P6AHPAU_exception@@@Z@@YAP6AHPAU_exception@@@ZQ6AH0@Z@Z 0043a3a7 f i libucrt:matherr.obj
 0001:000393a7       ??$__crt_fast_encode_pointer@P6GXPAXK0@Z@@YAP6GXPAXK0@ZQ6GX0K0@Z@Z 0043a3a7 f i libucrt:exit.obj
 0001:0003959d       ___acrt_initialize_thread_local_exit_callback 0043a59d f   libucrt:exit.obj
 0001:000395ac       __c_exit                   0043a5ac f   libucrt:exit.obj
 0001:000395bb       __cexit                    0043a5bb f   libucrt:exit.obj
 0001:000395ca       __exit                     0043a5ca f   libucrt:exit.obj
 0001:000395e0       __register_thread_local_exe_atexit_callback 0043a5e0 f   libucrt:exit.obj
 0001:00039618       _exit                      0043a618 f   libucrt:exit.obj
 0001:000398d3       ___acrt_allocate_buffer_for_argv 0043a8d3 f   libucrt:argv_parsing.obj
 0001:00039928       __configure_wide_argv      0043a928 f   libucrt:argv_parsing.obj
 0001:00039ab0       ??$uninitialize@A6AXAAPAPA_W@Z@?$dual_state_global@PAPA_W@__crt_state_management@@QAEXA6AXAAPAPA_W@Z@Z 0043aab0 f i libucrt:environment_initialization.obj
 0001:00039ab0       ??$uninitialize@A6AXAAPAPAD@Z@?$dual_state_global@PAPAD@__crt_state_management@@QAEXA6AXAAPAPAD@Z@Z 0043aab0 f i libucrt:environment_initialization.obj
 0001:00039b26       ___dcrt_uninitialize_environments_nolock 0043ab26 f   libucrt:environment_initialization.obj
 0001:00039b5d       __initialize_wide_environment 0043ab5d f   libucrt:environment_initialization.obj
 0001:00039b62       ??$?RV<lambda_800076c951b434888f4765a74a194fcc>@@AAV<lambda_4e60a939b0d047cfe11ddc22648dfba9>@@V<lambda_6dbb1268764f43b569ce7b67e331d33a>@@@?$__crt_seh_guarded_call@H@@QAEH$$QAV<lambda_800076c951b434888f4765a74a194fcc>@@AAV<lambda_4e60a939b0d047cfe11ddc22648dfba9>@@$$QAV<lambda_6dbb1268764f43b569ce7b67e331d33a>@@@Z 0043ab62 f i libucrt:onexit.obj
 0001:00039bb3       ??$?RV<lambda_995298e7d72eb4c2aab26c0585b3abe5>@@AAV<lambda_275893d493268fdec8709772e3fcec0e>@@V<lambda_293819299cbf9a7022e18b56a874bb5c>@@@?$__crt_seh_guarded_call@H@@QAEH$$QAV<lambda_995298e7d72eb4c2aab26c0585b3abe5>@@AAV<lambda_275893d493268fdec8709772e3fcec0e>@@$$QAV<lambda_293819299cbf9a7022e18b56a874bb5c>@@@Z 0043abb3 f i libucrt:onexit.obj
 0001:00039c04       ??$__acrt_lock_and_call@V<lambda_275893d493268fdec8709772e3fcec0e>@@@@YAHW4__acrt_lock_id@@$$QAV<lambda_275893d493268fdec8709772e3fcec0e>@@@Z 0043ac04 f i libucrt:onexit.obj
 0001:00039c2c       ??$__acrt_lock_and_call@V<lambda_4e60a939b0d047cfe11ddc22648dfba9>@@@@YAHW4__acrt_lock_id@@$$QAV<lambda_4e60a939b0d047cfe11ddc22648dfba9>@@@Z 0043ac2c f i libucrt:onexit.obj
 0001:00039eb5       __crt_atexit               0043aeb5 f   libucrt:onexit.obj
 0001:00039ecb       __execute_onexit_table     0043aecb f   libucrt:onexit.obj
 0001:00039ee8       __initialize_onexit_table  0043aee8 f   libucrt:onexit.obj
 0001:00039f25       __register_onexit_function 0043af25 f   libucrt:onexit.obj
 0001:0003a03a       ?initialize@?$dual_state_global@P6AXPB_W00II@Z@__crt_state_management@@QAEXQ6AXPB_W00II@Z@Z 0043b03a f i libucrt:invalid_parameter.obj
 0001:0003a03a       ?initialize@?$dual_state_global@P6AXH@Z@__crt_state_management@@QAEXQ6AXH@Z@Z 0043b03a f i libucrt:signal.obj
 0001:0003a03a       ?initialize@?$dual_state_global@P6AHPAU_exception@@@Z@__crt_state_management@@QAEXQ6AHPAU_exception@@@Z@Z 0043b03a f i libucrt:matherr.obj
 0001:0003a03a       ?initialize@?$dual_state_global@PAU__crt_locale_data@@@__crt_state_management@@QAEXQAU__crt_locale_data@@@Z 0043b03a f i libucrt:initialization.obj
 0001:0003a03a       ?initialize@?$dual_state_global@PAPA_W@__crt_state_management@@QAEXQAPA_W@Z 0043b03a f i libucrt:environment_initialization.obj
 0001:0003a03a       ?initialize@?$dual_state_global@P6AHI@Z@__crt_state_management@@QAEXQ6AHI@Z@Z 0043b03a f i libucrt:new_handler.obj
 0001:0003a06b       ___acrt_initialize         0043b06b f   libucrt:initialization.obj
 0001:0003a07d       ___acrt_uninitialize       0043b07d f   libucrt:initialization.obj
 0001:0003a08f       ___acrt_initialize_new_handler 0043b08f f   libucrt:new_handler.obj
 0001:0003a0a3       __callnewh                 0043b0a3 f   libucrt:new_handler.obj
 0001:0003a0e7       __query_new_handler        0043b0e7 f   libucrt:new_handler.obj
 0001:0003a139       __query_app_type           0043b139 f   libucrt:report_runtime_error.obj
 0001:0003a13f       __set_app_type             0043b13f f   libucrt:report_runtime_error.obj
 0001:0003a14e       ___acrt_has_user_matherr   0043b14e f   libucrt:matherr.obj
 0001:0003a167       ___acrt_initialize_user_matherr 0043b167 f   libucrt:matherr.obj
 0001:0003a17b       ___acrt_invoke_user_matherr 0043b17b f   libucrt:matherr.obj
 0001:0003a1c4       ___setusermatherr          0043b1c4 f   libucrt:matherr.obj
 0001:0003a1d9       __get_wide_winmain_command_line 0043b1d9 f   libucrt:argv_winmain.obj
 0001:0003a21f       __initterm                 0043b21f f   libucrt:initterm.obj
 0001:0003a27b       __initterm_e               0043b27b f   libucrt:initterm.obj
 0001:0003a2c0       __get_fmode                0043b2c0 f   libucrt:setmode.obj
 0001:0003a2ec       __set_fmode                0043b2ec f   libucrt:setmode.obj
 0001:0003a329       __setmode_nolock           0043b329 f   libucrt:setmode.obj
 0001:0003a3fa       ___acrt_set_locale_changed 0043b3fa f   libucrt:wsetlocale.obj
 0001:0003a405       ___acrt_uninitialize_locale 0043b405 f   libucrt:wsetlocale.obj
 0001:0003a457       __configthreadlocale       0043b457 f   libucrt:wsetlocale.obj
 0001:0003a4b9       __query_new_mode           0043b4b9 f   libucrt:new_mode.obj
 0001:0003a4bf       __set_new_mode             0043b4bf f   libucrt:new_mode.obj
 0001:0003a4ee       ___p__commode              0043b4ee f   libucrt:ncommode.obj
 0001:0003a4f4       __controlfp_s              0043b4f4 f   libucrt:contrlfp.obj
 0001:0003a553       _abort                     0043b553 f   libucrt:abort.obj
 0001:0003a596       __free_base                0043b596 f   libucrt:free_base.obj
 0001:0003a5d0       __malloc_base              0043b5d0 f   libucrt:malloc_base.obj
 0001:0003a61e       __calloc_base              0043b61e f   libucrt:calloc_base.obj
 0001:0003a67b       __towlower_l               0043b67b f   libucrt:towlower.obj
 0001:0003a744       ??$?RV<lambda_3518db117f0e7cdb002338c5d3c47b6c>@@AAV<lambda_b2ea41f6bbb362cd97d94c6828d90b61>@@V<lambda_abdedf541bb04549bc734292b4a045d4>@@@?$__crt_seh_guarded_call@X@@QAEX$$QAV<lambda_3518db117f0e7cdb002338c5d3c47b6c>@@AAV<lambda_b2ea41f6bbb362cd97d94c6828d90b61>@@$$QAV<lambda_abdedf541bb04549bc734292b4a045d4>@@@Z 0043b744 f i libucrt:per_thread_data.obj
 0001:0003a794       ??$?RV<lambda_51b6e8b1eb166f2a3faf91f424b38130>@@AAV<lambda_6250bd4b2a391816dd638c3bf72b0bcb>@@V<lambda_0b5a4a3e68152e1d9b943535f5f47bed>@@@?$__crt_seh_guarded_call@X@@QAEX$$QAV<lambda_51b6e8b1eb166f2a3faf91f424b38130>@@AAV<lambda_6250bd4b2a391816dd638c3bf72b0bcb>@@$$QAV<lambda_0b5a4a3e68152e1d9b943535f5f47bed>@@@Z 0043b794 f i libucrt:per_thread_data.obj
 0001:0003a7f5       ??$?RV<lambda_5b71d36f03204c0beab531769a5b5694>@@AAV<lambda_be2b3da3f62db62e9dad5dc70221a656>@@V<lambda_8f9ce462984622f9bf76b59e2aaaf805>@@@?$__crt_seh_guarded_call@X@@QAEX$$QAV<lambda_5b71d36f03204c0beab531769a5b5694>@@AAV<lambda_be2b3da3f62db62e9dad5dc70221a656>@@$$QAV<lambda_8f9ce462984622f9bf76b59e2aaaf805>@@@Z 0043b7f5 f i libucrt:per_thread_data.obj
 0001:0003a840       ??$?RV<lambda_9df27f884b057bc3edfc946cb5b7cf47>@@AAV<lambda_e69574bed617af4e071282c136b37893>@@V<lambda_cc0d902bcbbeb830f749456577db4721>@@@?$__crt_seh_guarded_call@X@@QAEX$$QAV<lambda_9df27f884b057bc3edfc946cb5b7cf47>@@AAV<lambda_e69574bed617af4e071282c136b37893>@@$$QAV<lambda_cc0d902bcbbeb830f749456577db4721>@@@Z 0043b840 f i libucrt:per_thread_data.obj
 0001:0003a888       ??$__acrt_lock_and_call@V<lambda_6250bd4b2a391816dd638c3bf72b0bcb>@@@@YAXW4__acrt_lock_id@@$$QAV<lambda_6250bd4b2a391816dd638c3bf72b0bcb>@@@Z 0043b888 f i libucrt:per_thread_data.obj
 0001:0003a8b0       ??$__acrt_lock_and_call@V<lambda_b2ea41f6bbb362cd97d94c6828d90b61>@@@@YAXW4__acrt_lock_id@@$$QAV<lambda_b2ea41f6bbb362cd97d94c6828d90b61>@@@Z 0043b8b0 f i libucrt:per_thread_data.obj
 0001:0003a8d8       ??$__acrt_lock_and_call@V<lambda_be2b3da3f62db62e9dad5dc70221a656>@@@@YAXW4__acrt_lock_id@@$$QAV<lambda_be2b3da3f62db62e9dad5dc70221a656>@@@Z 0043b8d8 f i libucrt:per_thread_data.obj
 0001:0003a900       ??$__acrt_lock_and_call@V<lambda_e69574bed617af4e071282c136b37893>@@@@YAXW4__acrt_lock_id@@$$QAV<lambda_e69574bed617af4e071282c136b37893>@@@Z 0043b900 f i libucrt:per_thread_data.obj
 0001:0003aab6       ___acrt_getptd             0043bab6 f   libucrt:per_thread_data.obj
 0001:0003ab3a       ___acrt_getptd_noexit      0043bb3a f   libucrt:per_thread_data.obj
 0001:0003abbf       ___acrt_initialize_ptd     0043bbbf f   libucrt:per_thread_data.obj
 0001:0003abeb       ___acrt_uninitialize_ptd   0043bbeb f   libucrt:per_thread_data.obj
 0001:0003ac05       ___acrt_update_locale_info 0043bc05 f   libucrt:locale_update.obj
 0001:0003ac32       ___acrt_update_multibyte_info 0043bc32 f   libucrt:locale_update.obj
 0001:0003ac60       ___ascii_strnicmp          0043bc60 f   libucrt:_strnicm.obj
 0001:0003acc1       ___pctype_func             0043bcc1 f   libucrt:ctype.obj
 0001:0003ace7       _iswctype                  0043bce7 f   libucrt:iswctype.obj
 0001:0003ad46       __isctype_l                0043bd46 f   libucrt:isctype.obj
 0001:0003ae18       __mbtowc_l                 0043be18 f   libucrt:mbtowc.obj
 0001:0003af12       _mbtowc                    0043bf12 f   libucrt:mbtowc.obj
 0001:0003af2c       __wctomb_s_l               0043bf2c f   libucrt:wctomb.obj
 0001:0003b04d       _wctomb_s                  0043c04d f   libucrt:wctomb.obj
 0001:0003b06a       _strnlen                   0043c06a f   libucrt:strnlen.obj
 0001:0003b191       _wcsnlen                   0043c191 f   libucrt:strnlen.obj
 0001:0003b348       ?__acrt_fp_classify@@YA?AW4__acrt_fp_class@@ABN@Z 0043c348 f i libucrt:cvt.obj
 0001:0003b3b4       ?__acrt_fp_is_negative@@YA_NABN@Z 0043c3b4 f i libucrt:cvt.obj
 0001:0003bc13       ___acrt_fp_format          0043cc13 f   libucrt:cvt.obj
 0001:0003bd8f       __fputwc_nolock            0043cd8f f   libucrt:fputwc.obj
 0001:0003beb5       __fileno                   0043ceb5 f   libucrt:fileno.obj
 0001:0003bedb       ___acrt_initialize_stdio   0043cedb f   libucrt:_file.obj
 0001:0003bfa3       ___acrt_iob_func           0043cfa3 f   libucrt:_file.obj
 0001:0003bfb3       ___acrt_uninitialize_stdio 0043cfb3 f   libucrt:_file.obj
 0001:0003bfff       __lock_file                0043cfff f   libucrt:_file.obj
 0001:0003c013       __unlock_file              0043d013 f   libucrt:_file.obj
 0001:0003c027       __get_printf_count_output  0043d027 f   libucrt:printf_count_output.obj
 0001:0003c03c       ___acrt_stdio_begin_temporary_buffering_nolock 0043d03c f   libucrt:_sftbuf.obj
 0001:0003c0f1       ___acrt_stdio_end_temporary_buffering_nolock 0043d0f1 f   libucrt:_sftbuf.obj
 0001:0003c296       ___acrt_initialize_lowio   0043d296 f   libucrt:ioinit.obj
 0001:0003c2ec       ___acrt_uninitialize_lowio 0043d2ec f   libucrt:ioinit.obj
 0001:0003c318       ___acrt_LCMapStringW       0043d318 f   libucrt:lcmapstringw.obj
 0001:0003c356       __msize                    0043d356 f   libucrt:msize.obj
 0001:0003c389       __realloc_base             0043d389 f   libucrt:realloc_base.obj
 0001:0003c3f2       ?__acrt_stdio_allocate_stream@@YA?AV__crt_stdio_stream@@XZ 0043d3f2 f   libucrt:stream.obj
 0001:0003c451       ?__acrt_stdio_free_stream@@YAXV__crt_stdio_stream@@@Z 0043d451 f   libucrt:stream.obj
 0001:0003c54f       ??$__acrt_stdio_parse_mode@_W@@YA?AU__acrt_stdio_stream_mode@@QB_W@Z 0043d54f f i libucrt:openfile.obj
 0001:0003c818       ?__acrt_stdio_parse_mode_D@@YA_NAAU__acrt_stdio_stream_mode@@@Z 0043d818 f i libucrt:openfile.obj
 0001:0003c833       ?__acrt_stdio_parse_mode_T@@YA_NAAU__acrt_stdio_stream_mode@@@Z 0043d833 f i libucrt:openfile.obj
 0001:0003c852       ?__acrt_stdio_parse_mode_b@@YA_NAAU__acrt_stdio_stream_mode@@@Z 0043d852 f i libucrt:openfile.obj
 0001:0003c872       ?__acrt_stdio_parse_mode_c@@YA_NAAU__acrt_stdio_stream_mode@@AA_N@Z 0043d872 f i libucrt:openfile.obj
 0001:0003c894       ?__acrt_stdio_parse_mode_n@@YA_NAAU__acrt_stdio_stream_mode@@AA_N@Z 0043d894 f i libucrt:openfile.obj
 0001:0003c8b6       ?__acrt_stdio_parse_mode_plus@@YA_NAAU__acrt_stdio_stream_mode@@AA_N@Z 0043d8b6 f i libucrt:openfile.obj
 0001:0003c8eb       ?__acrt_stdio_parse_mode_t@@YA_NAAU__acrt_stdio_stream_mode@@@Z 0043d8eb f i libucrt:openfile.obj
 0001:0003c90b       __wopenfile                0043d90b f   libucrt:openfile.obj
 0001:0003c916       ??$?RV<lambda_123407a5e2ac06da108355a851863b7a>@@AAV<lambda_2fe9b910cf3cbf4a0ab98a02ba45b3ec>@@V<lambda_ae55bdf541ad94d75914d381c370e64d>@@@?$__crt_seh_guarded_call@H@@QAEH$$QAV<lambda_123407a5e2ac06da108355a851863b7a>@@AAV<lambda_2fe9b910cf3cbf4a0ab98a02ba45b3ec>@@$$QAV<lambda_ae55bdf541ad94d75914d381c370e64d>@@@Z 0043d916 f i libucrt:close.obj
 0001:0003c998       ??$__acrt_lowio_lock_fh_and_call@V<lambda_2fe9b910cf3cbf4a0ab98a02ba45b3ec>@@@@YAHH$$QAV<lambda_2fe9b910cf3cbf4a0ab98a02ba45b3ec>@@@Z 0043d998 f i libucrt:close.obj
 0001:0003c9c0       __close                    0043d9c0 f   libucrt:close.obj
 0001:0003ca3f       __close_nolock             0043da3f f   libucrt:close.obj
 0001:0003cadb       ___acrt_stdio_free_buffer_nolock 0043dadb f   libucrt:_freebuf.obj
 0001:0003cb19       ___acrt_stdio_flush_nolock 0043db19 f   libucrt:fflush.obj
 0001:0003cb7f       __fflush_nolock            0043db7f f   libucrt:fflush.obj
 0001:0003cbc6       __flushall                 0043dbc6 f   libucrt:fflush.obj
 0001:0003cca7       __fwrite_nolock            0043dca7 f   libucrt:fwrite.obj
 0001:0003cfa3       __lseeki64                 0043dfa3 f   libucrt:lseek.obj
 0001:0003cfbe       __lseeki64_nolock          0043dfbe f   libucrt:lseek.obj
 0001:0003d4c1       __read                     0043e4c1 f   libucrt:read.obj
 0001:0003d5d4       __read_nolock              0043e5d4 f   libucrt:read.obj
 0001:0003dd4f       ___acrt_stdio_flush_and_write_narrow_nolock 0043ed4f f   libucrt:_flsbuf.obj
 0001:0003dd5a       ___acrt_stdio_flush_and_write_wide_nolock 0043ed5a f   libucrt:_flsbuf.obj
 0001:0003dee6       ___acrt_stdio_refill_and_read_narrow_nolock 0043eee6 f   libucrt:_filbuf.obj
 0001:0003e10e       ___acrt_LCMapStringA       0043f10e f   libucrt:lcmapstringa.obj
 0001:0003e159       __freea_crt                0043f159 f i libucrt:lcmapstringa.obj
 0001:0003e179       ___acrt_initialize_locks   0043f179 f   libucrt:locks.obj
 0001:0003e1ba       ___acrt_lock               0043f1ba f   libucrt:locks.obj
 0001:0003e1d1       ___acrt_uninitialize_locks 0043f1d1 f   libucrt:locks.obj
 0001:0003e202       ___acrt_unlock             0043f202 f   libucrt:locks.obj
 0001:0003e330       ___acrt_FlsAlloc@4         0043f330 f   libucrt:winapi_thunks.obj
 0001:0003e386       ___acrt_FlsFree@4          0043f386 f   libucrt:winapi_thunks.obj
 0001:0003e3dc       ___acrt_FlsGetValue@4      0043f3dc f   libucrt:winapi_thunks.obj
 0001:0003e432       ___acrt_FlsSetValue@8      0043f432 f   libucrt:winapi_thunks.obj
 0001:0003e48b       ___acrt_InitializeCriticalSectionEx@12 0043f48b f   libucrt:winapi_thunks.obj
 0001:0003e4ed       ___acrt_LCMapStringEx@36   0043f4ed f   libucrt:winapi_thunks.obj
 0001:0003e575       ___acrt_LocaleNameToLCID@8 0043f575 f   libucrt:winapi_thunks.obj
 0001:0003e5d1       ___acrt_initialize_winapi_thunks 0043f5d1 f   libucrt:winapi_thunks.obj
 0001:0003e5f7       ___acrt_is_packaged_app    0043f5f7 f   libucrt:winapi_thunks.obj
 0001:0003e67e       ___acrt_uninitialize_winapi_thunks 0043f67e f   libucrt:winapi_thunks.obj
 0001:0003eaed       ??1?$argument_list@_W@?A0xb0e4b824@@QAE@XZ 0043faed f i libucrt:argv_wildcards.obj
 0001:0003eb12       ?append@?$argument_list@_W@?A0xb0e4b824@@QAEHQA_W@Z 0043fb12 f i libucrt:argv_wildcards.obj
 0001:0003eb47       ?expand_if_necessary@?$argument_list@_W@?A0xb0e4b824@@AAEHXZ 0043fb47 f i libucrt:argv_wildcards.obj
 0001:0003ebce       ___acrt_expand_wide_argv_wildcards 0043fbce f   libucrt:argv_wildcards.obj
 0001:0003ebd9       ??$?RV<lambda_978dc153c237d78434369da87b74ff60>@@AAV<lambda_ad1ced32f4ac17aa236e5ef05d6b3b7c>@@V<lambda_4a8533e2866a575feecb8298ce776b0d>@@@?$__crt_seh_guarded_call@X@@QAEX$$QAV<lambda_978dc153c237d78434369da87b74ff60>@@AAV<lambda_ad1ced32f4ac17aa236e5ef05d6b3b7c>@@$$QAV<lambda_4a8533e2866a575feecb8298ce776b0d>@@@Z 0043fbd9 f i libucrt:mbctype.obj
 0001:0003ec1c       ??$__acrt_lock_and_call@V<lambda_ad1ced32f4ac17aa236e5ef05d6b3b7c>@@@@YAXW4__acrt_lock_id@@$$QAV<lambda_ad1ced32f4ac17aa236e5ef05d6b3b7c>@@@Z 0043fc1c f i libucrt:mbctype.obj
 0001:0003f0b3       ___acrt_initialize_multibyte 004400b3 f   libucrt:mbctype.obj
 0001:0003f0d1       ___acrt_update_thread_multibyte_data 004400d1 f   libucrt:mbctype.obj
 0001:0003f173       __setmbcp_nolock           00440173 f   libucrt:mbctype.obj
 0001:0003f364       ___acrt_initialize_command_line 00440364 f   libucrt:argv_data.obj
 0001:0003f3b4       ___dcrt_get_wide_environment_from_os 004403b4 f   libucrt:get_environment_from_os.obj
 0001:0003f404       ___acrt_initialize_heap    00440404 f   libucrt:heap_handle.obj
 0001:0003f415       ___acrt_uninitialize_heap  00440415 f   libucrt:heap_handle.obj
 0001:0003f41f       ___acrt_execute_initializers 0044041f f   libucrt:shared_initialization.obj
 0001:0003f4a2       ___acrt_execute_uninitializers 004404a2 f   libucrt:shared_initialization.obj
 0001:0003f4ef       ??$?RV<lambda_a048d3beccc847880fc8490e18b82769>@@AAV<lambda_ec61778202f4f5fc7e7711acc23c3bca>@@V<lambda_f7496a158712204296dd6628a163878e>@@@?$__crt_seh_guarded_call@P6AXH@Z@@QAEP6AXH@Z$$QAV<lambda_a048d3beccc847880fc8490e18b82769>@@AAV<lambda_ec61778202f4f5fc7e7711acc23c3bca>@@$$QAV<lambda_f7496a158712204296dd6628a163878e>@@@Z 004404ef f i libucrt:signal.obj
 0001:0003f549       ??$__acrt_lock_and_call@V<lambda_ec61778202f4f5fc7e7711acc23c3bca>@@@@YAP6AXH@ZW4__acrt_lock_id@@$$QAV<lambda_ec61778202f4f5fc7e7711acc23c3bca>@@@Z 00440549 f i libucrt:signal.obj
 0001:0003f5db       ___acrt_get_sigabrt_handler 004405db f   libucrt:signal.obj
 0001:0003f5f2       ___acrt_initialize_signal_handlers 004405f2 f   libucrt:signal.obj
 0001:0003f62d       ___fpecode                 0044062d f   libucrt:signal.obj
 0001:0003f636       _raise                     00440636 f   libucrt:signal.obj
 0001:0003f83e       ___acrt_lowio_create_handle_array 0044083e f   libucrt:osfinfo.obj
 0001:0003f8b8       ___acrt_lowio_destroy_handle_array 004408b8 f   libucrt:osfinfo.obj
 0001:0003f8ed       ___acrt_lowio_ensure_fh_exists 004408ed f   libucrt:osfinfo.obj
 0001:0003f985       ___acrt_lowio_lock_fh      00440985 f   libucrt:osfinfo.obj
 0001:0003f9a8       ___acrt_lowio_set_os_handle 004409a8 f   libucrt:osfinfo.obj
 0001:0003fa3c       ___acrt_lowio_unlock_fh    00440a3c f   libucrt:osfinfo.obj
 0001:0003fa5f       __alloc_osfhnd             00440a5f f   libucrt:osfinfo.obj
 0001:0003fb71       __free_osfhnd              00440b71 f   libucrt:osfinfo.obj
 0001:0003fc02       __get_osfhandle            00440c02 f   libucrt:osfinfo.obj
 0001:0003fc6c       ___acrt_locale_free_monetary 00440c6c f   libucrt:initmon.obj
 0001:0003fd6a       ___acrt_locale_free_numeric 00440d6a f   libucrt:initnum.obj
 0001:0003fe0f       ___acrt_locale_free_time   00440e0f f   libucrt:inittime.obj
 0001:0003fef3       _wcsncmp                   00440ef3 f   libucrt:wcsncmp.obj
 0001:0003ff2d       _wcspbrk                   00440f2d f   libucrt:wcspbrk.obj
 0001:0003ff72       ___acrt_GetStringTypeA     00440f72 f   libucrt:getstringtypea.obj
 0001:0004008f       ___acrt_add_locale_ref     0044108f f   libucrt:locale_refcounting.obj
 0001:0004010c       ___acrt_free_locale        0044110c f   libucrt:locale_refcounting.obj
 0001:00040256       ___acrt_locale_add_lc_time_reference 00441256 f   libucrt:locale_refcounting.obj
 0001:0004027f       ___acrt_locale_free_lc_time_if_unreferenced 0044127f f   libucrt:locale_refcounting.obj
 0001:000402af       ___acrt_locale_release_lc_time_reference 004412af f   libucrt:locale_refcounting.obj
 0001:000402d8       ___acrt_release_locale_ref 004412d8 f   libucrt:locale_refcounting.obj
 0001:00040359       ___acrt_update_thread_locale_data 00441359 f   libucrt:locale_refcounting.obj
 0001:000403d0       __updatetlocinfoEx_nolock  004413d0 f   libucrt:locale_refcounting.obj
 0001:000404cb       __clearfp                  004414cb f   libucrt:ieee87.obj
 0001:000405a9       __control87                004415a9 f   libucrt:ieee87.obj
 0001:00040944       ___acrt_fp_strflt_to_string 00441944 f   libucrt:_fptostr.obj
 0001:00040a00       ??0scoped_fp_state_reset@?A0x48fbfdd4@@QAE@XZ 00441a00 f i libucrt:cfout.obj
 0001:00040a2a       ___acrt_fltout             00441a2a f   libucrt:cfout.obj
 0001:00041dc6       __fcloseall                00442dc6 f   libucrt:closeall.obj
 0001:00041e66       __isatty                   00442e66 f   libucrt:isatty.obj
 0001:00042496       __wsopen_nolock            00443496 f   libucrt:open.obj
 0001:000427bf       __wsopen_s                 004437bf f   libucrt:open.obj
 0001:000427df       ??$?RV<lambda_61cee617f5178ae960314fd4d05640a0>@@AAV<lambda_6978c1fb23f02e42e1d9e99668cc68aa>@@V<lambda_9cd88cf8ad10232537feb2133f08c833>@@@?$__crt_seh_guarded_call@H@@QAEH$$QAV<lambda_61cee617f5178ae960314fd4d05640a0>@@AAV<lambda_6978c1fb23f02e42e1d9e99668cc68aa>@@$$QAV<lambda_9cd88cf8ad10232537feb2133f08c833>@@@Z 004437df f i libucrt:commit.obj
 0001:00042877       ??$__acrt_lowio_lock_fh_and_call@V<lambda_6978c1fb23f02e42e1d9e99668cc68aa>@@@@YAHH$$QAV<lambda_6978c1fb23f02e42e1d9e99668cc68aa>@@@Z 00443877 f i libucrt:commit.obj
 0001:0004289f       __commit                   0044389f f   libucrt:commit.obj
 0001:00042e9e       __write                    00443e9e f   libucrt:write.obj
 0001:00042f89       __write_nolock             00443f89 f   libucrt:write.obj
 0001:00043195       ___acrt_stdio_allocate_buffer_nolock 00444195 f   libucrt:_getbuf.obj
 0001:00043495       __getfpcontrolword         00444495 f   libucrt:_fenvutils.obj
 0001:000434d8       __getfpstatusword          004444d8 f   libucrt:_fenvutils.obj
 0001:00043580       __setfpcontrolword         00444580 f   libucrt:_fenvutils.obj
 0001:00043600       __setfpstatusword          00444600 f   libucrt:_fenvutils.obj
 0001:00043680       ___strncnt                 00444680 f   libucrt:strncnt.obj
 0001:00043758       ___acrt_DownlevelLocaleNameToLCID 00444758 f   libucrt:lcidtoname_downlevel.obj
 0001:00043870       _qsort                     00444870 f   libucrt:qsort.obj
 0001:00043c10       _strpbrk                   00444c10 f   libucrt:strpbrk.obj
 0001:00043c5f       ___set_fpsr_sse2           00444c5f f   libucrt:fpctrl.obj
 0001:00043cd5       __clrfp                    00444cd5 f   libucrt:fpctrl.obj
 0001:00043ce8       __ctrlfp                   00444ce8 f   libucrt:fpctrl.obj
 0001:00043d14       __set_statfp               00444d14 f   libucrt:fpctrl.obj
 0001:00043d6f       __statfp                   00444d6f f   libucrt:fpctrl.obj
 0001:00043d81       _fegetenv                  00444d81 f   libucrt:fegetenv.obj
 0001:00043d9e       _fesetenv                  00444d9e f   libucrt:fesetenv.obj
 0001:00043de7       _feholdexcept              00444de7 f   libucrt:feholdexcept.obj
 0001:00043e40       _log10                     00444e40 f   libucrt:log10.obj
 0001:00043e80       __CIlog10                  00444e80 f   libucrt:log10.obj
 0001:00043ebb       __CIlog10_default          00444ebb f   libucrt:log10.obj
 0001:00043ecf       __log10_default            00444ecf     libucrt:log10.obj
 0001:00043f90       _ceil                      00444f90 f   libucrt:ceil_pentium4.obj
 0001:00043fd0       __ceil_pentium4            00444fd0 f   libucrt:ceil_pentium4.obj
 0001:000440ad       __chsize_nolock            004450ad f   libucrt:chsize.obj
 0001:0004423e       __putwch_nolock            0044523e f   libucrt:putwch.obj
 0001:00044283       ___acrt_initialize_sse2    00445283 f   libucrt:mathfcns.obj
 0001:000442a0       __CIlog10_pentium4         004452a0 f   libucrt:log10_pentium4.obj
 0001:000442b8       __log10_pentium4           004452b8     libucrt:log10_pentium4.obj
 0001:00044541       __fFEXP                    00445541     libucrt:87tran.obj
 0001:00044598       __rtinfpopse               00445598     libucrt:87tran.obj
 0001:0004459a       __rtinfnpopse              0044559a     libucrt:87tran.obj
 0001:000445aa       __fFLN                     004455aa     libucrt:87tran.obj
 0001:0004465f       __rtinfpop                 0044565f     libucrt:87tran.obj
 0001:00044661       __rtinfnpop                00445661     libucrt:87tran.obj
 0001:0004467e       __ffexpm1                  0044567e     libucrt:87tran.obj
 0001:00044730       __trandisp1                00445730 f   libucrt:87disp.obj
 0001:00044797       __trandisp2                00445797 f   libucrt:87disp.obj
 0001:00044823       __rttospopde               00445823     libucrt:87disp.obj
 0001:00044828       __rttospop                 00445828     libucrt:87disp.obj
 0001:0004482a       __rtnospop                 0044582a     libucrt:87disp.obj
 0001:0004482c       __rttosnpop                0044582c     libucrt:87disp.obj
 0001:0004482d       __rtnospopde               0044582d     libucrt:87disp.obj
 0001:00044834       __rtzeropop                00445834     libucrt:87disp.obj
 0001:00044836       __rtzeronpop               00445836     libucrt:87disp.obj
 0001:0004483b       __rtzerospop               0044583b     libucrt:87disp.obj
 0001:00044848       __rtonepop                 00445848     libucrt:87disp.obj
 0001:0004484a       __rtonenpop                0044584a     libucrt:87disp.obj
 0001:0004484f       __tosnan1                  0044584f     libucrt:87disp.obj
 0001:0004487a       __nosnan2                  0044587a     libucrt:87disp.obj
 0001:0004487c       __tosnan2                  0044587c     libucrt:87disp.obj
 0001:000448a4       __nan2                     004458a4     libucrt:87disp.obj
 0001:000448e3       __rtindfpop                004458e3     libucrt:87disp.obj
 0001:000448e5       __rtindfnpop               004458e5     libucrt:87disp.obj
 0001:000448f6       __rttosnpopde              004458f6     libucrt:87disp.obj
 0001:00044900       __rtatan2inf               00445900     libucrt:87disp.obj
 0001:0004491d       __rtchsifneg               0044591d     libucrt:87disp.obj
 0001:00044930       __twoToTOS                 00445930 f   libucrt:common.obj
 0001:00044945       __load_CW                  00445945 f   libucrt:common.obj
 0001:0004495c       __convertTOStoQNaN         0044595c f   libucrt:common.obj
 0001:00044975       __fload_withFB             00445975 f   libucrt:common.obj
 0001:000449b8       __checkTOS_withFB          004459b8 f   libucrt:common.obj
 0001:000449ce       __fast_exit                004459ce f   libucrt:common.obj
 0001:000449db       __math_exit                004459db f   libucrt:common.obj
 0001:00044a05       __check_overflow_exit      00445a05 f   libucrt:common.obj
 0001:00044a19       __check_range_exit         00445a19 f   libucrt:common.obj
 0001:00044ac0       __startTwoArgErrorHandling 00445ac0 f   libucrt:genexcep.obj
 0001:00044ad7       __startOneArgErrorHandling 00445ad7 f   libucrt:genexcep.obj
 0001:00044b13       ___libm_error_support      00445b13 f   libucrt:libm_error.obj
 0001:00044d2b       __ceil_default             00445d2b f   libucrt:ceil.obj
 0001:00044de4       ___dcrt_lowio_initialize_console_output 00445de4 f   libucrt:initcon.obj
 0001:00044e03       ___dcrt_terminate_console_output 00445e03 f   libucrt:initcon.obj
 0001:00044e1a       __d_inttype                00445e1a f   libucrt:powhlp.obj
 0001:00044e84       __powhlp                   00445e84 f   libucrt:powhlp.obj
 0001:00044faf       __87except                 00445faf f   libucrt:87except.obj
 0001:000450ba       __frnd                     004460ba f   libucrt:frnd.obj
 0001:000450d0       __errcode                  004460d0 f   libucrt:fpexcept.obj
 0001:00045104       __except1                  00446104 f   libucrt:fpexcept.obj
 0001:000451d2       __handle_exc               004461d2 f   libucrt:fpexcept.obj
 0001:000453b2       __raise_exc                004463b2 f   libucrt:fpexcept.obj
 0001:000453d5       __raise_exc_ex             004463d5 f   libucrt:fpexcept.obj
 0001:000456c6       __set_errno_from_matherr   004466c6 f   libucrt:fpexcept.obj
 0001:000456f5       __umatherr                 004466f5 f   libucrt:fpexcept.obj
 0001:00045797       __decomp                   00446797 f   libucrt:util.obj
 0001:0004586b       __set_exp                  0044686b f   libucrt:util.obj
 0001:0004589a       __sptype                   0044689a f   libucrt:util.obj
 0001:000458f8       __fpclass                  004468f8 f   libucrt:ieeemisc.obj
 0001:0004599c       _IsProcessorFeaturePresent@4 0044699c f   kernel32:KERNEL32.dll
 0001:000459a2       _RtlUnwind@16              004469a2 f   kernel32:KERNEL32.dll
 0001:000459a8       __EH_prolog3_catch         004469a8 f   LIBCMT:ehprolg3.obj
 0001:000459e0       __FindPESection            004469e0 f   LIBCMT:pesect.obj
 0001:00045a30       __IsNonwritableInCurrentImage 00446a30 f   LIBCMT:pesect.obj
 0001:00045af0       __ValidateImageBase        00446af0 f   LIBCMT:pesect.obj
 0001:00045b30       __aulldvrm                 00446b30 f   LIBCMT:ulldvrm.obj
 0001:00045bd0       __allmul                   00446bd0 f   LIBCMT:llmul.obj
 0001:00045c10       __alldiv                   00446c10 f   LIBCMT:lldiv.obj
 0001:00045cc0       __chkstk                   00446cc0 f   LIBCMT:chkstk.obj
 0001:00045cc0       __alloca_probe             00446cc0 f   LIBCMT:chkstk.obj
 0001:00045cf0       __allshl                   00446cf0 f   LIBCMT:llshl.obj
 0001:00045d10       __SEH_prolog4_GS           00446d10 f   LIBCMT:_sehprolg4gs_.obj
 0001:00045d59       __SEH_epilog4_GS           00446d59 f   LIBCMT:_sehprolg4gs_.obj
 0001:00045d70       __alldvrm                  00446d70 f   LIBCMT:lldvrm.obj
 0001:00045e50       __alloca_probe_16          00446e50 f   LIBCMT:alloca16.obj
 0001:00045e66       __alloca_probe_8           00446e66     LIBCMT:alloca16.obj
 0001:00045e80       __ftol2_sse                00446e80 f   LIBCMT:_ftol2_.obj
 0001:00045e89       __ftol2_pentium4           00446e89 f   LIBCMT:_ftol2_.obj
 0001:00045e9c       __ftol2_sse_excpt          00446e9c f   LIBCMT:_ftol2_.obj
 0001:00045ec0       __ftol2                    00446ec0 f   LIBCMT:_ftol2_.obj
 0002:00000000       __imp__RegEnumKeyExW@32    00449000     advapi32:ADVAPI32.dll
 0002:00000004       __imp__RegOpenKeyExW@20    00449004     advapi32:ADVAPI32.dll
 0002:00000008       __imp__RegDeleteValueW@8   00449008     advapi32:ADVAPI32.dll
 0002:0000000c       __imp__RegCreateKeyExW@36  0044900c     advapi32:ADVAPI32.dll
 0002:00000010       __imp__RegDeleteKeyW@8     00449010     advapi32:ADVAPI32.dll
 0002:00000014       __imp__RegQueryInfoKeyW@48 00449014     advapi32:ADVAPI32.dll
 0002:00000018       __imp__RegCloseKey@4       00449018     advapi32:ADVAPI32.dll
 0002:0000001c       __imp__OpenProcessToken@12 0044901c     advapi32:ADVAPI32.dll
 0002:00000020       __imp__AdjustTokenPrivileges@24 00449020     advapi32:ADVAPI32.dll
 0002:00000024       __imp__LookupPrivilegeValueW@12 00449024     advapi32:ADVAPI32.dll
 0002:00000028       __imp__RegSetValueExW@24   00449028     advapi32:ADVAPI32.dll
 0002:0000002c       \177ADVAPI32_NULL_THUNK_DATA 0044902c     advapi32:ADVAPI32.dll
 0002:00000030       __imp__InitCommonControlsEx@4 00449030     comctl32:COMCTL32.dll
 0002:00000034       __imp__ImageList_ReplaceIcon@12 00449034     comctl32:COMCTL32.dll
 0002:00000038       __imp__ImageList_Create@20 00449038     comctl32:COMCTL32.dll
 0002:0000003c       __imp__ImageList_Destroy@4 0044903c     comctl32:COMCTL32.dll
 0002:00000040       \177COMCTL32_NULL_THUNK_DATA 00449040     comctl32:COMCTL32.dll
 0002:00000044       __imp__GetSaveFileNameW@4  00449044     comdlg32:COMDLG32.dll
 0002:00000048       __imp__GetOpenFileNameW@4  00449048     comdlg32:COMDLG32.dll
 0002:0000004c       \177COMDLG32_NULL_THUNK_DATA 0044904c     comdlg32:COMDLG32.dll
 0002:00000050       __imp__SelectObject@8      00449050     gdi32:GDI32.dll
 0002:00000054       __imp__PatBlt@24           00449054     gdi32:GDI32.dll
 0002:00000058       __imp__GetClipBox@8        00449058     gdi32:GDI32.dll
 0002:0000005c       __imp__CreateRectRgnIndirect@4 0044905c     gdi32:GDI32.dll
 0002:00000060       __imp__CreatePatternBrush@4 00449060     gdi32:GDI32.dll
 0002:00000064       __imp__CreateRectRgn@16    00449064     gdi32:GDI32.dll
 0002:00000068       __imp__SelectClipRgn@8     00449068     gdi32:GDI32.dll
 0002:0000006c       __imp__CreateBitmap@20     0044906c     gdi32:GDI32.dll
 0002:00000070       __imp__CombineRgn@16       00449070     gdi32:GDI32.dll
 0002:00000074       __imp__GetDeviceCaps@8     00449074     gdi32:GDI32.dll
 0002:00000078       __imp__GetObjectW@12       00449078     gdi32:GDI32.dll
 0002:0000007c       __imp__DeleteObject@4      0044907c     gdi32:GDI32.dll
 0002:00000080       __imp__CreateFontIndirectW@4 00449080     gdi32:GDI32.dll
 0002:00000084       \177GDI32_NULL_THUNK_DATA  00449084     gdi32:GDI32.dll
 0002:00000088       __imp__LoadLibraryW@4      00449088     kernel32:KERNEL32.dll
 0002:0000008c       __imp__VirtualAllocEx@20   0044908c     kernel32:KERNEL32.dll
 0002:00000090       __imp__FreeLibrary@4       00449090     kernel32:KERNEL32.dll
 0002:00000094       __imp__CreateRemoteThread@28 00449094     kernel32:KERNEL32.dll
 0002:00000098       __imp__VirtualFreeEx@16    00449098     kernel32:KERNEL32.dll
 0002:0000009c       __imp__CreateFileMappingW@24 0044909c     kernel32:KERNEL32.dll
 0002:000000a0       __imp__MapViewOfFile@20    004490a0     kernel32:KERNEL32.dll
 0002:000000a4       __imp__K32GetMappedFileNameW@16 004490a4     kernel32:KERNEL32.dll
 0002:000000a8       __imp__MultiByteToWideChar@24 004490a8     kernel32:KERNEL32.dll
 0002:000000ac       __imp__SizeofResource@8    004490ac     kernel32:KERNEL32.dll
 0002:000000b0       __imp__SetLastError@4      004490b0     kernel32:KERNEL32.dll
 0002:000000b4       __imp__EnterCriticalSection@4 004490b4     kernel32:KERNEL32.dll
 0002:000000b8       __imp__GetCurrentProcess@0 004490b8     kernel32:KERNEL32.dll
 0002:000000bc       __imp__LeaveCriticalSection@4 004490bc     kernel32:KERNEL32.dll
 0002:000000c0       __imp__GetCurrentThreadId@0 004490c0     kernel32:KERNEL32.dll
 0002:000000c4       __imp__GetVersion@0        004490c4     kernel32:KERNEL32.dll
 0002:000000c8       __imp__LoadResource@8      004490c8     kernel32:KERNEL32.dll
 0002:000000cc       __imp__FindResourceW@12    004490cc     kernel32:KERNEL32.dll
 0002:000000d0       __imp__lstrcmpiW@8         004490d0     kernel32:KERNEL32.dll
 0002:000000d4       __imp__LoadLibraryExW@12   004490d4     kernel32:KERNEL32.dll
 0002:000000d8       __imp__SetUnhandledExceptionFilter@4 004490d8     kernel32:KERNEL32.dll
 0002:000000dc       __imp__CreateFileW@28      004490dc     kernel32:KERNEL32.dll
 0002:000000e0       __imp__ReadFile@20         004490e0     kernel32:KERNEL32.dll
 0002:000000e4       __imp__SetFilePointer@16   004490e4     kernel32:KERNEL32.dll
 0002:000000e8       __imp__SetEndOfFile@4      004490e8     kernel32:KERNEL32.dll
 0002:000000ec       __imp__FindFirstFileW@8    004490ec     kernel32:KERNEL32.dll
 0002:000000f0       __imp__FindNextFileW@8     004490f0     kernel32:KERNEL32.dll
 0002:000000f4       __imp__FindClose@4         004490f4     kernel32:KERNEL32.dll
 0002:000000f8       __imp__GetFileAttributesW@4 004490f8     kernel32:KERNEL32.dll
 0002:000000fc       __imp__GetFileSizeEx@8     004490fc     kernel32:KERNEL32.dll
 0002:00000100       __imp__WriteFile@20        00449100     kernel32:KERNEL32.dll
 0002:00000104       __imp__VirtualProtectEx@20 00449104     kernel32:KERNEL32.dll
 0002:00000108       __imp__ReadProcessMemory@20 00449108     kernel32:KERNEL32.dll
 0002:0000010c       __imp__CopyFileW@12        0044910c     kernel32:KERNEL32.dll
 0002:00000110       __imp__K32EnumProcessModules@16 00449110     kernel32:KERNEL32.dll
 0002:00000114       __imp__K32GetProcessImageFileNameW@12 00449114     kernel32:KERNEL32.dll
 0002:00000118       __imp__WideCharToMultiByte@32 00449118     kernel32:KERNEL32.dll
 0002:0000011c       __imp__GetVersionExW@4     0044911c     kernel32:KERNEL32.dll
 0002:00000120       __imp__GetSystemInfo@4     00449120     kernel32:KERNEL32.dll
 0002:00000124       __imp__GetConsoleCP@0      00449124     kernel32:KERNEL32.dll
 0002:00000128       __imp__FlushFileBuffers@4  00449128     kernel32:KERNEL32.dll
 0002:0000012c       __imp__SetStdHandle@8      0044912c     kernel32:KERNEL32.dll
 0002:00000130       __imp__FreeEnvironmentStringsW@4 00449130     kernel32:KERNEL32.dll
 0002:00000134       __imp__GetEnvironmentStringsW@0 00449134     kernel32:KERNEL32.dll
 0002:00000138       __imp__LoadLibraryA@4      00449138     kernel32:KERNEL32.dll
 0002:0000013c       __imp__GetCommandLineA@0   0044913c     kernel32:KERNEL32.dll
 0002:00000140       __imp__GetCPInfo@8         00449140     kernel32:KERNEL32.dll
 0002:00000144       __imp__GetOEMCP@0          00449144     kernel32:KERNEL32.dll
 0002:00000148       __imp__WritePrivateProfileStringW@16 00449148     kernel32:KERNEL32.dll
 0002:0000014c       __imp__FindFirstFileExW@24 0044914c     kernel32:KERNEL32.dll
 0002:00000150       __imp__CloseHandle@4       00449150     kernel32:KERNEL32.dll
 0002:00000154       __imp__LCMapStringW@24     00449154     kernel32:KERNEL32.dll
 0002:00000158       __imp__ReadConsoleW@20     00449158     kernel32:KERNEL32.dll
 0002:0000015c       __imp__GetConsoleMode@8    0044915c     kernel32:KERNEL32.dll
 0002:00000160       __imp__SetFilePointerEx@20 00449160     kernel32:KERNEL32.dll
 0002:00000164       __imp__GetFileType@4       00449164     kernel32:KERNEL32.dll
 0002:00000168       __imp__GetStringTypeW@16   00449168     kernel32:KERNEL32.dll
 0002:0000016c       __imp__GetACP@0            0044916c     kernel32:KERNEL32.dll
 0002:00000170       __imp__GetStdHandle@4      00449170     kernel32:KERNEL32.dll
 0002:00000174       __imp__GetModuleHandleExW@12 00449174     kernel32:KERNEL32.dll
 0002:00000178       __imp__ExitProcess@4       00449178     kernel32:KERNEL32.dll
 0002:0000017c       __imp__RtlUnwind@16        0044917c     kernel32:KERNEL32.dll
 0002:00000180       __imp__TlsFree@4           00449180     kernel32:KERNEL32.dll
 0002:00000184       __imp__TlsSetValue@8       00449184     kernel32:KERNEL32.dll
 0002:00000188       __imp__TlsGetValue@4       00449188     kernel32:KERNEL32.dll
 0002:0000018c       __imp__TlsAlloc@0          0044918c     kernel32:KERNEL32.dll
 0002:00000190       __imp__InitializeCriticalSectionAndSpinCount@8 00449190     kernel32:KERNEL32.dll
 0002:00000194       __imp__GetSystemTimeAsFileTime@4 00449194     kernel32:KERNEL32.dll
 0002:00000198       __imp__GetCurrentProcessId@0 00449198     kernel32:KERNEL32.dll
 0002:0000019c       __imp__QueryPerformanceCounter@4 0044919c     kernel32:KERNEL32.dll
 0002:000001a0       __imp__GetStartupInfoW@4   004491a0     kernel32:KERNEL32.dll
 0002:000001a4       __imp__TerminateProcess@8  004491a4     kernel32:KERNEL32.dll
 0002:000001a8       __imp__UnhandledExceptionFilter@4 004491a8     kernel32:KERNEL32.dll
 0002:000001ac       __imp__CreateEventW@16     004491ac     kernel32:KERNEL32.dll
 0002:000001b0       __imp__WaitForSingleObjectEx@12 004491b0     kernel32:KERNEL32.dll
 0002:000001b4       __imp__ResetEvent@4        004491b4     kernel32:KERNEL32.dll
 0002:000001b8       __imp__SetEvent@4          004491b8     kernel32:KERNEL32.dll
 0002:000001bc       __imp__LoadLibraryExA@12   004491bc     kernel32:KERNEL32.dll
 0002:000001c0       __imp__VirtualFree@12      004491c0     kernel32:KERNEL32.dll
 0002:000001c4       __imp__VirtualAlloc@16     004491c4     kernel32:KERNEL32.dll
 0002:000001c8       __imp__IsProcessorFeaturePresent@4 004491c8     kernel32:KERNEL32.dll
 0002:000001cc       __imp__FlushInstructionCache@12 004491cc     kernel32:KERNEL32.dll
 0002:000001d0       __imp__WriteConsoleW@20    004491d0     kernel32:KERNEL32.dll
 0002:000001d4       __imp__InterlockedPushEntrySList@8 004491d4     kernel32:KERNEL32.dll
 0002:000001d8       __imp__InterlockedPopEntrySList@4 004491d8     kernel32:KERNEL32.dll
 0002:000001dc       __imp__InitializeSListHead@4 004491dc     kernel32:KERNEL32.dll
 0002:000001e0       __imp__EncodePointer@4     004491e0     kernel32:KERNEL32.dll
 0002:000001e4       __imp__OutputDebugStringW@4 004491e4     kernel32:KERNEL32.dll
 0002:000001e8       __imp__IsDebuggerPresent@0 004491e8     kernel32:KERNEL32.dll
 0002:000001ec       __imp__VirtualQueryEx@16   004491ec     kernel32:KERNEL32.dll
 0002:000001f0       __imp__GetModuleHandleW@4  004491f0     kernel32:KERNEL32.dll
 0002:000001f4       __imp__GetProcessHeap@0    004491f4     kernel32:KERNEL32.dll
 0002:000001f8       __imp__GetProcAddress@8    004491f8     kernel32:KERNEL32.dll
 0002:000001fc       __imp__HeapSize@12         004491fc     kernel32:KERNEL32.dll
 0002:00000200       __imp__GetModuleHandleA@4  00449200     kernel32:KERNEL32.dll
 0002:00000204       __imp__UnmapViewOfFile@4   00449204     kernel32:KERNEL32.dll
 0002:00000208       __imp__HeapFree@12         00449208     kernel32:KERNEL32.dll
 0002:0000020c       __imp__VerifyVersionInfoW@16 0044920c     kernel32:KERNEL32.dll
 0002:00000210       __imp__VerSetConditionMask@16 00449210     kernel32:KERNEL32.dll
 0002:00000214       __imp__DeleteCriticalSection@4 00449214     kernel32:KERNEL32.dll
 0002:00000218       __imp__DecodePointer@4     00449218     kernel32:KERNEL32.dll
 0002:0000021c       __imp__GetExitCodeThread@8 0044921c     kernel32:KERNEL32.dll
 0002:00000220       __imp__ResumeThread@4      00449220     kernel32:KERNEL32.dll
 0002:00000224       __imp__WaitForSingleObject@8 00449224     kernel32:KERNEL32.dll
 0002:00000228       __imp__SetThreadPriority@8 00449228     kernel32:KERNEL32.dll
 0002:0000022c       __imp__WriteProcessMemory@20 0044922c     kernel32:KERNEL32.dll
 0002:00000230       __imp__MulDiv@12           00449230     kernel32:KERNEL32.dll
 0002:00000234       __imp__GlobalUnlock@4      00449234     kernel32:KERNEL32.dll
 0002:00000238       __imp__GlobalLock@4        00449238     kernel32:KERNEL32.dll
 0002:0000023c       __imp__GlobalFree@4        0044923c     kernel32:KERNEL32.dll
 0002:00000240       __imp__GlobalAlloc@8       00449240     kernel32:KERNEL32.dll
 0002:00000244       __imp__K32GetModuleFileNameExW@16 00449244     kernel32:KERNEL32.dll
 0002:00000248       __imp__QueryDosDeviceW@12  00449248     kernel32:KERNEL32.dll
 0002:0000024c       __imp__GetPrivateProfileStringW@24 0044924c     kernel32:KERNEL32.dll
 0002:00000250       __imp__GetModuleFileNameW@12 00449250     kernel32:KERNEL32.dll
 0002:00000254       __imp__GetPrivateProfileIntW@16 00449254     kernel32:KERNEL32.dll
 0002:00000258       __imp__HeapAlloc@12        00449258     kernel32:KERNEL32.dll
 0002:0000025c       __imp__IsValidCodePage@4   0044925c     kernel32:KERNEL32.dll
 0002:00000260       __imp__HeapReAlloc@16      00449260     kernel32:KERNEL32.dll
 0002:00000264       __imp__RaiseException@16   00449264     kernel32:KERNEL32.dll
 0002:00000268       __imp__GetLastError@0      00449268     kernel32:KERNEL32.dll
 0002:0000026c       __imp__GetCommandLineW@0   0044926c     kernel32:KERNEL32.dll
 0002:00000270       __imp__InitializeCriticalSectionEx@12 00449270     kernel32:KERNEL32.dll
 0002:00000274       \177KERNEL32_NULL_THUNK_DATA 00449274     kernel32:KERNEL32.dll
 0002:00000278       __imp__VarUI4FromStr@16    00449278     oleaut32:OLEAUT32.dll
 0002:0000027c       \177OLEAUT32_NULL_THUNK_DATA 0044927c     oleaut32:OLEAUT32.dll
 0002:00000280       __imp__ShellExecuteW@24    00449280     shell32:SHELL32.dll
 0002:00000284       \177SHELL32_NULL_THUNK_DATA 00449284     shell32:SHELL32.dll
 0002:00000288       __imp__PathAppendW@8       00449288     shlwapi:SHLWAPI.dll
 0002:0000028c       __imp__PathRemoveFileSpecW@4 0044928c     shlwapi:SHLWAPI.dll
 0002:00000290       \177SHLWAPI_NULL_THUNK_DATA 00449290     shlwapi:SHLWAPI.dll
 0002:00000294       __imp__InflateRect@12      00449294     user32:USER32.dll
 0002:00000298       __imp__GetMenu@4           00449298     user32:USER32.dll
 0002:0000029c       __imp__GetParent@4         0044929c     user32:USER32.dll
 0002:000002a0       __imp__GetMessagePos@0     004492a0     user32:USER32.dll
 0002:000002a4       __imp__GetClientRect@8     004492a4     user32:USER32.dll
 0002:000002a8       __imp__MapWindowPoints@16  004492a8     user32:USER32.dll
 0002:000002ac       __imp__GetMonitorInfoW@8   004492ac     user32:USER32.dll
 0002:000002b0       __imp__SetWindowTextW@8    004492b0     user32:USER32.dll
 0002:000002b4       __imp__UnregisterClassW@8  004492b4     user32:USER32.dll
 0002:000002b8       __imp__GetKeyState@4       004492b8     user32:USER32.dll
 0002:000002bc       __imp__AdjustWindowRectEx@16 004492bc     user32:USER32.dll
 0002:000002c0       __imp__GetWindowTextLengthW@4 004492c0     user32:USER32.dll
 0002:000002c4       __imp__SetDlgItemTextW@12  004492c4     user32:USER32.dll
 0002:000002c8       __imp__GetDlgItem@8        004492c8     user32:USER32.dll
 0002:000002cc       __imp__ScreenToClient@8    004492cc     user32:USER32.dll
 0002:000002d0       __imp__CreatePopupMenu@0   004492d0     user32:USER32.dll
 0002:000002d4       __imp__LoadAcceleratorsW@8 004492d4     user32:USER32.dll
 0002:000002d8       __imp__GetActiveWindow@0   004492d8     user32:USER32.dll
 0002:000002dc       __imp__IsDialogMessageW@8  004492dc     user32:USER32.dll
 0002:000002e0       __imp__EndDialog@8         004492e0     user32:USER32.dll
 0002:000002e4       __imp__SendMessageW@16     004492e4     user32:USER32.dll
 0002:000002e8       __imp__GetSysColor@4       004492e8     user32:USER32.dll
 0002:000002ec       __imp__IntersectRect@12    004492ec     user32:USER32.dll
 0002:000002f0       __imp__TranslateAcceleratorW@12 004492f0     user32:USER32.dll
 0002:000002f4       __imp__LoadIconW@8         004492f4     user32:USER32.dll
 0002:000002f8       __imp__DragDetect@12       004492f8     user32:USER32.dll
 0002:000002fc       __imp__SetCapture@4        004492fc     user32:USER32.dll
 0002:00000300       __imp__PostQuitMessage@4   00449300     user32:USER32.dll
 0002:00000304       __imp__EnableMenuItem@12   00449304     user32:USER32.dll
 0002:00000308       __imp__DialogBoxParamW@20  00449308     user32:USER32.dll
 0002:0000030c       __imp__ReleaseCapture@0    0044930c     user32:USER32.dll
 0002:00000310       __imp__ReleaseDC@8         00449310     user32:USER32.dll
 0002:00000314       __imp__EnableWindow@8      00449314     user32:USER32.dll
 0002:00000318       __imp__GetMessageW@16      00449318     user32:USER32.dll
 0002:0000031c       __imp__CreateDialogParamW@20 0044931c     user32:USER32.dll
 0002:00000320       __imp__DispatchMessageW@4  00449320     user32:USER32.dll
 0002:00000324       __imp__DestroyAcceleratorTable@4 00449324     user32:USER32.dll
 0002:00000328       __imp__PeekMessageW@20     00449328     user32:USER32.dll
 0002:0000032c       __imp__CharNextW@4         0044932c     user32:USER32.dll
 0002:00000330       __imp__TranslateMessage@4  00449330     user32:USER32.dll
 0002:00000334       __imp__UpdateWindow@4      00449334     user32:USER32.dll
 0002:00000338       __imp__GetDC@4             00449338     user32:USER32.dll
 0002:0000033c       __imp__DestroyIcon@4       0044933c     user32:USER32.dll
 0002:00000340       __imp__GetDesktopWindow@0  00449340     user32:USER32.dll
 0002:00000344       __imp__LoadImageW@24       00449344     user32:USER32.dll
 0002:00000348       __imp__SetFocus@4          00449348     user32:USER32.dll
 0002:0000034c       __imp__DefWindowProcW@16   0044934c     user32:USER32.dll
 0002:00000350       __imp__LoadMenuW@8         00449350     user32:USER32.dll
 0002:00000354       __imp__CallWindowProcW@20  00449354     user32:USER32.dll
 0002:00000358       __imp__MonitorFromPoint@12 00449358     user32:USER32.dll
 0002:0000035c       __imp__IsWindowVisible@4   0044935c     user32:USER32.dll
 0002:00000360       __imp__MessageBoxW@16      00449360     user32:USER32.dll
 0002:00000364       __imp__MessageBeep@4       00449364     user32:USER32.dll
 0002:00000368       __imp__TrackPopupMenu@28   00449368     user32:USER32.dll
 0002:0000036c       __imp__GetSubMenu@8        0044936c     user32:USER32.dll
 0002:00000370       __imp__ShowWindow@8        00449370     user32:USER32.dll
 0002:00000374       __imp__IsWindow@4          00449374     user32:USER32.dll
 0002:00000378       __imp__OpenClipboard@4     00449378     user32:USER32.dll
 0002:0000037c       __imp__RedrawWindow@16     0044937c     user32:USER32.dll
 0002:00000380       __imp__GetDlgCtrlID@4      00449380     user32:USER32.dll
 0002:00000384       __imp__ClientToScreen@8    00449384     user32:USER32.dll
 0002:00000388       __imp__CloseClipboard@0    00449388     user32:USER32.dll
 0002:0000038c       __imp__EmptyClipboard@0    0044938c     user32:USER32.dll
 0002:00000390       __imp__DestroyMenu@4       00449390     user32:USER32.dll
 0002:00000394       __imp__GetClipboardData@4  00449394     user32:USER32.dll
 0002:00000398       __imp__SetClipboardData@8  00449398     user32:USER32.dll
 0002:0000039c       __imp__SetWindowLongW@12   0044939c     user32:USER32.dll
 0002:000003a0       __imp__IsClipboardFormatAvailable@4 004493a0     user32:USER32.dll
 0002:000003a4       __imp__InvalidateRect@12   004493a4     user32:USER32.dll
 0002:000003a8       __imp__GetWindowTextW@12   004493a8     user32:USER32.dll
 0002:000003ac       __imp__GetWindowLongW@8    004493ac     user32:USER32.dll
 0002:000003b0       __imp__GetWindow@8         004493b0     user32:USER32.dll
 0002:000003b4       __imp__GetWindowRect@8     004493b4     user32:USER32.dll
 0002:000003b8       __imp__DestroyWindow@4     004493b8     user32:USER32.dll
 0002:000003bc       __imp__SetWindowPos@28     004493bc     user32:USER32.dll
 0002:000003c0       __imp__MonitorFromWindow@8 004493c0     user32:USER32.dll
 0002:000003c4       __imp__CreateWindowExW@48  004493c4     user32:USER32.dll
 0002:000003c8       __imp__AppendMenuW@16      004493c8     user32:USER32.dll
 0002:000003cc       \177USER32_NULL_THUNK_DATA 004493cc     user32:USER32.dll
 0002:000003d0       __imp__CheckSumMappedFile@16 004493d0     Imagehlp:imagehlp.dll
 0002:000003d4       \177imagehlp_NULL_THUNK_DATA 004493d4     Imagehlp:imagehlp.dll
 0002:000003d8       __imp__CoTaskMemFree@4     004493d8     ole32:ole32.dll
 0002:000003dc       __imp__CoUninitialize@0    004493dc     ole32:ole32.dll
 0002:000003e0       __imp__CoTaskMemAlloc@4    004493e0     ole32:ole32.dll
 0002:000003e4       __imp__CoInitialize@4      004493e4     ole32:ole32.dll
 0002:000003e8       __imp__CoCreateInstance@20 004493e8     ole32:ole32.dll
 0002:000003ec       __imp__CoTaskMemRealloc@8  004493ec     ole32:ole32.dll
 0002:000003f0       \177ole32_NULL_THUNK_DATA  004493f0     ole32:ole32.dll
 0002:000003f4       ___guard_check_icall_fptr  004493f4     LIBCMT:guard_support.obj
 0002:000003f8       ___xc_a                    004493f8     LIBCMT:initializers.obj
 0002:00000430       ___xc_z                    00449430     LIBCMT:initializers.obj
 0002:00000434       ___xi_a                    00449434     LIBCMT:initializers.obj
 0002:00000444       ___acrt_stdio_initializer  00449444     libucrt:stdio_initializer.obj
 0002:00000448       ___acrt_multibyte_initializer 00449448     libucrt:multibyte_initializer.obj
 0002:0000044c       ___acrt_tran_sse2_initializer 0044944c     libucrt:sse2_initializer.obj
 0002:00000450       ___xi_z                    00449450     LIBCMT:initializers.obj
 0002:00000454       ___xl_a                    00449454     LIBCMT:tlssup.obj
 0002:00000458       ___xl_z                    00449458     LIBCMT:tlssup.obj
 0002:0000045c       ___xp_a                    0044945c     LIBCMT:initializers.obj
 0002:00000460       ___acrt_locale_terminator  00449460     libucrt:locale_initializer.obj
 0002:00000464       ___dcrt_console_output_terminator 00449464     libucrt:console_output_initializer.obj
 0002:00000468       ___acrt_stdio_terminator   00449468     libucrt:stdio_initializer.obj
 0002:0000046c       ___xp_z                    0044946c     LIBCMT:initializers.obj
 0002:00000470       ___xt_a                    00449470     LIBCMT:initializers.obj
 0002:00000474       ___xt_z                    00449474     LIBCMT:initializers.obj
 0002:00000480       ??_C@_05JOBEKLPN@BYTE?5?$AA@ 00449480     diStorm:distorm.obj
 0002:00000488       ??_C@_05GAGGPBM@WORD?5?$AA@ 00449488     diStorm:distorm.obj
 0002:00000490       ??_C@_06JKOMEAKL@DWORD?5?$AA@ 00449490     diStorm:distorm.obj
 0002:00000498       ??_C@_06KPAKPDMC@QWORD?5?$AA@ 00449498     diStorm:distorm.obj
 0002:000004a0       ??_C@_06GFCABIIE@TBYTE?5?$AA@ 004494a0     diStorm:distorm.obj
 0002:000004a8       ??_C@_07PKJDDPMC@DQWORD?5?$AA@ 004494a8     diStorm:distorm.obj
 0002:000004b0       ??_C@_06JMOFLNKF@YWORD?5?$AA@ 004494b0     diStorm:distorm.obj
 0002:000004b8       ??_C@_03CMFHJCIF@DB?5?$AA@ 004494b8     diStorm:distorm.obj
 0002:000004bc       ??_C@_05IMOOOKID@LOCK?5?$AA@ 004494bc     diStorm:distorm.obj
 0002:000004c4       ??_C@_05KAMKKAPP@REPZ?5?$AA@ 004494c4     diStorm:distorm.obj
 0002:000004cc       ??_C@_04COPMDGFE@REP?5?$AA@ 004494cc     diStorm:distorm.obj
 0002:000004d4       ??_C@_06DODLCMMB@REPNZ?5?$AA@ 004494d4     diStorm:distorm.obj
 0002:000004dc       ??_C@_02KEGNLNML@?0?5?$AA@ 004494dc     diStorm:distorm.obj
 0002:000004e0       ??_C@_07GPPNHKOM@?5?$DLTAKEN?$AA@ 004494e0     diStorm:distorm.obj
 0002:000004e8       ??_C@_0M@KOOLNINB@?5?$DLNOT?5TAKEN?$AA@ 004494e8     diStorm:distorm.obj
 0002:00000500       __xmm@ffffffffffffffffffffffffffffffff 00449500     diStorm:decoder.obj
 0002:00000510       __MNEMONICS                00449510     diStorm:mnemonics.obj
 0002:00002c50       __REGISTERS                0044bc50     diStorm:mnemonics.obj
 0002:000032e0       _CLSID_StdGlobalInterfaceTable 0044c2e0     uuid:cguid_i.obj
 0002:000032f0       _GUID_ATLVer110            0044c2f0     atls:atlbase.obj
 0002:00003300       ??_C@_1IC@ONKHOIDK@?$AAE?$AAR?$AAR?$AAO?$AAR?$AA?5?$AA?3?$AA?5?$AAU?$AAn?$AAa?$AAb?$AAl?$AAe?$AA?5?$AAt?$AAo?$AA?5?$AAi?$AAn?$AAi?$AAt?$AAi?$AAa?$AAl?$AAi?$AAz?$AAe?$AA?5?$AAc?$AAr?$AAi@ 0044c300     atls:atlbase.obj
 0002:00003384       ??_C@_0N@FJEPLCIH@atlthunk?4dll?$AA@ 0044c384     atls:atlthunk.obj
 0002:00003394       ??_C@_0BG@GAKFHCBM@AtlThunk_AllocateData?$AA@ 0044c394     atls:atlthunk.obj
 0002:000033ac       ??_C@_0BC@JKONFIAH@AtlThunk_InitData?$AA@ 0044c3ac     atls:atlthunk.obj
 0002:000033c0       ??_C@_0BE@IAOEELAK@AtlThunk_DataToCode?$AA@ 0044c3c0     atls:atlthunk.obj
 0002:000033d4       ??_C@_0BC@GBGKAIPI@AtlThunk_FreeData?$AA@ 0044c3d4     atls:atlthunk.obj
 0002:000033ec       ??_7exception@std@@6B@     0044c3ec     libcpmt:xthrow.obj
 0002:000033f8       ??_7bad_alloc@std@@6B@     0044c3f8     libcpmt:xthrow.obj
 0002:00003400       ??_C@_0P@GHFPNOJB@bad?5allocation?$AA@ 0044c400     libcpmt:xthrow.obj
 0002:00003414       ??_7logic_error@std@@6B@   0044c414     libcpmt:xthrow.obj
 0002:00003420       ??_7length_error@std@@6B@  0044c420     libcpmt:xthrow.obj
 0002:0000342c       ??_7out_of_range@std@@6B@  0044c42c     libcpmt:xthrow.obj
 0002:00003434       ??_C@_0BM@HLJJNPAH@InitializeConditionVariable?$AA@ 0044c434     LIBCMT:thread_safe_statics.obj
 0002:00003450       ??_C@_0BJ@JEBJOJFJ@SleepConditionVariableCS?$AA@ 0044c450     LIBCMT:thread_safe_statics.obj
 0002:0000346c       ??_C@_0BJ@PGPPEPCC@WakeAllConditionVariable?$AA@ 0044c46c     LIBCMT:thread_safe_statics.obj
 0002:0000348c       ??_7type_info@@6B@         0044c48c     LIBCMT:std_type_info_static.obj
 0002:0000349c       ??_7bad_array_new_length@std@@6B@ 0044c49c     LIBCMT:throw_bad_alloc.obj
 0002:000034a4       ??_C@_0BF@KINCDENJ@bad?5array?5new?5length?$AA@ 0044c4a4     LIBCMT:throw_bad_alloc.obj
 0002:000034bc       __pDestructExceptionObject 0044c4bc     libvcruntime:frame.obj
 0002:000034c4       ??_7bad_exception@std@@6B@ 0044c4c4     libvcruntime:frame.obj
 0002:000034cc       ??_C@_0O@DPKOEFFH@bad?5exception?$AA@ 0044c4cc     libvcruntime:frame.obj
 0002:0000350c       ??_C@_1BC@DNHGCMLG@?$AAa?$AAd?$AAv?$AAa?$AAp?$AAi?$AA3?$AA2?$AA?$AA@ 0044c50c     libvcruntime:winapi_downlevel.obj
 0002:00003520       ??_C@_1DM@KHCHBNEB@?$AAa?$AAp?$AAi?$AA?9?$AAm?$AAs?$AA?9?$AAw?$AAi?$AAn?$AA?9?$AAc?$AAo?$AAr?$AAe?$AA?9?$AAf?$AAi?$AAb?$AAe?$AAr?$AAs?$AA?9?$AAl?$AA1?$AA?9?$AA1?$AA?9?$AA1?$AA?$AA@ 0044c520     libvcruntime:winapi_downlevel.obj
 0002:0000355c       ??_C@_1DK@LPPGFMPP@?$AAa?$AAp?$AAi?$AA?9?$AAm?$AAs?$AA?9?$AAw?$AAi?$AAn?$AA?9?$AAc?$AAo?$AAr?$AAe?$AA?9?$AAs?$AAy?$AAn?$AAc?$AAh?$AA?9?$AAl?$AA1?$AA?9?$AA2?$AA?9?$AA0?$AA?$AA@ 0044c55c     libvcruntime:winapi_downlevel.obj
 0002:00003598       ??_C@_1BC@GDMECMAK@?$AAk?$AAe?$AAr?$AAn?$AAe?$AAl?$AA3?$AA2?$AA?$AA@ 0044c598     libvcruntime:winapi_downlevel.obj
 0002:000035b4       ??_C@_08KNHFBNJ@FlsAlloc?$AA@ 0044c5b4     libvcruntime:winapi_downlevel.obj
 0002:000035c8       ??_C@_07PEJMOBNF@FlsFree?$AA@ 0044c5c8     libvcruntime:winapi_downlevel.obj
 0002:000035d8       ??_C@_0M@GDNOONDI@FlsGetValue?$AA@ 0044c5d8     libvcruntime:winapi_downlevel.obj
 0002:000035ec       ??_C@_0M@JCPCPOEF@FlsSetValue?$AA@ 0044c5ec     libvcruntime:winapi_downlevel.obj
 0002:00003600       ??_C@_0BM@HCFOFFN@InitializeCriticalSectionEx?$AA@ 0044c600     libvcruntime:winapi_downlevel.obj
 0002:000037b0       ??_C@_08EHJDFFNH@__based?$CI?$AA@ 0044c7b0     libvcruntime:undname.obj
 0002:000037bc       ??_C@_07KOLFKCDI@__cdecl?$AA@ 0044c7bc     libvcruntime:undname.obj
 0002:000037c4       ??_C@_08GHMPAG@__pascal?$AA@ 0044c7c4     libvcruntime:undname.obj
 0002:000037d0       ??_C@_09IFJBGAPI@__stdcall?$AA@ 0044c7d0     libvcruntime:undname.obj
 0002:000037dc       ??_C@_0L@NPHFGOKO@__thiscall?$AA@ 0044c7dc     libvcruntime:undname.obj
 0002:000037e8       ??_C@_0L@JMKHOMEK@__fastcall?$AA@ 0044c7e8     libvcruntime:undname.obj
 0002:000037f4       ??_C@_0N@BCKKPABJ@__vectorcall?$AA@ 0044c7f4     libvcruntime:undname.obj
 0002:00003804       ??_C@_09HIJEGCPM@__clrcall?$AA@ 0044c804     libvcruntime:undname.obj
 0002:00003810       ??_C@_06GHPCKEAG@__eabi?$AA@ 0044c810     libvcruntime:undname.obj
 0002:00003818       ??_C@_07JOMMBBKO@__ptr64?$AA@ 0044c818     libvcruntime:undname.obj
 0002:00003820       ??_C@_0L@PILCLIHE@__restrict?$AA@ 0044c820     libvcruntime:undname.obj
 0002:0000382c       ??_C@_0M@GFIIJFMG@__unaligned?$AA@ 0044c82c     libvcruntime:undname.obj
 0002:00003838       ??_C@_09DHDLOLLB@restrict?$CI?$AA@ 0044c838     libvcruntime:undname.obj
 0002:00003844       ??_C@_04NIHEBCM@?5new?$AA@ 0044c844     libvcruntime:undname.obj
 0002:0000384c       ??_C@_07FPCDHGMM@?5delete?$AA@ 0044c84c     libvcruntime:undname.obj
 0002:00003854       ??_C@_01NEMOKFLO@?$DN?$AA@ 0044c854     libvcruntime:undname.obj
 0002:00003858       ??_C@_02GPIOPFAK@?$DO?$DO?$AA@ 0044c858     libvcruntime:undname.obj
 0002:0000385c       ??_C@_02FODMEDOG@?$DM?$DM?$AA@ 0044c85c     libvcruntime:undname.obj
 0002:00003860       ??_C@_01DCLJPIOD@?$CB?$AA@ 0044c860     libvcruntime:undname.obj
 0002:00003864       ??_C@_02EGOFBIJA@?$DN?$DN?$AA@ 0044c864     libvcruntime:undname.obj
 0002:00003868       ??_C@_02FDNJECIE@?$CB?$DN?$AA@ 0044c868     libvcruntime:undname.obj
 0002:0000386c       ??_C@_02GPECMEKF@?$FL?$FN?$AA@ 0044c86c     libvcruntime:undname.obj
 0002:00003870       ??_C@_08LHJFAFGD@operator?$AA@ 0044c870     libvcruntime:undname.obj
 0002:0000387c       ??_C@_02HBOOOICD@?9?$DO?$AA@ 0044c87c     libvcruntime:undname.obj
 0002:00003880       ??_C@_01NBENCBCI@?$CK?$AA@ 0044c880     libvcruntime:undname.obj
 0002:00003884       ??_C@_02ECNGHCIF@?$CL?$CL?$AA@ 0044c884     libvcruntime:undname.obj
 0002:00003888       ??_C@_02BAABKJLB@?9?9?$AA@ 0044c888     libvcruntime:undname.obj
 0002:0000388c       ??_C@_01JOAMLHOP@?9?$AA@   0044c88c     libvcruntime:undname.obj
 0002:00003890       ??_C@_01MIFGBAGJ@?$CL?$AA@ 0044c890     libvcruntime:undname.obj
 0002:00003894       ??_C@_01HNPIGOCE@?$CG?$AA@ 0044c894     libvcruntime:undname.obj
 0002:00003898       ??_C@_03MNHNFDLC@?9?$DO?$CK?$AA@ 0044c898     libvcruntime:undname.obj
 0002:0000389c       ??_C@_01KMDKNFGN@?1?$AA@   0044c89c     libvcruntime:undname.obj
 0002:000038a0       ??_C@_01FGNFDNOH@?$CF?$AA@ 0044c8a0     libvcruntime:undname.obj
 0002:000038a4       ??_C@_02EHCHHCKH@?$DM?$DN?$AA@ 0044c8a4     libvcruntime:undname.obj
 0002:000038a8       ??_C@_02EEKDKGMJ@?$DO?$DN?$AA@ 0044c8a8     libvcruntime:undname.obj
 0002:000038ac       ??_C@_01IHBHIGKO@?0?$AA@   0044c8ac     libvcruntime:undname.obj
 0002:000038b0       ??_C@_02HCKGKOFO@?$CI?$CJ?$AA@ 0044c8b0     libvcruntime:undname.obj
 0002:000038b4       ??_C@_01PJKLJHI@?$HO?$AA@  0044c8b4     libvcruntime:undname.obj
 0002:000038b8       ??_C@_01JKBOJNNK@?$FO?$AA@ 0044c8b8     libvcruntime:undname.obj
 0002:000038bc       ??_C@_01DNKMNLPK@?$HM?$AA@ 0044c8bc     libvcruntime:undname.obj
 0002:000038c0       ??_C@_02PPKAJPJL@?$CG?$CG?$AA@ 0044c8c0     libvcruntime:undname.obj
 0002:000038c4       ??_C@_02NONPIBCD@?$HM?$HM?$AA@ 0044c8c4     libvcruntime:undname.obj
 0002:000038c8       ??_C@_02FPIMKNGF@?$CK?$DN?$AA@ 0044c8c8     libvcruntime:undname.obj
 0002:000038cc       ??_C@_02FOEOMHFC@?$CL?$DN?$AA@ 0044c8cc     libvcruntime:undname.obj
 0002:000038d0       ??_C@_02FKMDLLOA@?9?$DN?$AA@ 0044c8d0     libvcruntime:undname.obj
 0002:000038d4       ??_C@_02FJEHGPIO@?1?$DN?$AA@ 0044c8d4     libvcruntime:undname.obj
 0002:000038d8       ??_C@_02FENAOKFI@?$CF?$DN?$AA@ 0044c8d8     libvcruntime:undname.obj
 0002:000038dc       ??_C@_03IKFCCPFF@?$DO?$DO?$DN?$AA@ 0044c8dc     libvcruntime:undname.obj
 0002:000038e0       ??_C@_03CDNPDDLA@?$DM?$DM?$DN?$AA@ 0044c8e0     libvcruntime:undname.obj
 0002:000038e4       ??_C@_02FGJGFEAB@?$CG?$DN?$AA@ 0044c8e4     libvcruntime:undname.obj
 0002:000038e8       ??_C@_02DHLNPPGH@?$HM?$DN?$AA@ 0044c8e8     libvcruntime:undname.obj
 0002:000038ec       ??_C@_02MHEGNOJ@?$FO?$DN?$AA@ 0044c8ec     libvcruntime:undname.obj
 0002:000038f0       ??_C@_09IFPLHPGF@?$GAvftable?8?$AA@ 0044c8f0     libvcruntime:undname.obj
 0002:000038fc       ??_C@_09BLBHBJP@?$GAvbtable?8?$AA@ 0044c8fc     libvcruntime:undname.obj
 0002:00003908       ??_C@_07FEEIOKP@?$GAvcall?8?$AA@ 0044c908     libvcruntime:undname.obj
 0002:00003910       ??_C@_08LLFFHHDJ@?$GAtypeof?8?$AA@ 0044c910     libvcruntime:undname.obj
 0002:0000391c       ??_C@_0BF@KDPPACIK@?$GAlocal?5static?5guard?8?$AA@ 0044c91c     libvcruntime:undname.obj
 0002:00003934       ??_C@_08OBABFOLI@?$GAstring?8?$AA@ 0044c934     libvcruntime:undname.obj
 0002:00003940       ??_C@_0BD@JDLKDPAB@?$GAvbase?5destructor?8?$AA@ 0044c940     libvcruntime:undname.obj
 0002:00003954       ??_C@_0BN@DEGPLNFK@?$GAvector?5deleting?5destructor?8?$AA@ 0044c954     libvcruntime:undname.obj
 0002:00003974       ??_C@_0BO@OBMKPJIG@?$GAdefault?5constructor?5closure?8?$AA@ 0044c974     libvcruntime:undname.obj
 0002:00003994       ??_C@_0BN@IMDCHIKM@?$GAscalar?5deleting?5destructor?8?$AA@ 0044c994     libvcruntime:undname.obj
 0002:000039b4       ??_C@_0BO@PFGOCPJJ@?$GAvector?5constructor?5iterator?8?$AA@ 0044c9b4     libvcruntime:undname.obj
 0002:000039d4       ??_C@_0BN@LFPFMEDL@?$GAvector?5destructor?5iterator?8?$AA@ 0044c9d4     libvcruntime:undname.obj
 0002:000039f4       ??_C@_0CE@IKBNEHA@?$GAvector?5vbase?5constructor?5iterat@ 0044c9f4     libvcruntime:undname.obj
 0002:00003a18       ??_C@_0BL@NILFHHPC@?$GAvirtual?5displacement?5map?8?$AA@ 0044ca18     libvcruntime:undname.obj
 0002:00003a34       ??_C@_0CB@JONCMFFK@?$GAeh?5vector?5constructor?5iterator?8@ 0044ca34     libvcruntime:undname.obj
 0002:00003a58       ??_C@_0CA@GCEOPDGL@?$GAeh?5vector?5destructor?5iterator?8?$AA@ 0044ca58     libvcruntime:undname.obj
 0002:00003a78       ??_C@_0CH@OOJPLCPH@?$GAeh?5vector?5vbase?5constructor?5ite@ 0044ca78     libvcruntime:undname.obj
 0002:00003aa0       ??_C@_0BL@LLKPOHJI@?$GAcopy?5constructor?5closure?8?$AA@ 0044caa0     libvcruntime:undname.obj
 0002:00003abc       ??_C@_0BA@KBCDOMBN@?$GAudt?5returning?8?$AA@ 0044cabc     libvcruntime:undname.obj
 0002:00003acc       ??_C@_03KLGMFNMG@?$GAEH?$AA@ 0044cacc     libvcruntime:undname.obj
 0002:00003ad0       ??_C@_05KHLCHHI@?$GARTTI?$AA@ 0044cad0     libvcruntime:undname.obj
 0002:00003ad8       ??_C@_0BA@KKLDJDLB@?$GAlocal?5vftable?8?$AA@ 0044cad8     libvcruntime:undname.obj
 0002:00003ae8       ??_C@_0CE@IIHCMGGL@?$GAlocal?5vftable?5constructor?5closu@ 0044cae8     libvcruntime:undname.obj
 0002:00003b0c       ??_C@_06FHBGPFGH@?5new?$FL?$FN?$AA@ 0044cb0c     libvcruntime:undname.obj
 0002:00003b14       ??_C@_09LBNFPBCA@?5delete?$FL?$FN?$AA@ 0044cb14     libvcruntime:undname.obj
 0002:00003b20       ??_C@_0P@HJKNJFNN@?$GAomni?5callsig?8?$AA@ 0044cb20     libvcruntime:undname.obj
 0002:00003b30       ??_C@_0BL@CNOONJFP@?$GAplacement?5delete?5closure?8?$AA@ 0044cb30     libvcruntime:undname.obj
 0002:00003b4c       ??_C@_0BN@CKNJLHMB@?$GAplacement?5delete?$FL?$FN?5closure?8?$AA@ 0044cb4c     libvcruntime:undname.obj
 0002:00003b6c       ??_C@_0CG@CFDHKGGD@?$GAmanaged?5vector?5constructor?5iter@ 0044cb6c     libvcruntime:undname.obj
 0002:00003b94       ??_C@_0CF@IMGKMJNO@?$GAmanaged?5vector?5destructor?5itera@ 0044cb94     libvcruntime:undname.obj
 0002:00003bbc       ??_C@_0CG@HLDDJMAG@?$GAeh?5vector?5copy?5constructor?5iter@ 0044cbbc     libvcruntime:undname.obj
 0002:00003be4       ??_C@_0CM@FCBBDIGB@?$GAeh?5vector?5vbase?5copy?5constructo@ 0044cbe4     libvcruntime:undname.obj
 0002:00003c10       ??_C@_0BL@CLIPGLGB@?$GAdynamic?5initializer?5for?5?8?$AA@ 0044cc10     libvcruntime:undname.obj
 0002:00003c2c       ??_C@_0CB@PDBIFEP@?$GAdynamic?5atexit?5destructor?5for?5?8@ 0044cc2c     libvcruntime:undname.obj
 0002:00003c50       ??_C@_0CD@CGAJBKEJ@?$GAvector?5copy?5constructor?5iterato@ 0044cc50     libvcruntime:undname.obj
 0002:00003c74       ??_C@_0CJ@GJELGAMM@?$GAvector?5vbase?5copy?5constructor?5i@ 0044cc74     libvcruntime:undname.obj
 0002:00003ca0       ??_C@_0CL@FGIJHLCE@?$GAmanaged?5vector?5copy?5constructor@ 0044cca0     libvcruntime:undname.obj
 0002:00003ccc       ??_C@_0BM@PMGGMLDN@?$GAlocal?5static?5thread?5guard?8?$AA@ 0044cccc     libvcruntime:undname.obj
 0002:00003ce8       ??_C@_0N@BDNMDMOL@operator?5?$CC?$CC?5?$AA@ 0044cce8     libvcruntime:undname.obj
 0002:00003cf8       ??_C@_0BC@DAFEJGAK@?5Type?5Descriptor?8?$AA@ 0044ccf8     libvcruntime:undname.obj
 0002:00003d0c       ??_C@_0BM@LDKODKLH@?5Base?5Class?5Descriptor?5at?5?$CI?$AA@ 0044cd0c     libvcruntime:undname.obj
 0002:00003d28       ??_C@_0BD@LGICGFMM@?5Base?5Class?5Array?8?$AA@ 0044cd28     libvcruntime:undname.obj
 0002:00003d3c       ??_C@_0BN@MECKDCOJ@?5Class?5Hierarchy?5Descriptor?8?$AA@ 0044cd3c     libvcruntime:undname.obj
 0002:00003d5c       ??_C@_0BK@CFCOFLF@?5Complete?5Object?5Locator?8?$AA@ 0044cd5c     libvcruntime:undname.obj
 0002:00003d78       _standard_lookup_table     0044cd78     libucrt:output.obj
 0002:00003dd8       _format_validation_lookup_table 0044cdd8     libucrt:output.obj
 0002:00003e34       ??_C@_06OJHGLDPL@?$CInull?$CJ?$AA@ 0044ce34     libucrt:output.obj
 0002:00003e3c       ??_C@_1O@CEDCILHN@?$AA?$CI?$AAn?$AAu?$AAl?$AAl?$AA?$CJ?$AA?$AA@ 0044ce3c     libucrt:output.obj
 0002:00003fb8       ?large_power_data@?1??multiply_by_power_of_ten@__crt_strtox@@YA_NAAUbig_integer@2@I@Z@4QBIB 0044cfb8     libucrt:atof.obj
 0002:000048c0       ?large_power_indices@?1??multiply_by_power_of_ten@__crt_strtox@@YA_NAAUbig_integer@2@I@Z@4QBUunpack_index@?1??12@YA_N0I@Z@B 0044d8c0     libucrt:atof.obj
 0002:00004958       ?small_powers_of_ten@?6??multiply_by_power_of_ten@__crt_strtox@@YA_NAAUbig_integer@2@I@Z@4QBIB 0044d958     libucrt:atof.obj
 0002:00004980       ___acrt_exception_action_table 0044d980     libucrt:exception_filter.obj
 0002:00004a10       ___acrt_signal_action_table_count 0044da10     libucrt:exception_filter.obj
 0002:00004a14       ___acrt_signal_action_first_fpe_index 0044da14     libucrt:exception_filter.obj
 0002:00004a18       ___acrt_signal_action_fpe_count 0044da18     libucrt:exception_filter.obj
 0002:00004a1c       ??_C@_1BI@BGOHAHKC@?$AAm?$AAs?$AAc?$AAo?$AAr?$AAe?$AAe?$AA?4?$AAd?$AAl?$AAl?$AA?$AA@ 0044da1c     libucrt:exit.obj
 0002:00004a34       ??_C@_0P@MIGLKIOC@CorExitProcess?$AA@ 0044da34     libucrt:exit.obj
 0002:00004ac0       ??_C@_03KOEHGMDN@Sun?$AA@  0044dac0     libucrt:nlsdata.obj
 0002:00004ac4       ??_C@_03PDAGKDH@Mon?$AA@   0044dac4     libucrt:nlsdata.obj
 0002:00004ac8       ??_C@_03NAGEINEP@Tue?$AA@  0044dac8     libucrt:nlsdata.obj
 0002:00004acc       ??_C@_03MHOMLAJA@Wed?$AA@  0044dacc     libucrt:nlsdata.obj
 0002:00004ad0       ??_C@_03IOFIKPDN@Thu?$AA@  0044dad0     libucrt:nlsdata.obj
 0002:00004ad4       ??_C@_03IDIOELNC@Fri?$AA@  0044dad4     libucrt:nlsdata.obj
 0002:00004ad8       ??_C@_03FEFJNEK@Sat?$AA@   0044dad8     libucrt:nlsdata.obj
 0002:00004adc       ??_C@_06OOPIFAJ@Sunday?$AA@ 0044dadc     libucrt:nlsdata.obj
 0002:00004ae4       ??_C@_06JLEDEDGH@Monday?$AA@ 0044dae4     libucrt:nlsdata.obj
 0002:00004aec       ??_C@_07BAAGCFCM@Tuesday?$AA@ 0044daec     libucrt:nlsdata.obj
 0002:00004af4       ??_C@_09DLIGFAKA@Wednesday?$AA@ 0044daf4     libucrt:nlsdata.obj
 0002:00004b00       ??_C@_08HACCIKIA@Thursday?$AA@ 0044db00     libucrt:nlsdata.obj
 0002:00004b0c       ??_C@_06JECMNKMI@Friday?$AA@ 0044db0c     libucrt:nlsdata.obj
 0002:00004b14       ??_C@_08INBOOONO@Saturday?$AA@ 0044db14     libucrt:nlsdata.obj
 0002:00004b20       ??_C@_03JIHJHPIE@Jan?$AA@  0044db20     libucrt:nlsdata.obj
 0002:00004b24       ??_C@_03HJBDCHOM@Feb?$AA@  0044db24     libucrt:nlsdata.obj
 0002:00004b28       ??_C@_03ODNJBKGA@Mar?$AA@  0044db28     libucrt:nlsdata.obj
 0002:00004b2c       ??_C@_03LEOLGMJP@Apr?$AA@  0044db2c     libucrt:nlsdata.obj
 0002:00004b30       ??_C@_03CNMDKL@May?$AA@    0044db30     libucrt:nlsdata.obj
 0002:00004b34       ??_C@_03IDFGHECI@Jun?$AA@  0044db34     libucrt:nlsdata.obj
 0002:00004b38       ??_C@_03LBGABGKK@Jul?$AA@  0044db38     libucrt:nlsdata.obj
 0002:00004b3c       ??_C@_03IFJFEIGA@Aug?$AA@  0044db3c     libucrt:nlsdata.obj
 0002:00004b40       ??_C@_03GGCAPAJC@Sep?$AA@  0044db40     libucrt:nlsdata.obj
 0002:00004b44       ??_C@_03BMAOKBAD@Oct?$AA@  0044db44     libucrt:nlsdata.obj
 0002:00004b48       ??_C@_03JPJOFNIA@Nov?$AA@  0044db48     libucrt:nlsdata.obj
 0002:00004b4c       ??_C@_03MKABNOCG@Dec?$AA@  0044db4c     libucrt:nlsdata.obj
 0002:00004b50       ??_C@_07CGJPFGJA@January?$AA@ 0044db50     libucrt:nlsdata.obj
 0002:00004b58       ??_C@_08GNJGEPFN@February?$AA@ 0044db58     libucrt:nlsdata.obj
 0002:00004b64       ??_C@_05HPCKOFNC@March?$AA@ 0044db64     libucrt:nlsdata.obj
 0002:00004b6c       ??_C@_05DMJDNLEJ@April?$AA@ 0044db6c     libucrt:nlsdata.obj
 0002:00004b74       ??_C@_04CNLMGBGM@June?$AA@ 0044db74     libucrt:nlsdata.obj
 0002:00004b7c       ??_C@_04MIEPOIFP@July?$AA@ 0044db7c     libucrt:nlsdata.obj
 0002:00004b84       ??_C@_06LBBHFDDG@August?$AA@ 0044db84     libucrt:nlsdata.obj
 0002:00004b8c       ??_C@_09BHHEALKD@September?$AA@ 0044db8c     libucrt:nlsdata.obj
 0002:00004b98       ??_C@_07JJNFCEND@October?$AA@ 0044db98     libucrt:nlsdata.obj
 0002:00004ba0       ??_C@_08HCHEGEOA@November?$AA@ 0044dba0     libucrt:nlsdata.obj
 0002:00004bac       ??_C@_08EDHMEBNP@December?$AA@ 0044dbac     libucrt:nlsdata.obj
 0002:00004bb8       ??_C@_02DEDBPAFC@AM?$AA@   0044dbb8     libucrt:nlsdata.obj
 0002:00004bbc       ??_C@_02CJNFDJBF@PM?$AA@   0044dbbc     libucrt:nlsdata.obj
 0002:00004bc0       ??_C@_08BPBNCDIB@MM?1dd?1yy?$AA@ 0044dbc0     libucrt:nlsdata.obj
 0002:00004bcc       ??_C@_0BE@CKGJFCPC@dddd?0?5MMMM?5dd?0?5yyyy?$AA@ 0044dbcc     libucrt:nlsdata.obj
 0002:00004be0       ??_C@_08JCCMCCIL@HH?3mm?3ss?$AA@ 0044dbe0     libucrt:nlsdata.obj
 0002:00004bec       ??_C@_17MBGCMIPB@?$AAS?$AAu?$AAn?$AA?$AA@ 0044dbec     libucrt:nlsdata.obj
 0002:00004bf4       ??_C@_17KBOMKBF@?$AAM?$AAo?$AAn?$AA?$AA@ 0044dbf4     libucrt:nlsdata.obj
 0002:00004bfc       ??_C@_17BMKGEGOJ@?$AAT?$AAu?$AAe?$AA?$AA@ 0044dbfc     libucrt:nlsdata.obj
 0002:00004c04       ??_C@_17CJEDCEPE@?$AAW?$AAe?$AAd?$AA?$AA@ 0044dc04     libucrt:nlsdata.obj
 0002:00004c0c       ??_C@_17PDPHAADD@?$AAT?$AAh?$AAu?$AA?$AA@ 0044dc0c     libucrt:nlsdata.obj
 0002:00004c14       ??_C@_17HFOLPPLP@?$AAF?$AAr?$AAi?$AA?$AA@ 0044dc14     libucrt:nlsdata.obj
 0002:00004c1c       ??_C@_17GGIBDPIH@?$AAS?$AAa?$AAt?$AA?$AA@ 0044dc1c     libucrt:nlsdata.obj
 0002:00004c24       ??_C@_1O@IHNHDHPB@?$AAS?$AAu?$AAn?$AAd?$AAa?$AAy?$AA?$AA@ 0044dc24     libucrt:nlsdata.obj
 0002:00004c34       ??_C@_1O@MMNBFLIA@?$AAM?$AAo?$AAn?$AAd?$AAa?$AAy?$AA?$AA@ 0044dc34     libucrt:nlsdata.obj
 0002:00004c44       ??_C@_1BA@ENFBFFEK@?$AAT?$AAu?$AAe?$AAs?$AAd?$AAa?$AAy?$AA?$AA@ 0044dc44     libucrt:nlsdata.obj
 0002:00004c54       ??_C@_1BE@EBOGMDOH@?$AAW?$AAe?$AAd?$AAn?$AAe?$AAs?$AAd?$AAa?$AAy?$AA?$AA@ 0044dc54     libucrt:nlsdata.obj
 0002:00004c68       ??_C@_1BC@HHMNLIHE@?$AAT?$AAh?$AAu?$AAr?$AAs?$AAd?$AAa?$AAy?$AA?$AA@ 0044dc68     libucrt:nlsdata.obj
 0002:00004c7c       ??_C@_1O@PDICJHAG@?$AAF?$AAr?$AAi?$AAd?$AAa?$AAy?$AA?$AA@ 0044dc7c     libucrt:nlsdata.obj
 0002:00004c8c       ??_C@_1BC@ENMNNPAJ@?$AAS?$AAa?$AAt?$AAu?$AAr?$AAd?$AAa?$AAy?$AA?$AA@ 0044dc8c     libucrt:nlsdata.obj
 0002:00004ca0       ??_C@_17DKNBKCHM@?$AAJ?$AAa?$AAn?$AA?$AA@ 0044dca0     libucrt:nlsdata.obj
 0002:00004ca8       ??_C@_17LMDJEKJN@?$AAF?$AAe?$AAb?$AA?$AA@ 0044dca8     libucrt:nlsdata.obj
 0002:00004cb0       ??_C@_17CKNLEDEC@?$AAM?$AAa?$AAr?$AA?$AA@ 0044dcb0     libucrt:nlsdata.obj
 0002:00004cb8       ??_C@_17LFPOIHDD@?$AAA?$AAp?$AAr?$AA?$AA@ 0044dcb8     libucrt:nlsdata.obj
 0002:00004cc0       ??_C@_17PNNKMEED@?$AAM?$AAa?$AAy?$AA?$AA@ 0044dcc0     libucrt:nlsdata.obj
 0002:00004cc8       ??_C@_17KCJGOCPB@?$AAJ?$AAu?$AAn?$AA?$AA@ 0044dcc8     libucrt:nlsdata.obj
 0002:00004cd0       ??_C@_17IJPCKHK@?$AAJ?$AAu?$AAl?$AA?$AA@ 0044dcd0     libucrt:nlsdata.obj
 0002:00004cd8       ??_C@_17ICPELBCN@?$AAA?$AAu?$AAg?$AA?$AA@ 0044dcd8     libucrt:nlsdata.obj
 0002:00004ce0       ??_C@_17HCHCOKMG@?$AAS?$AAe?$AAp?$AA?$AA@ 0044dce0     libucrt:nlsdata.obj
 0002:00004ce8       ??_C@_17FNLKOI@?$AAO?$AAc?$AAt?$AA?$AA@ 0044dce8     libucrt:nlsdata.obj
 0002:00004cf0       ??_C@_17BBDMLCIG@?$AAN?$AAo?$AAv?$AA?$AA@ 0044dcf0     libucrt:nlsdata.obj
 0002:00004cf8       ??_C@_17EGKACKIF@?$AAD?$AAe?$AAc?$AA?$AA@ 0044dcf8     libucrt:nlsdata.obj
 0002:00004d00       ??_C@_1BA@EFMEIEBA@?$AAJ?$AAa?$AAn?$AAu?$AAa?$AAr?$AAy?$AA?$AA@ 0044dd00     libucrt:nlsdata.obj
 0002:00004d10       ??_C@_1BC@JGDDFFAM@?$AAF?$AAe?$AAb?$AAr?$AAu?$AAa?$AAr?$AAy?$AA?$AA@ 0044dd10     libucrt:nlsdata.obj
 0002:00004d24       ??_C@_1M@IKEENEDF@?$AAM?$AAa?$AAr?$AAc?$AAh?$AA?$AA@ 0044dd24     libucrt:nlsdata.obj
 0002:00004d30       ??_C@_1M@GJNLMHFD@?$AAA?$AAp?$AAr?$AAi?$AAl?$AA?$AA@ 0044dd30     libucrt:nlsdata.obj
 0002:00004d3c       ??_C@_19EPFLPGAP@?$AAJ?$AAu?$AAn?$AAe?$AA?$AA@ 0044dd3c     libucrt:nlsdata.obj
 0002:00004d48       ??_C@_19BIFMLPCD@?$AAJ?$AAu?$AAl?$AAy?$AA?$AA@ 0044dd48     libucrt:nlsdata.obj
 0002:00004d54       ??_C@_1O@PAHLKOAC@?$AAA?$AAu?$AAg?$AAu?$AAs?$AAt?$AA?$AA@ 0044dd54     libucrt:nlsdata.obj
 0002:00004d64       ??_C@_1BE@DKAAMBJL@?$AAS?$AAe?$AAp?$AAt?$AAe?$AAm?$AAb?$AAe?$AAr?$AA?$AA@ 0044dd64     libucrt:nlsdata.obj
 0002:00004d78       ??_C@_1BA@EPANDLNG@?$AAO?$AAc?$AAt?$AAo?$AAb?$AAe?$AAr?$AA?$AA@ 0044dd78     libucrt:nlsdata.obj
 0002:00004d88       ??_C@_1BC@BGLIFPF@?$AAN?$AAo?$AAv?$AAe?$AAm?$AAb?$AAe?$AAr?$AA?$AA@ 0044dd88     libucrt:nlsdata.obj
 0002:00004d9c       ??_C@_1BC@FEMKIFH@?$AAD?$AAe?$AAc?$AAe?$AAm?$AAb?$AAe?$AAr?$AA?$AA@ 0044dd9c     libucrt:nlsdata.obj
 0002:00004db0       ??_C@_15ODEHAHHF@?$AAA?$AAM?$AA?$AA@ 0044ddb0     libucrt:nlsdata.obj
 0002:00004db8       ??_C@_15CLMNNGEL@?$AAP?$AAM?$AA?$AA@ 0044ddb8     libucrt:nlsdata.obj
 0002:00004dc0       ??_C@_1BC@IEBCMHCM@?$AAM?$AAM?$AA?1?$AAd?$AAd?$AA?1?$AAy?$AAy?$AA?$AA@ 0044ddc0     libucrt:nlsdata.obj
 0002:00004dd4       ??_C@_1CI@KNAKOEBC@?$AAd?$AAd?$AAd?$AAd?$AA?0?$AA?5?$AAM?$AAM?$AAM?$AAM?$AA?5?$AAd?$AAd?$AA?0?$AA?5?$AAy?$AAy?$AAy?$AAy?$AA?$AA@ 0044ddd4     libucrt:nlsdata.obj
 0002:00004dfc       ??_C@_1BC@GDGBMEMK@?$AAH?$AAH?$AA?3?$AAm?$AAm?$AA?3?$AAs?$AAs?$AA?$AA@ 0044ddfc     libucrt:nlsdata.obj
 0002:00004e10       ??_C@_1M@BMHNFIME@?$AAe?$AAn?$AA?9?$AAU?$AAS?$AA?$AA@ 0044de10     libucrt:nlsdata.obj
 0002:00004e20       ___lc_time_c               0044de20     libucrt:nlsdata.obj
 0002:00004f88       __wctype                   0044df88     libucrt:ctype.obj
 0002:00005190       ___newctype                0044e190     libucrt:ctype.obj
 0002:00005490       ___newclmap                0044e490     libucrt:ctype.obj
 0002:00005610       ___newcumap                0044e610     libucrt:ctype.obj
 0002:00005790       ??_C@_03OEIAHPBN@INF?$AA@  0044e790     libucrt:cvt.obj
 0002:00005794       ??_C@_03OJHLLCGB@inf?$AA@  0044e794     libucrt:cvt.obj
 0002:00005798       ??_C@_03LKNCIKJB@NAN?$AA@  0044e798     libucrt:cvt.obj
 0002:0000579c       ??_C@_03LHCJEHON@nan?$AA@  0044e79c     libucrt:cvt.obj
 0002:000057a0       ??_C@_09OFJJIMPC@NAN?$CISNAN?$CJ?$AA@ 0044e7a0     libucrt:cvt.obj
 0002:000057ac       ??_C@_09IPFBKMDL@nan?$CIsnan?$CJ?$AA@ 0044e7ac     libucrt:cvt.obj
 0002:000057b8       ??_C@_08IKHNHAJ@NAN?$CIIND?$CJ?$AA@ 0044e7b8     libucrt:cvt.obj
 0002:000057c4       ??_C@_08OFCDMILK@nan?$CIind?$CJ?$AA@ 0044e7c4     libucrt:cvt.obj
 0002:000057d0       ??_C@_05KLBDPFGC@e?$CL000?$AA@ 0044e7d0     libucrt:cvt.obj
 0002:000057d8       ?ccs@?BL@???$__acrt_stdio_parse_mode@_W@@YA?AU__acrt_stdio_stream_mode@@QB_W@Z@4QB_WB 0044e7d8     libucrt:openfile.obj
 0002:000057e0       ?utf8_encoding@?BL@???$__acrt_stdio_parse_mode@_W@@YA?AU__acrt_stdio_stream_mode@@QB_W@Z@4QB_WB 0044e7e0     libucrt:openfile.obj
 0002:000057ec       ?utf16_encoding@?BL@???$__acrt_stdio_parse_mode@_W@@YA?AU__acrt_stdio_stream_mode@@QB_W@Z@4QB_WB 0044e7ec     libucrt:openfile.obj
 0002:000057fc       ?unicode_encoding@?BL@???$__acrt_stdio_parse_mode@_W@@YA?AU__acrt_stdio_stream_mode@@QB_W@Z@4QB_WB 0044e7fc     libucrt:openfile.obj
 0002:00005860       ??_C@_1EG@CNNIPFIM@?$AAa?$AAp?$AAi?$AA?9?$AAm?$AAs?$AA?9?$AAw?$AAi?$AAn?$AA?9?$AAa?$AAp?$AAp?$AAm?$AAo?$AAd?$AAe?$AAl?$AA?9?$AAr?$AAu?$AAn?$AAt?$AAi?$AAm?$AAe?$AA?9?$AAl?$AA1?$AA?9?$AA1@ 0044e860     libucrt:winapi_thunks.obj
 0002:000058a8       ??_C@_1EA@JGEFHKEI@?$AAa?$AAp?$AAi?$AA?9?$AAm?$AAs?$AA?9?$AAw?$AAi?$AAn?$AA?9?$AAc?$AAo?$AAr?$AAe?$AA?9?$AAd?$AAa?$AAt?$AAe?$AAt?$AAi?$AAm?$AAe?$AA?9?$AAl?$AA1?$AA?9?$AA1?$AA?9?$AA1?$AA?$AA@ 0044e8a8     libucrt:winapi_thunks.obj
 0002:000058e8       ??_C@_1DI@GCIAAENM@?$AAa?$AAp?$AAi?$AA?9?$AAm?$AAs?$AA?9?$AAw?$AAi?$AAn?$AA?9?$AAc?$AAo?$AAr?$AAe?$AA?9?$AAf?$AAi?$AAl?$AAe?$AA?9?$AAl?$AA2?$AA?9?$AA1?$AA?9?$AA1?$AA?$AA@ 0044e8e8     libucrt:winapi_thunks.obj
 0002:00005920       ??_C@_1EI@MPIAOHOC@?$AAa?$AAp?$AAi?$AA?9?$AAm?$AAs?$AA?9?$AAw?$AAi?$AAn?$AA?9?$AAc?$AAo?$AAr?$AAe?$AA?9?$AAl?$AAo?$AAc?$AAa?$AAl?$AAi?$AAz?$AAa?$AAt?$AAi?$AAo?$AAn?$AA?9?$AAl?$AA1?$AA?9@ 0044e920     libucrt:winapi_thunks.obj
 0002:00005968       ??_C@_1FK@FPHCKFIE@?$AAa?$AAp?$AAi?$AA?9?$AAm?$AAs?$AA?9?$AAw?$AAi?$AAn?$AA?9?$AAc?$AAo?$AAr?$AAe?$AA?9?$AAl?$AAo?$AAc?$AAa?$AAl?$AAi?$AAz?$AAa?$AAt?$AAi?$AAo?$AAn?$AA?9?$AAo?$AAb?$AAs@ 0044e968     libucrt:winapi_thunks.obj
 0002:000059c8       ??_C@_1EM@DILCGIIO@?$AAa?$AAp?$AAi?$AA?9?$AAm?$AAs?$AA?9?$AAw?$AAi?$AAn?$AA?9?$AAc?$AAo?$AAr?$AAe?$AA?9?$AAp?$AAr?$AAo?$AAc?$AAe?$AAs?$AAs?$AAt?$AAh?$AAr?$AAe?$AAa?$AAd?$AAs?$AA?9?$AAl@ 0044e9c8     libucrt:winapi_thunks.obj
 0002:00005a14       ??_C@_1DM@LNCGDDPN@?$AAa?$AAp?$AAi?$AA?9?$AAm?$AAs?$AA?9?$AAw?$AAi?$AAn?$AA?9?$AAc?$AAo?$AAr?$AAe?$AA?9?$AAs?$AAt?$AAr?$AAi?$AAn?$AAg?$AA?9?$AAl?$AA1?$AA?9?$AA1?$AA?9?$AA0?$AA?$AA@ 0044ea14     libucrt:winapi_thunks.obj
 0002:00005a50       ??_C@_1DO@FPAPJEMD@?$AAa?$AAp?$AAi?$AA?9?$AAm?$AAs?$AA?9?$AAw?$AAi?$AAn?$AA?9?$AAc?$AAo?$AAr?$AAe?$AA?9?$AAs?$AAy?$AAs?$AAi?$AAn?$AAf?$AAo?$AA?9?$AAl?$AA1?$AA?9?$AA2?$AA?9?$AA1?$AA?$AA@ 0044ea50     libucrt:winapi_thunks.obj
 0002:00005a90       ??_C@_1DK@NDHNAHIO@?$AAa?$AAp?$AAi?$AA?9?$AAm?$AAs?$AA?9?$AAw?$AAi?$AAn?$AA?9?$AAc?$AAo?$AAr?$AAe?$AA?9?$AAw?$AAi?$AAn?$AAr?$AAt?$AA?9?$AAl?$AA1?$AA?9?$AA1?$AA?9?$AA0?$AA?$AA@ 0044ea90     libucrt:winapi_thunks.obj
 0002:00005acc       ??_C@_1DM@KGHDGBCM@?$AAa?$AAp?$AAi?$AA?9?$AAm?$AAs?$AA?9?$AAw?$AAi?$AAn?$AA?9?$AAc?$AAo?$AAr?$AAe?$AA?9?$AAx?$AAs?$AAt?$AAa?$AAt?$AAe?$AA?9?$AAl?$AA2?$AA?9?$AA1?$AA?9?$AA0?$AA?$AA@ 0044eacc     libucrt:winapi_thunks.obj
 0002:00005b08       ??_C@_1EO@IJIOEFOH@?$AAa?$AAp?$AAi?$AA?9?$AAm?$AAs?$AA?9?$AAw?$AAi?$AAn?$AA?9?$AAr?$AAt?$AAc?$AAo?$AAr?$AAe?$AA?9?$AAn?$AAt?$AAu?$AAs?$AAe?$AAr?$AA?9?$AAw?$AAi?$AAn?$AAd?$AAo?$AAw?$AA?9@ 0044eb08     libucrt:winapi_thunks.obj
 0002:00005b58       ??_C@_1FG@HHGEKANL@?$AAa?$AAp?$AAi?$AA?9?$AAm?$AAs?$AA?9?$AAw?$AAi?$AAn?$AA?9?$AAs?$AAe?$AAc?$AAu?$AAr?$AAi?$AAt?$AAy?$AA?9?$AAs?$AAy?$AAs?$AAt?$AAe?$AAm?$AAf?$AAu?$AAn?$AAc?$AAt?$AAi@ 0044eb58     libucrt:winapi_thunks.obj
 0002:00005bb0       ??_C@_1FG@NCKKOLKO@?$AAe?$AAx?$AAt?$AA?9?$AAm?$AAs?$AA?9?$AAw?$AAi?$AAn?$AA?9?$AAk?$AAe?$AAr?$AAn?$AAe?$AAl?$AA3?$AA2?$AA?9?$AAp?$AAa?$AAc?$AAk?$AAa?$AAg?$AAe?$AA?9?$AAc?$AAu?$AAr?$AAr@ 0044ebb0     libucrt:winapi_thunks.obj
 0002:00005c08       ??_C@_1EG@DBIOJECG@?$AAe?$AAx?$AAt?$AA?9?$AAm?$AAs?$AA?9?$AAw?$AAi?$AAn?$AA?9?$AAn?$AAt?$AAu?$AAs?$AAe?$AAr?$AA?9?$AAd?$AAi?$AAa?$AAl?$AAo?$AAg?$AAb?$AAo?$AAx?$AA?9?$AAl?$AA1?$AA?9?$AA1@ 0044ec08     libucrt:winapi_thunks.obj
 0002:00005c50       ??_C@_1EO@FIHMJCLF@?$AAe?$AAx?$AAt?$AA?9?$AAm?$AAs?$AA?9?$AAw?$AAi?$AAn?$AA?9?$AAn?$AAt?$AAu?$AAs?$AAe?$AAr?$AA?9?$AAw?$AAi?$AAn?$AAd?$AAo?$AAw?$AAs?$AAt?$AAa?$AAt?$AAi?$AAo?$AAn?$AA?9@ 0044ec50     libucrt:winapi_thunks.obj
 0002:00005ca0       ??_C@_1O@BCCLBEOE@?$AAu?$AAs?$AAe?$AAr?$AA3?$AA2?$AA?$AA@ 0044eca0     libucrt:winapi_thunks.obj
 0002:00005cd8       ??_C@_0BE@JOGNEJCI@GetCurrentPackageId?$AA@ 0044ecd8     libucrt:winapi_thunks.obj
 0002:00005cfc       ??_C@_0O@KKBNKAPF@LCMapStringEx?$AA@ 0044ecfc     libucrt:winapi_thunks.obj
 0002:00005d14       ??_C@_0BB@HBDEELFH@LocaleNameToLCID?$AA@ 0044ed14     libucrt:winapi_thunks.obj
 0002:00005d38       ??_C@_1M@HPNHIDJI@?$AAj?$AAa?$AA?9?$AAJ?$AAP?$AA?$AA@ 0044ed38     libucrt:mbctype.obj
 0002:00005d44       ??_C@_1M@BIBDDEMK@?$AAz?$AAh?$AA?9?$AAC?$AAN?$AA?$AA@ 0044ed44     libucrt:mbctype.obj
 0002:00005d50       ??_C@_1M@JLOOOEGK@?$AAk?$AAo?$AA?9?$AAK?$AAR?$AA?$AA@ 0044ed50     libucrt:mbctype.obj
 0002:00005d5c       ??_C@_1M@CLNBBOPM@?$AAz?$AAh?$AA?9?$AAT?$AAW?$AA?$AA@ 0044ed5c     libucrt:mbctype.obj
 0002:00005d68       ??_C@_15PJPFLCCM@?$AAu?$AAk?$AA?$AA@ 0044ed68     libucrt:get_qualified_locale.obj
 0002:00005d70       ??_C@_05DNEBIAHO@1?$CDINF?$AA@ 0044ed70     libucrt:cfout.obj
 0002:00005d78       ??_C@_06IMKFLFPG@1?$CDQNAN?$AA@ 0044ed78     libucrt:cfout.obj
 0002:00005d80       ??_C@_06PGGFOGJG@1?$CDSNAN?$AA@ 0044ed80     libucrt:cfout.obj
 0002:00005d88       ??_C@_05PHHOCPM@1?$CDIND?$AA@ 0044ed88     libucrt:cfout.obj
 0002:000064b0       ??_C@_15EMKDOKLE@?$AAa?$AAr?$AA?$AA@ 0044f4b0     libucrt:lcidtoname_downlevel.obj
 0002:000064b8       ??_C@_15KNPADPLH@?$AAb?$AAg?$AA?$AA@ 0044f4b8     libucrt:lcidtoname_downlevel.obj
 0002:000064c0       ??_C@_15EDMHLDMO@?$AAc?$AAa?$AA?$AA@ 0044f4c0     libucrt:lcidtoname_downlevel.obj
 0002:000064c8       ??_C@_1O@BPEAJADD@?$AAz?$AAh?$AA?9?$AAC?$AAH?$AAS?$AA?$AA@ 0044f4c8     libucrt:lcidtoname_downlevel.obj
 0002:000064d8       ??_C@_15LJNHCMNK@?$AAc?$AAs?$AA?$AA@ 0044f4d8     libucrt:lcidtoname_downlevel.obj
 0002:000064e0       ??_C@_15FOMCIDHG@?$AAd?$AAa?$AA?$AA@ 0044f4e0     libucrt:lcidtoname_downlevel.obj
 0002:000064e8       ??_C@_15NBKABECB@?$AAd?$AAe?$AA?$AA@ 0044f4e8     libucrt:lcidtoname_downlevel.obj
 0002:000064f0       ??_C@_15GHPEIIAO@?$AAe?$AAl?$AA?$AA@ 0044f4f0     libucrt:lcidtoname_downlevel.obj
 0002:000064f8       ??_C@_15MNPNEAIF@?$AAe?$AAn?$AA?$AA@ 0044f4f8     libucrt:lcidtoname_downlevel.obj
 0002:00006500       ??_C@_15GPIOMPMH@?$AAe?$AAs?$AA?$AA@ 0044f500     libucrt:lcidtoname_downlevel.obj
 0002:00006508       ??_C@_15NGLOAKJC@?$AAf?$AAi?$AA?$AA@ 0044f508     libucrt:lcidtoname_downlevel.obj
 0002:00006510       ??_C@_15FBKGNKAM@?$AAf?$AAr?$AA?$AA@ 0044f510     libucrt:lcidtoname_downlevel.obj
 0002:00006518       ??_C@_15KGGCNEFK@?$AAh?$AAe?$AA?$AA@ 0044f518     libucrt:lcidtoname_downlevel.obj
 0002:00006520       ??_C@_15PGHLIDMF@?$AAh?$AAu?$AA?$AA@ 0044f520     libucrt:lcidtoname_downlevel.obj
 0002:00006528       ??_C@_15BIEMAPLM@?$AAi?$AAs?$AA?$AA@ 0044f528     libucrt:lcidtoname_downlevel.obj
 0002:00006530       ??_C@_15IFJLDHAF@?$AAi?$AAt?$AA?$AA@ 0044f530     libucrt:lcidtoname_downlevel.obj
 0002:00006538       ??_C@_15GEMIOCAG@?$AAj?$AAa?$AA?$AA@ 0044f538     libucrt:lcidtoname_downlevel.obj
 0002:00006540       ??_C@_15EPELEGJA@?$AAk?$AAo?$AA?$AA@ 0044f540     libucrt:lcidtoname_downlevel.obj
 0002:00006548       ??_C@_15NDDHIMN@?$AAn?$AAl?$AA?$AA@ 0044f548     libucrt:lcidtoname_downlevel.obj
 0002:00006550       ??_C@_15BPIGNHCD@?$AAn?$AAo?$AA?$AA@ 0044f550     libucrt:lcidtoname_downlevel.obj
 0002:00006558       ??_C@_15DEOPBLCG@?$AAp?$AAl?$AA?$AA@ 0044f558     libucrt:lcidtoname_downlevel.obj
 0002:00006560       ??_C@_15KBECGEFG@?$AAp?$AAt?$AA?$AA@ 0044f560     libucrt:lcidtoname_downlevel.obj
 0002:00006568       ??_C@_15GLJCBFMD@?$AAr?$AAo?$AA?$AA@ 0044f568     libucrt:lcidtoname_downlevel.obj
 0002:00006570       ??_C@_15FEDGKCDI@?$AAr?$AAu?$AA?$AA@ 0044f570     libucrt:lcidtoname_downlevel.obj
 0002:00006578       ??_C@_15GLKMLLHM@?$AAh?$AAr?$AA?$AA@ 0044f578     libucrt:lcidtoname_downlevel.obj
 0002:00006580       ??_C@_15CPKMFBDB@?$AAs?$AAk?$AA?$AA@ 0044f580     libucrt:lcidtoname_downlevel.obj
 0002:00006588       ??_C@_15BAAIOGMK@?$AAs?$AAq?$AA?$AA@ 0044f588     libucrt:lcidtoname_downlevel.obj
 0002:00006590       ??_C@_15INNPNOHD@?$AAs?$AAv?$AA?$AA@ 0044f590     libucrt:lcidtoname_downlevel.obj
 0002:00006598       ??_C@_15CABMMOGH@?$AAt?$AAh?$AA?$AA@ 0044f598     libucrt:lcidtoname_downlevel.obj
 0002:000065a0       ??_C@_15BPLIHJJM@?$AAt?$AAr?$AA?$AA@ 0044f5a0     libucrt:lcidtoname_downlevel.obj
 0002:000065a8       ??_C@_15NEOEKKDJ@?$AAu?$AAr?$AA?$AA@ 0044f5a8     libucrt:lcidtoname_downlevel.obj
 0002:000065b0       ??_C@_15NFICGAJK@?$AAi?$AAd?$AA?$AA@ 0044f5b0     libucrt:lcidtoname_downlevel.obj
 0002:000065b8       ??_C@_15HPJPHDM@?$AAb?$AAe?$AA?$AA@ 0044f5b8     libucrt:lcidtoname_downlevel.obj
 0002:000065c0       ??_C@_15LCHLGJII@?$AAs?$AAl?$AA?$AA@ 0044f5c0     libucrt:lcidtoname_downlevel.obj
 0002:000065c8       ??_C@_15PCFJPHHO@?$AAe?$AAt?$AA?$AA@ 0044f5c8     libucrt:lcidtoname_downlevel.obj
 0002:000065d0       ??_C@_15HPFPGODN@?$AAl?$AAv?$AA?$AA@ 0044f5d0     libucrt:lcidtoname_downlevel.obj
 0002:000065d8       ??_C@_15NFFGKGLG@?$AAl?$AAt?$AA?$AA@ 0044f5d8     libucrt:lcidtoname_downlevel.obj
 0002:000065e0       ??_C@_15BDAKCCHN@?$AAf?$AAa?$AA?$AA@ 0044f5e0     libucrt:lcidtoname_downlevel.obj
 0002:000065e8       ??_C@_15NFGIAIAJ@?$AAv?$AAi?$AA?$AA@ 0044f5e8     libucrt:lcidtoname_downlevel.obj
 0002:000065f0       ??_C@_15LMKNDMHN@?$AAh?$AAy?$AA?$AA@ 0044f5f0     libucrt:lcidtoname_downlevel.obj
 0002:000065f8       ??_C@_15IJBHMCFL@?$AAa?$AAz?$AA?$AA@ 0044f5f8     libucrt:lcidtoname_downlevel.obj
 0002:00006600       ??_C@_15EKOFJABL@?$AAe?$AAu?$AA?$AA@ 0044f600     libucrt:lcidtoname_downlevel.obj
 0002:00006608       ??_C@_15BGHADCNK@?$AAm?$AAk?$AA?$AA@ 0044f608     libucrt:lcidtoname_downlevel.obj
 0002:00006610       ??_C@_15JDNICKHM@?$AAa?$AAf?$AA?$AA@ 0044f610     libucrt:lcidtoname_downlevel.obj
 0002:00006618       ??_C@_15KPJEDBKD@?$AAk?$AAa?$AA?$AA@ 0044f618     libucrt:lcidtoname_downlevel.obj
 0002:00006620       ??_C@_15PDNFFFEO@?$AAf?$AAo?$AA?$AA@ 0044f620     libucrt:lcidtoname_downlevel.obj
 0002:00006628       ??_C@_15OMLEGLOC@?$AAh?$AAi?$AA?$AA@ 0044f628     libucrt:lcidtoname_downlevel.obj
 0002:00006630       ??_C@_15IDNNENKK@?$AAm?$AAs?$AA?$AA@ 0044f630     libucrt:lcidtoname_downlevel.obj
 0002:00006638       ??_C@_15MACJNBMH@?$AAk?$AAk?$AA?$AA@ 0044f638     libucrt:lcidtoname_downlevel.obj
 0002:00006640       ??_C@_15DKDJEOND@?$AAk?$AAy?$AA?$AA@ 0044f640     libucrt:lcidtoname_downlevel.obj
 0002:00006648       ??_C@_15DFGDLJBG@?$AAs?$AAw?$AA?$AA@ 0044f648     libucrt:lcidtoname_downlevel.obj
 0002:00006650       ??_C@_15BBFAICNG@?$AAu?$AAz?$AA?$AA@ 0044f650     libucrt:lcidtoname_downlevel.obj
 0002:00006658       ??_C@_15DKNDCGEA@?$AAt?$AAt?$AA?$AA@ 0044f658     libucrt:lcidtoname_downlevel.obj
 0002:00006660       ??_C@_15MGIFMDPL@?$AAp?$AAa?$AA?$AA@ 0044f660     libucrt:lcidtoname_downlevel.obj
 0002:00006668       ??_C@_15HCNDBBA@?$AAg?$AAu?$AA?$AA@ 0044f668     libucrt:lcidtoname_downlevel.obj
 0002:00006670       ??_C@_15FNBEIBON@?$AAt?$AAa?$AA?$AA@ 0044f670     libucrt:lcidtoname_downlevel.obj
 0002:00006678       ??_C@_15NCHGBGLK@?$AAt?$AAe?$AA?$AA@ 0044f678     libucrt:lcidtoname_downlevel.obj
 0002:00006680       ??_C@_15PHPHCBPF@?$AAk?$AAn?$AA?$AA@ 0044f680     libucrt:lcidtoname_downlevel.obj
 0002:00006688       ??_C@_15DLGBCKMP@?$AAm?$AAr?$AA?$AA@ 0044f688     libucrt:lcidtoname_downlevel.obj
 0002:00006690       ??_C@_15EABBLBFF@?$AAs?$AAa?$AA?$AA@ 0044f690     libucrt:lcidtoname_downlevel.obj
 0002:00006698       ??_C@_15CBKOMCOI@?$AAm?$AAn?$AA?$AA@ 0044f698     libucrt:lcidtoname_downlevel.obj
 0002:000066a0       ??_C@_15CKDMCJAF@?$AAg?$AAl?$AA?$AA@ 0044f6a0     libucrt:lcidtoname_downlevel.obj
 0002:000066a8       ??_C@_17CNJFBPG@?$AAk?$AAo?$AAk?$AA?$AA@ 0044f6a8     libucrt:lcidtoname_downlevel.obj
 0002:000066b0       ??_C@_17FFBJICPL@?$AAs?$AAy?$AAr?$AA?$AA@ 0044f6b0     libucrt:lcidtoname_downlevel.obj
 0002:000066b8       ??_C@_17KPNDCPAF@?$AAd?$AAi?$AAv?$AA?$AA@ 0044f6b8     libucrt:lcidtoname_downlevel.obj
 0002:000066c0       ??_C@_1M@OKAHONE@?$AAa?$AAr?$AA?9?$AAS?$AAA?$AA?$AA@ 0044f6c0     libucrt:lcidtoname_downlevel.obj
 0002:000066cc       ??_C@_1M@FFFIGIGK@?$AAb?$AAg?$AA?9?$AAB?$AAG?$AA?$AA@ 0044f6cc     libucrt:lcidtoname_downlevel.obj
 0002:000066d8       ??_C@_1M@BJNKEDC@?$AAc?$AAa?$AA?9?$AAE?$AAS?$AA?$AA@ 0044f6d8     libucrt:lcidtoname_downlevel.obj
 0002:000066e4       ??_C@_1M@IJJHFJHA@?$AAc?$AAs?$AA?9?$AAC?$AAZ?$AA?$AA@ 0044f6e4     libucrt:lcidtoname_downlevel.obj
 0002:000066f0       ??_C@_1M@CLPEOBGI@?$AAd?$AAa?$AA?9?$AAD?$AAK?$AA?$AA@ 0044f6f0     libucrt:lcidtoname_downlevel.obj
 0002:000066fc       ??_C@_1M@MCMADGCB@?$AAd?$AAe?$AA?9?$AAD?$AAE?$AA?$AA@ 0044f6fc     libucrt:lcidtoname_downlevel.obj
 0002:00006708       ??_C@_1M@OOCKEMAM@?$AAe?$AAl?$AA?9?$AAG?$AAR?$AA?$AA@ 0044f708     libucrt:lcidtoname_downlevel.obj
 0002:00006714       ??_C@_1M@DDNJFGID@?$AAf?$AAi?$AA?9?$AAF?$AAI?$AA?$AA@ 0044f714     libucrt:lcidtoname_downlevel.obj
 0002:00006720       ??_C@_1M@GLIPPMAC@?$AAf?$AAr?$AA?9?$AAF?$AAR?$AA?$AA@ 0044f720     libucrt:lcidtoname_downlevel.obj
 0002:0000672c       ??_C@_1M@GFMCHPE@?$AAh?$AAe?$AA?9?$AAI?$AAL?$AA?$AA@ 0044f72c     libucrt:lcidtoname_downlevel.obj
 0002:00006738       ??_C@_1M@MHLPGNKM@?$AAh?$AAu?$AA?9?$AAH?$AAU?$AA?$AA@ 0044f738     libucrt:lcidtoname_downlevel.obj
 0002:00006744       ??_C@_1M@LPDDNNPN@?$AAi?$AAs?$AA?9?$AAI?$AAS?$AA?$AA@ 0044f744     libucrt:lcidtoname_downlevel.obj
 0002:00006750       ??_C@_1M@MADIPODN@?$AAi?$AAt?$AA?9?$AAI?$AAT?$AA?$AA@ 0044f750     libucrt:lcidtoname_downlevel.obj
 0002:0000675c       ??_C@_1M@IHBJJGG@?$AAn?$AAl?$AA?9?$AAN?$AAL?$AA?$AA@ 0044f75c     libucrt:lcidtoname_downlevel.obj
 0002:00006768       ??_C@_1M@EANAGDL@?$AAn?$AAb?$AA?9?$AAN?$AAO?$AA?$AA@ 0044f768     libucrt:lcidtoname_downlevel.obj
 0002:00006774       ??_C@_1M@NEIEMEGP@?$AAp?$AAl?$AA?9?$AAP?$AAL?$AA?$AA@ 0044f774     libucrt:lcidtoname_downlevel.obj
 0002:00006780       ??_C@_1M@BOCFIGEP@?$AAp?$AAt?$AA?9?$AAB?$AAR?$AA?$AA@ 0044f780     libucrt:lcidtoname_downlevel.obj
 0002:0000678c       ??_C@_1M@IMPFOPBG@?$AAr?$AAo?$AA?9?$AAR?$AAO?$AA?$AA@ 0044f78c     libucrt:lcidtoname_downlevel.obj
 0002:00006798       ??_C@_1M@IDNNEJMM@?$AAr?$AAu?$AA?9?$AAR?$AAU?$AA?$AA@ 0044f798     libucrt:lcidtoname_downlevel.obj
 0002:000067a4       ??_C@_1M@LILEEOGM@?$AAh?$AAr?$AA?9?$AAH?$AAR?$AA?$AA@ 0044f7a4     libucrt:lcidtoname_downlevel.obj
 0002:000067b0       ??_C@_1M@FKIFEHPB@?$AAs?$AAk?$AA?9?$AAS?$AAK?$AA?$AA@ 0044f7b0     libucrt:lcidtoname_downlevel.obj
 0002:000067bc       ??_C@_1M@LJMAMNPJ@?$AAs?$AAq?$AA?9?$AAA?$AAL?$AA?$AA@ 0044f7bc     libucrt:lcidtoname_downlevel.obj
 0002:000067c8       ??_C@_1M@GIAKDKJK@?$AAs?$AAv?$AA?9?$AAS?$AAE?$AA?$AA@ 0044f7c8     libucrt:lcidtoname_downlevel.obj
 0002:000067d4       ??_C@_1M@MKJKIKCL@?$AAt?$AAh?$AA?9?$AAT?$AAH?$AA?$AA@ 0044f7d4     libucrt:lcidtoname_downlevel.obj
 0002:000067e0       ??_C@_1M@MFLCCMPB@?$AAt?$AAr?$AA?9?$AAT?$AAR?$AA?$AA@ 0044f7e0     libucrt:lcidtoname_downlevel.obj
 0002:000067ec       ??_C@_1M@OIJHDKJN@?$AAu?$AAr?$AA?9?$AAP?$AAK?$AA?$AA@ 0044f7ec     libucrt:lcidtoname_downlevel.obj
 0002:000067f8       ??_C@_1M@LHIPCIEK@?$AAi?$AAd?$AA?9?$AAI?$AAD?$AA?$AA@ 0044f7f8     libucrt:lcidtoname_downlevel.obj
 0002:00006804       ??_C@_1M@MFMOBGI@?$AAu?$AAk?$AA?9?$AAU?$AAA?$AA?$AA@ 0044f804     libucrt:lcidtoname_downlevel.obj
 0002:00006810       ??_C@_1M@OBGLJIPL@?$AAb?$AAe?$AA?9?$AAB?$AAY?$AA?$AA@ 0044f810     libucrt:lcidtoname_downlevel.obj
 0002:0000681c       ??_C@_1M@BCFAJEAD@?$AAs?$AAl?$AA?9?$AAS?$AAI?$AA?$AA@ 0044f81c     libucrt:lcidtoname_downlevel.obj
 0002:00006828       ??_C@_1M@FKFFEDDN@?$AAe?$AAt?$AA?9?$AAE?$AAE?$AA?$AA@ 0044f828     libucrt:lcidtoname_downlevel.obj
 0002:00006834       ??_C@_1M@KGKKAACI@?$AAl?$AAv?$AA?9?$AAL?$AAV?$AA?$AA@ 0044f834     libucrt:lcidtoname_downlevel.obj
 0002:00006840       ??_C@_1M@IFGBIJO@?$AAl?$AAt?$AA?9?$AAL?$AAT?$AA?$AA@ 0044f840     libucrt:lcidtoname_downlevel.obj
 0002:0000684c       ??_C@_1M@FGEAHEDM@?$AAf?$AAa?$AA?9?$AAI?$AAR?$AA?$AA@ 0044f84c     libucrt:lcidtoname_downlevel.obj
 0002:00006858       ??_C@_1M@KBMAIBFN@?$AAv?$AAi?$AA?9?$AAV?$AAN?$AA?$AA@ 0044f858     libucrt:lcidtoname_downlevel.obj
 0002:00006864       ??_C@_1M@GPCBKDJK@?$AAh?$AAy?$AA?9?$AAA?$AAM?$AA?$AA@ 0044f864     libucrt:lcidtoname_downlevel.obj
 0002:00006870       ??_C@_1BG@BECMDDJB@?$AAa?$AAz?$AA?9?$AAA?$AAZ?$AA?9?$AAL?$AAa?$AAt?$AAn?$AA?$AA@ 0044f870     libucrt:lcidtoname_downlevel.obj
 0002:00006888       ??_C@_1M@MAOFCAEA@?$AAe?$AAu?$AA?9?$AAE?$AAS?$AA?$AA@ 0044f888     libucrt:lcidtoname_downlevel.obj
 0002:00006894       ??_C@_1M@IGHABKPI@?$AAm?$AAk?$AA?9?$AAM?$AAK?$AA?$AA@ 0044f894     libucrt:lcidtoname_downlevel.obj
 0002:000068a0       ??_C@_1M@IAIGNEJG@?$AAt?$AAn?$AA?9?$AAZ?$AAA?$AA?$AA@ 0044f8a0     libucrt:lcidtoname_downlevel.obj
 0002:000068ac       ??_C@_1M@IIJCOJFA@?$AAx?$AAh?$AA?9?$AAZ?$AAA?$AA?$AA@ 0044f8ac     libucrt:lcidtoname_downlevel.obj
 0002:000068b8       ??_C@_1M@LGPJHNJH@?$AAz?$AAu?$AA?9?$AAZ?$AAA?$AA?$AA@ 0044f8b8     libucrt:lcidtoname_downlevel.obj
 0002:000068c4       ??_C@_1M@HOKAOIO@?$AAa?$AAf?$AA?9?$AAZ?$AAA?$AA?$AA@ 0044f8c4     libucrt:lcidtoname_downlevel.obj
 0002:000068d0       ??_C@_1M@DPCLHLIE@?$AAk?$AAa?$AA?9?$AAG?$AAE?$AA?$AA@ 0044f8d0     libucrt:lcidtoname_downlevel.obj
 0002:000068dc       ??_C@_1M@BLKMHJBI@?$AAf?$AAo?$AA?9?$AAF?$AAO?$AA?$AA@ 0044f8dc     libucrt:lcidtoname_downlevel.obj
 0002:000068e8       ??_C@_1M@LGGJAPPB@?$AAh?$AAi?$AA?9?$AAI?$AAN?$AA?$AA@ 0044f8e8     libucrt:lcidtoname_downlevel.obj
 0002:000068f4       ??_C@_1M@FIKPIHFE@?$AAm?$AAt?$AA?9?$AAM?$AAT?$AA?$AA@ 0044f8f4     libucrt:lcidtoname_downlevel.obj
 0002:00006900       ??_C@_1M@HEGGPBFA@?$AAs?$AAe?$AA?9?$AAN?$AAO?$AA?$AA@ 0044f900     libucrt:lcidtoname_downlevel.obj
 0002:0000690c       ??_C@_1M@EIBJEEPA@?$AAm?$AAs?$AA?9?$AAM?$AAY?$AA?$AA@ 0044f90c     libucrt:lcidtoname_downlevel.obj
 0002:00006918       ??_C@_1M@FHLBGMPP@?$AAk?$AAk?$AA?9?$AAK?$AAZ?$AA?$AA@ 0044f918     libucrt:lcidtoname_downlevel.obj
 0002:00006924       ??_C@_1M@NGJJLCGI@?$AAk?$AAy?$AA?9?$AAK?$AAG?$AA?$AA@ 0044f924     libucrt:lcidtoname_downlevel.obj
 0002:00006930       ??_C@_1M@GIENNBFC@?$AAs?$AAw?$AA?9?$AAK?$AAE?$AA?$AA@ 0044f930     libucrt:lcidtoname_downlevel.obj
 0002:0000693c       ??_C@_1BG@NDGMJIMJ@?$AAu?$AAz?$AA?9?$AAU?$AAZ?$AA?9?$AAL?$AAa?$AAt?$AAn?$AA?$AA@ 0044f93c     libucrt:lcidtoname_downlevel.obj
 0002:00006954       ??_C@_1M@IDCCIHBC@?$AAt?$AAt?$AA?9?$AAR?$AAU?$AA?$AA@ 0044f954     libucrt:lcidtoname_downlevel.obj
 0002:00006960       ??_C@_1M@LOICPMOJ@?$AAb?$AAn?$AA?9?$AAI?$AAN?$AA?$AA@ 0044f960     libucrt:lcidtoname_downlevel.obj
 0002:0000696c       ??_C@_1M@KPKKNEAH@?$AAp?$AAa?$AA?9?$AAI?$AAN?$AA?$AA@ 0044f96c     libucrt:lcidtoname_downlevel.obj
 0002:00006978       ??_C@_1M@PJGPPBOG@?$AAg?$AAu?$AA?9?$AAI?$AAN?$AA?$AA@ 0044f978     libucrt:lcidtoname_downlevel.obj
 0002:00006984       ??_C@_1M@KMKMOPHI@?$AAt?$AAa?$AA?9?$AAI?$AAN?$AA?$AA@ 0044f984     libucrt:lcidtoname_downlevel.obj
 0002:00006990       ??_C@_1M@KFEHEPAC@?$AAt?$AAe?$AA?9?$AAI?$AAN?$AA?$AA@ 0044f990     libucrt:lcidtoname_downlevel.obj
 0002:0000699c       ??_C@_1M@CDCLMGHI@?$AAk?$AAn?$AA?9?$AAI?$AAN?$AA?$AA@ 0044f99c     libucrt:lcidtoname_downlevel.obj
 0002:000069a8       ??_C@_1M@MIODLDKF@?$AAm?$AAl?$AA?9?$AAI?$AAN?$AA?$AA@ 0044f9a8     libucrt:lcidtoname_downlevel.obj
 0002:000069b4       ??_C@_1M@PBIEACPO@?$AAm?$AAr?$AA?9?$AAI?$AAN?$AA?$AA@ 0044f9b4     libucrt:lcidtoname_downlevel.obj
 0002:000069c0       ??_C@_1M@NIDEAGPH@?$AAs?$AAa?$AA?9?$AAI?$AAN?$AA?$AA@ 0044f9c0     libucrt:lcidtoname_downlevel.obj
 0002:000069cc       ??_C@_1M@FHIHCBIO@?$AAm?$AAn?$AA?9?$AAM?$AAN?$AA?$AA@ 0044f9cc     libucrt:lcidtoname_downlevel.obj
 0002:000069d8       ??_C@_1M@JAIJPENP@?$AAc?$AAy?$AA?9?$AAG?$AAB?$AA?$AA@ 0044f9d8     libucrt:lcidtoname_downlevel.obj
 0002:000069e4       ??_C@_1M@PHGFBEPN@?$AAg?$AAl?$AA?9?$AAE?$AAS?$AA?$AA@ 0044f9e4     libucrt:lcidtoname_downlevel.obj
 0002:000069f0       ??_C@_1O@KPIPDNCP@?$AAk?$AAo?$AAk?$AA?9?$AAI?$AAN?$AA?$AA@ 0044f9f0     libucrt:lcidtoname_downlevel.obj
 0002:00006a00       ??_C@_1O@KNHJLDJA@?$AAs?$AAy?$AAr?$AA?9?$AAS?$AAY?$AA?$AA@ 0044fa00     libucrt:lcidtoname_downlevel.obj
 0002:00006a10       ??_C@_1O@MKEKBLAH@?$AAd?$AAi?$AAv?$AA?9?$AAM?$AAV?$AA?$AA@ 0044fa10     libucrt:lcidtoname_downlevel.obj
 0002:00006a20       ??_C@_1O@OHDCKDDF@?$AAq?$AAu?$AAz?$AA?9?$AAB?$AAO?$AA?$AA@ 0044fa20     libucrt:lcidtoname_downlevel.obj
 0002:00006a30       ??_C@_1M@LEPJNLFD@?$AAn?$AAs?$AA?9?$AAZ?$AAA?$AA?$AA@ 0044fa30     libucrt:lcidtoname_downlevel.obj
 0002:00006a3c       ??_C@_1M@OMLEIIJB@?$AAm?$AAi?$AA?9?$AAN?$AAZ?$AA?$AA@ 0044fa3c     libucrt:lcidtoname_downlevel.obj
 0002:00006a48       ??_C@_1M@PMPEAILG@?$AAa?$AAr?$AA?9?$AAI?$AAQ?$AA?$AA@ 0044fa48     libucrt:lcidtoname_downlevel.obj
 0002:00006a54       ??_C@_1M@CNKPNOEE@?$AAd?$AAe?$AA?9?$AAC?$AAH?$AA?$AA@ 0044fa54     libucrt:lcidtoname_downlevel.obj
 0002:00006a60       ??_C@_1M@LKMGMLKO@?$AAe?$AAn?$AA?9?$AAG?$AAB?$AA?$AA@ 0044fa60     libucrt:lcidtoname_downlevel.obj
 0002:00006a6c       ??_C@_1M@PGKJFFGL@?$AAe?$AAs?$AA?9?$AAM?$AAX?$AA?$AA@ 0044fa6c     libucrt:lcidtoname_downlevel.obj
 0002:00006a78       ??_C@_1M@DNNANBDC@?$AAf?$AAr?$AA?9?$AAB?$AAE?$AA?$AA@ 0044fa78     libucrt:lcidtoname_downlevel.obj
 0002:00006a84       ??_C@_1M@HLGMDFHM@?$AAi?$AAt?$AA?9?$AAC?$AAH?$AA?$AA@ 0044fa84     libucrt:lcidtoname_downlevel.obj
 0002:00006a90       ??_C@_1M@CLLBGJH@?$AAn?$AAl?$AA?9?$AAB?$AAE?$AA?$AA@ 0044fa90     libucrt:lcidtoname_downlevel.obj
 0002:00006a9c       ??_C@_1M@BODBOGLF@?$AAn?$AAn?$AA?9?$AAN?$AAO?$AA?$AA@ 0044fa9c     libucrt:lcidtoname_downlevel.obj
 0002:00006aa8       ??_C@_1M@HFFAHKAD@?$AAp?$AAt?$AA?9?$AAP?$AAT?$AA?$AA@ 0044faa8     libucrt:lcidtoname_downlevel.obj
 0002:00006ab4       ??_C@_1BG@LNOAKHIE@?$AAs?$AAr?$AA?9?$AAS?$AAP?$AA?9?$AAL?$AAa?$AAt?$AAn?$AA?$AA@ 0044fab4     libucrt:lcidtoname_downlevel.obj
 0002:00006acc       ??_C@_1M@HBMHBGAK@?$AAs?$AAv?$AA?9?$AAF?$AAI?$AA?$AA@ 0044facc     libucrt:lcidtoname_downlevel.obj
 0002:00006ad8       ??_C@_1BG@DGCJGJBE@?$AAa?$AAz?$AA?9?$AAA?$AAZ?$AA?9?$AAC?$AAy?$AAr?$AAl?$AA?$AA@ 0044fad8     libucrt:lcidtoname_downlevel.obj
 0002:00006af0       ??_C@_1M@KEJDAAHB@?$AAs?$AAe?$AA?9?$AAS?$AAE?$AA?$AA@ 0044faf0     libucrt:lcidtoname_downlevel.obj
 0002:00006afc       ??_C@_1M@HEIBJJAD@?$AAm?$AAs?$AA?9?$AAB?$AAN?$AA?$AA@ 0044fafc     libucrt:lcidtoname_downlevel.obj
 0002:00006b08       ??_C@_1BG@PBGJMCEM@?$AAu?$AAz?$AA?9?$AAU?$AAZ?$AA?9?$AAC?$AAy?$AAr?$AAl?$AA?$AA@ 0044fb08     libucrt:lcidtoname_downlevel.obj
 0002:00006b20       ??_C@_1O@LAOBCMDF@?$AAq?$AAu?$AAz?$AA?9?$AAE?$AAC?$AA?$AA@ 0044fb20     libucrt:lcidtoname_downlevel.obj
 0002:00006b30       ??_C@_1M@POEEMAIO@?$AAa?$AAr?$AA?9?$AAE?$AAG?$AA?$AA@ 0044fb30     libucrt:lcidtoname_downlevel.obj
 0002:00006b3c       ??_C@_1M@EFAKDEDL@?$AAz?$AAh?$AA?9?$AAH?$AAK?$AA?$AA@ 0044fb3c     libucrt:lcidtoname_downlevel.obj
 0002:00006b48       ??_C@_1M@HKKIJHGI@?$AAd?$AAe?$AA?9?$AAA?$AAT?$AA?$AA@ 0044fb48     libucrt:lcidtoname_downlevel.obj
 0002:00006b54       ??_C@_1M@KBFBEHJF@?$AAe?$AAn?$AA?9?$AAA?$AAU?$AA?$AA@ 0044fb54     libucrt:lcidtoname_downlevel.obj
 0002:00006b60       ??_C@_1M@MNPLFAAH@?$AAe?$AAs?$AA?9?$AAE?$AAS?$AA?$AA@ 0044fb60     libucrt:lcidtoname_downlevel.obj
 0002:00006b6c       ??_C@_1M@HJOOJFMA@?$AAf?$AAr?$AA?9?$AAC?$AAA?$AA?$AA@ 0044fb6c     libucrt:lcidtoname_downlevel.obj
 0002:00006b78       ??_C@_1BG@JPOFPNAB@?$AAs?$AAr?$AA?9?$AAS?$AAP?$AA?9?$AAC?$AAy?$AAr?$AAl?$AA?$AA@ 0044fb78     libucrt:lcidtoname_downlevel.obj
 0002:00006b90       ??_C@_1M@LNFOCMOB@?$AAs?$AAe?$AA?9?$AAF?$AAI?$AA?$AA@ 0044fb90     libucrt:lcidtoname_downlevel.obj
 0002:00006b9c       ??_C@_1O@MGJBOAMB@?$AAq?$AAu?$AAz?$AA?9?$AAP?$AAE?$AA?$AA@ 0044fb9c     libucrt:lcidtoname_downlevel.obj
 0002:00006bac       ??_C@_1M@GJINLBOK@?$AAa?$AAr?$AA?9?$AAL?$AAY?$AA?$AA@ 0044fbac     libucrt:lcidtoname_downlevel.obj
 0002:00006bb8       ??_C@_1M@GGMNHJNL@?$AAz?$AAh?$AA?9?$AAS?$AAG?$AA?$AA@ 0044fbb8     libucrt:lcidtoname_downlevel.obj
 0002:00006bc4       ??_C@_1M@HOIKODND@?$AAd?$AAe?$AA?9?$AAL?$AAU?$AA?$AA@ 0044fbc4     libucrt:lcidtoname_downlevel.obj
 0002:00006bd0       ??_C@_1M@DDOCCGFG@?$AAe?$AAn?$AA?9?$AAC?$AAA?$AA?$AA@ 0044fbd0     libucrt:lcidtoname_downlevel.obj
 0002:00006bdc       ??_C@_1M@BNOEMJLF@?$AAe?$AAs?$AA?9?$AAG?$AAT?$AA?$AA@ 0044fbdc     libucrt:lcidtoname_downlevel.obj
 0002:00006be8       ??_C@_1M@EOGNKEK@?$AAf?$AAr?$AA?9?$AAC?$AAH?$AA?$AA@ 0044fbe8     libucrt:lcidtoname_downlevel.obj
 0002:00006bf4       ??_C@_1M@FLIDJFHL@?$AAh?$AAr?$AA?9?$AAB?$AAA?$AA?$AA@ 0044fbf4     libucrt:lcidtoname_downlevel.obj
 0002:00006c00       ??_C@_1O@FMCELNAJ@?$AAs?$AAm?$AAj?$AA?9?$AAN?$AAO?$AA?$AA@ 0044fc00     libucrt:lcidtoname_downlevel.obj
 0002:00006c10       ??_C@_1M@JHGLJMGJ@?$AAa?$AAr?$AA?9?$AAD?$AAZ?$AA?$AA@ 0044fc10     libucrt:lcidtoname_downlevel.obj
 0002:00006c1c       ??_C@_1M@JKKFDCNP@?$AAz?$AAh?$AA?9?$AAM?$AAO?$AA?$AA@ 0044fc1c     libucrt:lcidtoname_downlevel.obj
 0002:00006c28       ??_C@_1M@GEEFALPE@?$AAd?$AAe?$AA?9?$AAL?$AAI?$AA?$AA@ 0044fc28     libucrt:lcidtoname_downlevel.obj
 0002:00006c34       ??_C@_1M@IGEOFBG@?$AAe?$AAn?$AA?9?$AAN?$AAZ?$AA?$AA@ 0044fc34     libucrt:lcidtoname_downlevel.obj
 0002:00006c40       ??_C@_1M@KDBONEHP@?$AAe?$AAs?$AA?9?$AAC?$AAR?$AA?$AA@ 0044fc40     libucrt:lcidtoname_downlevel.obj
 0002:00006c4c       ??_C@_1M@FHMDOHNN@?$AAf?$AAr?$AA?9?$AAL?$AAU?$AA?$AA@ 0044fc4c     libucrt:lcidtoname_downlevel.obj
 0002:00006c58       ??_C@_1BG@NFKKMAFG@?$AAb?$AAs?$AA?9?$AAB?$AAA?$AA?9?$AAL?$AAa?$AAt?$AAn?$AA?$AA@ 0044fc58     libucrt:lcidtoname_downlevel.obj
 0002:00006c70       ??_C@_1O@IMNBEMCI@?$AAs?$AAm?$AAj?$AA?9?$AAS?$AAE?$AA?$AA@ 0044fc70     libucrt:lcidtoname_downlevel.obj
 0002:00006c80       ??_C@_1M@DHHMBNDP@?$AAa?$AAr?$AA?9?$AAM?$AAA?$AA?$AA@ 0044fc80     libucrt:lcidtoname_downlevel.obj
 0002:00006c8c       ??_C@_1M@BNBLJCGH@?$AAe?$AAn?$AA?9?$AAI?$AAE?$AA?$AA@ 0044fc8c     libucrt:lcidtoname_downlevel.obj
 0002:00006c98       ??_C@_1M@GEPAFMDL@?$AAe?$AAs?$AA?9?$AAP?$AAA?$AA?$AA@ 0044fc98     libucrt:lcidtoname_downlevel.obj
 0002:00006ca4       ??_C@_1M@OJONDMDL@?$AAf?$AAr?$AA?9?$AAM?$AAC?$AA?$AA@ 0044fca4     libucrt:lcidtoname_downlevel.obj
 0002:00006cb0       ??_C@_1BG@OBCNFJB@?$AAs?$AAr?$AA?9?$AAB?$AAA?$AA?9?$AAL?$AAa?$AAt?$AAn?$AA?$AA@ 0044fcb0     libucrt:lcidtoname_downlevel.obj
 0002:00006cc8       ??_C@_1O@KEMEEGPO@?$AAs?$AAm?$AAa?$AA?9?$AAN?$AAO?$AA?$AA@ 0044fcc8     libucrt:lcidtoname_downlevel.obj
 0002:00006cd8       ??_C@_1M@ELMGFODK@?$AAa?$AAr?$AA?9?$AAT?$AAN?$AA?$AA@ 0044fcd8     libucrt:lcidtoname_downlevel.obj
 0002:00006ce4       ??_C@_1M@BHDLHFAF@?$AAe?$AAn?$AA?9?$AAZ?$AAA?$AA?$AA@ 0044fce4     libucrt:lcidtoname_downlevel.obj
 0002:00006cf0       ??_C@_1M@BMGIGLIF@?$AAe?$AAs?$AA?9?$AAD?$AAO?$AA?$AA@ 0044fcf0     libucrt:lcidtoname_downlevel.obj
 0002:00006cfc       ??_C@_1BG@CMBHIPBE@?$AAs?$AAr?$AA?9?$AAB?$AAA?$AA?9?$AAC?$AAy?$AAr?$AAl?$AA?$AA@ 0044fcfc     libucrt:lcidtoname_downlevel.obj
 0002:00006d14       ??_C@_1O@HEDBLHNP@?$AAs?$AAm?$AAa?$AA?9?$AAS?$AAE?$AA?$AA@ 0044fd14     libucrt:lcidtoname_downlevel.obj
 0002:00006d24       ??_C@_1M@DAGCADIM@?$AAa?$AAr?$AA?9?$AAO?$AAM?$AA?$AA@ 0044fd24     libucrt:lcidtoname_downlevel.obj
 0002:00006d30       ??_C@_1M@FODLMICG@?$AAe?$AAn?$AA?9?$AAJ?$AAM?$AA?$AA@ 0044fd30     libucrt:lcidtoname_downlevel.obj
 0002:00006d3c       ??_C@_1M@DNMLCIHB@?$AAe?$AAs?$AA?9?$AAV?$AAE?$AA?$AA@ 0044fd3c     libucrt:lcidtoname_downlevel.obj
 0002:00006d48       ??_C@_1O@EOKHMKJK@?$AAs?$AAm?$AAs?$AA?9?$AAF?$AAI?$AA?$AA@ 0044fd48     libucrt:lcidtoname_downlevel.obj
 0002:00006d58       ??_C@_1M@CAFJMKOF@?$AAa?$AAr?$AA?9?$AAY?$AAE?$AA?$AA@ 0044fd58     libucrt:lcidtoname_downlevel.obj
 0002:00006d64       ??_C@_1M@CBFHIJLI@?$AAe?$AAn?$AA?9?$AAC?$AAB?$AA?$AA@ 0044fd64     libucrt:lcidtoname_downlevel.obj
 0002:00006d70       ??_C@_1M@BGNFLDN@?$AAe?$AAs?$AA?9?$AAC?$AAO?$AA?$AA@ 0044fd70     libucrt:lcidtoname_downlevel.obj
 0002:00006d7c       ??_C@_1O@JMPHMAMC@?$AAs?$AAm?$AAn?$AA?9?$AAF?$AAI?$AA?$AA@ 0044fd7c     libucrt:lcidtoname_downlevel.obj
 0002:00006d8c       ??_C@_1M@JLANABKE@?$AAa?$AAr?$AA?9?$AAS?$AAY?$AA?$AA@ 0044fd8c     libucrt:lcidtoname_downlevel.obj
 0002:00006d98       ??_C@_1M@HPKGCFGN@?$AAe?$AAn?$AA?9?$AAB?$AAZ?$AA?$AA@ 0044fd98     libucrt:lcidtoname_downlevel.obj
 0002:00006da4       ??_C@_1M@OLJCMLGM@?$AAe?$AAs?$AA?9?$AAP?$AAE?$AA?$AA@ 0044fda4     libucrt:lcidtoname_downlevel.obj
 0002:00006db0       ??_C@_1M@MKKGFKLE@?$AAa?$AAr?$AA?9?$AAJ?$AAO?$AA?$AA@ 0044fdb0     libucrt:lcidtoname_downlevel.obj
 0002:00006dbc       ??_C@_1M@EKPGLDNI@?$AAe?$AAn?$AA?9?$AAT?$AAT?$AA?$AA@ 0044fdbc     libucrt:lcidtoname_downlevel.obj
 0002:00006dc8       ??_C@_1M@OONGHFHE@?$AAe?$AAs?$AA?9?$AAA?$AAR?$AA?$AA@ 0044fdc8     libucrt:lcidtoname_downlevel.obj
 0002:00006dd4       ??_C@_1M@OOJFGBHE@?$AAa?$AAr?$AA?9?$AAL?$AAB?$AA?$AA@ 0044fdd4     libucrt:lcidtoname_downlevel.obj
 0002:00006de0       ??_C@_1M@GCEJHNEG@?$AAe?$AAn?$AA?9?$AAZ?$AAW?$AA?$AA@ 0044fde0     libucrt:lcidtoname_downlevel.obj
 0002:00006dec       ??_C@_1M@JNOCAHJI@?$AAe?$AAs?$AA?9?$AAE?$AAC?$AA?$AA@ 0044fdec     libucrt:lcidtoname_downlevel.obj
 0002:00006df8       ??_C@_1M@JEFHPGGB@?$AAa?$AAr?$AA?9?$AAK?$AAW?$AA?$AA@ 0044fdf8     libucrt:lcidtoname_downlevel.obj
 0002:00006e04       ??_C@_1M@MLKIBJOJ@?$AAe?$AAn?$AA?9?$AAP?$AAH?$AA?$AA@ 0044fe04     libucrt:lcidtoname_downlevel.obj
 0002:00006e10       ??_C@_1M@BDNIPEND@?$AAe?$AAs?$AA?9?$AAC?$AAL?$AA?$AA@ 0044fe10     libucrt:lcidtoname_downlevel.obj
 0002:00006e1c       ??_C@_1M@MPNMEKBD@?$AAa?$AAr?$AA?9?$AAA?$AAE?$AA?$AA@ 0044fe1c     libucrt:lcidtoname_downlevel.obj
 0002:00006e28       ??_C@_1M@KBJALCPI@?$AAe?$AAs?$AA?9?$AAU?$AAY?$AA?$AA@ 0044fe28     libucrt:lcidtoname_downlevel.obj
 0002:00006e34       ??_C@_1M@LLCCOAGA@?$AAa?$AAr?$AA?9?$AAB?$AAH?$AA?$AA@ 0044fe34     libucrt:lcidtoname_downlevel.obj
 0002:00006e40       ??_C@_1M@PBFNCDEL@?$AAe?$AAs?$AA?9?$AAP?$AAY?$AA?$AA@ 0044fe40     libucrt:lcidtoname_downlevel.obj
 0002:00006e4c       ??_C@_1M@EDGINPNP@?$AAa?$AAr?$AA?9?$AAQ?$AAA?$AA?$AA@ 0044fe4c     libucrt:lcidtoname_downlevel.obj
 0002:00006e58       ??_C@_1M@MKDBIIJI@?$AAe?$AAs?$AA?9?$AAB?$AAO?$AA?$AA@ 0044fe58     libucrt:lcidtoname_downlevel.obj
 0002:00006e64       ??_C@_1M@CPKKEBLD@?$AAe?$AAs?$AA?9?$AAS?$AAV?$AA?$AA@ 0044fe64     libucrt:lcidtoname_downlevel.obj
 0002:00006e70       ??_C@_1M@NDBGMMJL@?$AAe?$AAs?$AA?9?$AAH?$AAN?$AA?$AA@ 0044fe70     libucrt:lcidtoname_downlevel.obj
 0002:00006e7c       ??_C@_1M@JIJIBHDP@?$AAe?$AAs?$AA?9?$AAN?$AAI?$AA?$AA@ 0044fe7c     libucrt:lcidtoname_downlevel.obj
 0002:00006e88       ??_C@_1M@CGFMKEEK@?$AAe?$AAs?$AA?9?$AAP?$AAR?$AA?$AA@ 0044fe88     libucrt:lcidtoname_downlevel.obj
 0002:00006e94       ??_C@_1O@ICJHKIIK@?$AAz?$AAh?$AA?9?$AAC?$AAH?$AAT?$AA?$AA@ 0044fe94     libucrt:lcidtoname_downlevel.obj
 0002:00006ea4       ??_C@_15CLNEJCE@?$AAs?$AAr?$AA?$AA@ 0044fea4     libucrt:lcidtoname_downlevel.obj
 0002:000075d0       ??_C@_1M@KAHEKEIG@?$AAa?$AAf?$AA?9?$AAz?$AAa?$AA?$AA@ 004505d0     libucrt:lcidtoname_downlevel.obj
 0002:000075dc       ??_C@_1M@GIECOABL@?$AAa?$AAr?$AA?9?$AAa?$AAe?$AA?$AA@ 004505dc     libucrt:lcidtoname_downlevel.obj
 0002:000075e8       ??_C@_1M@BMLMEKGI@?$AAa?$AAr?$AA?9?$AAb?$AAh?$AA?$AA@ 004505e8     libucrt:lcidtoname_downlevel.obj
 0002:000075f4       ??_C@_1M@DAPFDGGB@?$AAa?$AAr?$AA?9?$AAd?$AAz?$AA?$AA@ 004505f4     libucrt:lcidtoname_downlevel.obj
 0002:00007600       ??_C@_1M@FJNKGKIG@?$AAa?$AAr?$AA?9?$AAe?$AAg?$AA?$AA@ 00450600     libucrt:lcidtoname_downlevel.obj
 0002:0000760c       ??_C@_1M@FLGKKCLO@?$AAa?$AAr?$AA?9?$AAi?$AAq?$AA?$AA@ 0045060c     libucrt:lcidtoname_downlevel.obj
 0002:00007618       ??_C@_1M@GNDIPALM@?$AAa?$AAr?$AA?9?$AAj?$AAo?$AA?$AA@ 00450618     libucrt:lcidtoname_downlevel.obj
 0002:00007624       ??_C@_1M@DDMJFMGJ@?$AAa?$AAr?$AA?9?$AAk?$AAw?$AA?$AA@ 00450624     libucrt:lcidtoname_downlevel.obj
 0002:00007630       ??_C@_1M@EJALMLHM@?$AAa?$AAr?$AA?9?$AAl?$AAb?$AA?$AA@ 00450630     libucrt:lcidtoname_downlevel.obj
 0002:0000763c       ??_C@_1M@MOBDBLOC@?$AAa?$AAr?$AA?9?$AAl?$AAy?$AA?$AA@ 0045063c     libucrt:lcidtoname_downlevel.obj
 0002:00007648       ??_C@_1M@JAOCLHDH@?$AAa?$AAr?$AA?9?$AAm?$AAa?$AA?$AA@ 00450648     libucrt:lcidtoname_downlevel.obj
 0002:00007654       ??_C@_1M@JHPMKJIE@?$AAa?$AAr?$AA?9?$AAo?$AAm?$AA?$AA@ 00450654     libucrt:lcidtoname_downlevel.obj
 0002:00007660       ??_C@_1M@OEPGHFNH@?$AAa?$AAr?$AA?9?$AAq?$AAa?$AA?$AA@ 00450660     libucrt:lcidtoname_downlevel.obj
 0002:0000766c       ??_C@_1M@KJDONENM@?$AAa?$AAr?$AA?9?$AAs?$AAa?$AA?$AA@ 0045066c     libucrt:lcidtoname_downlevel.obj
 0002:00007678       ??_C@_1M@DMJDKLKM@?$AAa?$AAr?$AA?9?$AAs?$AAy?$AA?$AA@ 00450678     libucrt:lcidtoname_downlevel.obj
 0002:00007684       ??_C@_1M@OMFIPEDC@?$AAa?$AAr?$AA?9?$AAt?$AAn?$AA?$AA@ 00450684     libucrt:lcidtoname_downlevel.obj
 0002:00007690       ??_C@_1M@IHMHGAON@?$AAa?$AAr?$AA?9?$AAy?$AAe?$AA?$AA@ 00450690     libucrt:lcidtoname_downlevel.obj
 0002:0000769c       ??_C@_1BG@KDCPGJGB@?$AAa?$AAz?$AA?9?$AAa?$AAz?$AA?9?$AAc?$AAy?$AAr?$AAl?$AA?$AA@ 0045069c     libucrt:lcidtoname_downlevel.obj
 0002:000076b4       ??_C@_1BG@IBCKDDOE@?$AAa?$AAz?$AA?9?$AAa?$AAz?$AA?9?$AAl?$AAa?$AAt?$AAn?$AA?$AA@ 004506b4     libucrt:lcidtoname_downlevel.obj
 0002:000076cc       ??_C@_1M@EGPFDCPD@?$AAb?$AAe?$AA?9?$AAb?$AAy?$AA?$AA@ 004506cc     libucrt:lcidtoname_downlevel.obj
 0002:000076d8       ??_C@_1M@PCMGMCGC@?$AAb?$AAg?$AA?9?$AAb?$AAg?$AA?$AA@ 004506d8     libucrt:lcidtoname_downlevel.obj
 0002:000076e4       ??_C@_1M@BJBMFGOB@?$AAb?$AAn?$AA?9?$AAi?$AAn?$AA?$AA@ 004506e4     libucrt:lcidtoname_downlevel.obj
 0002:000076f0       ??_C@_1BG@EAKMMACD@?$AAb?$AAs?$AA?9?$AAb?$AAa?$AA?9?$AAl?$AAa?$AAt?$AAn?$AA?$AA@ 004506f0     libucrt:lcidtoname_downlevel.obj
 0002:00007708       ??_C@_1M@KGADAODK@?$AAc?$AAa?$AA?9?$AAe?$AAs?$AA?$AA@ 00450708     libucrt:lcidtoname_downlevel.obj
 0002:00007714       ??_C@_1M@COAJPDHI@?$AAc?$AAs?$AA?9?$AAc?$AAz?$AA?$AA@ 00450714     libucrt:lcidtoname_downlevel.obj
 0002:00007720       ??_C@_1M@DHBHFONH@?$AAc?$AAy?$AA?9?$AAg?$AAb?$AA?$AA@ 00450720     libucrt:lcidtoname_downlevel.obj
 0002:0000772c       ??_C@_1M@IMGKELGA@?$AAd?$AAa?$AA?9?$AAd?$AAk?$AA?$AA@ 0045072c     libucrt:lcidtoname_downlevel.obj
 0002:00007738       ??_C@_1M@NNDGDNGA@?$AAd?$AAe?$AA?9?$AAa?$AAt?$AA?$AA@ 00450738     libucrt:lcidtoname_downlevel.obj
 0002:00007744       ??_C@_1M@IKDBHEEM@?$AAd?$AAe?$AA?9?$AAc?$AAh?$AA?$AA@ 00450744     libucrt:lcidtoname_downlevel.obj
 0002:00007750       ??_C@_1M@GFFOJMCJ@?$AAd?$AAe?$AA?9?$AAd?$AAe?$AA?$AA@ 00450750     libucrt:lcidtoname_downlevel.obj
 0002:0000775c       ??_C@_1M@MDNLKBPM@?$AAd?$AAe?$AA?9?$AAl?$AAi?$AA?$AA@ 0045075c     libucrt:lcidtoname_downlevel.obj
 0002:00007768       ??_C@_1M@NJBEEJNL@?$AAd?$AAe?$AA?9?$AAl?$AAu?$AA?$AA@ 00450768     libucrt:lcidtoname_downlevel.obj
 0002:00007774       ??_C@_1O@GNNELBAP@?$AAd?$AAi?$AAv?$AA?9?$AAm?$AAv?$AA?$AA@ 00450774     libucrt:lcidtoname_downlevel.obj
 0002:00007784       ??_C@_1M@EJLEOGAE@?$AAe?$AAl?$AA?9?$AAg?$AAr?$AA?$AA@ 00450784     libucrt:lcidtoname_downlevel.obj
 0002:00007790       ??_C@_1M@GMPONJN@?$AAe?$AAn?$AA?9?$AAa?$AAu?$AA?$AA@ 00450790     libucrt:lcidtoname_downlevel.obj
 0002:0000779c       ??_C@_1M@NIDIIPGF@?$AAe?$AAn?$AA?9?$AAb?$AAz?$AA?$AA@ 0045079c     libucrt:lcidtoname_downlevel.obj
 0002:000077a8       ??_C@_1M@JEHMIMFO@?$AAe?$AAn?$AA?9?$AAc?$AAa?$AA?$AA@ 004507a8     libucrt:lcidtoname_downlevel.obj
 0002:000077b4       ??_C@_1M@IGMJCDLA@?$AAe?$AAn?$AA?9?$AAc?$AAb?$AA?$AA@ 004507b4     libucrt:lcidtoname_downlevel.obj
 0002:000077c0       ??_C@_1M@BNFIGBKG@?$AAe?$AAn?$AA?9?$AAg?$AAb?$AA?$AA@ 004507c0     libucrt:lcidtoname_downlevel.obj
 0002:000077cc       ??_C@_1M@LKIFDIGP@?$AAe?$AAn?$AA?9?$AAi?$AAe?$AA?$AA@ 004507cc     libucrt:lcidtoname_downlevel.obj
 0002:000077d8       ??_C@_1M@PJKFGCCO@?$AAe?$AAn?$AA?9?$AAj?$AAm?$AA?$AA@ 004507d8     libucrt:lcidtoname_downlevel.obj
 0002:000077e4       ??_C@_1M@KPPKEPBO@?$AAe?$AAn?$AA?9?$AAn?$AAz?$AA?$AA@ 004507e4     libucrt:lcidtoname_downlevel.obj
 0002:000077f0       ??_C@_1M@GMDGLDOB@?$AAe?$AAn?$AA?9?$AAp?$AAh?$AA?$AA@ 004507f0     libucrt:lcidtoname_downlevel.obj
 0002:000077fc       ??_C@_1M@ONGIBJNA@?$AAe?$AAn?$AA?9?$AAt?$AAt?$AA?$AA@ 004507fc     libucrt:lcidtoname_downlevel.obj
 0002:00007808       ??_C@_1M@LLODPCMM@?$AAe?$AAn?$AA?9?$AAu?$AAs?$AA?$AA@ 00450808     libucrt:lcidtoname_downlevel.obj
 0002:00007814       ??_C@_1M@LAKFNPAN@?$AAe?$AAn?$AA?9?$AAz?$AAa?$AA?$AA@ 00450814     libucrt:lcidtoname_downlevel.obj
 0002:00007820       ??_C@_1M@MFNHNHEO@?$AAe?$AAn?$AA?9?$AAz?$AAw?$AA?$AA@ 00450820     libucrt:lcidtoname_downlevel.obj
 0002:0000782c       ??_C@_1M@EJEINPHM@?$AAe?$AAs?$AA?9?$AAa?$AAr?$AA?$AA@ 0045082c     libucrt:lcidtoname_downlevel.obj
 0002:00007838       ??_C@_1M@GNKPCCJA@?$AAe?$AAs?$AA?9?$AAb?$AAo?$AA?$AA@ 00450838     libucrt:lcidtoname_downlevel.obj
 0002:00007844       ??_C@_1M@LEEGFONL@?$AAe?$AAs?$AA?9?$AAc?$AAl?$AA?$AA@ 00450844     libucrt:lcidtoname_downlevel.obj
 0002:00007850       ??_C@_1M@KGPDPBDF@?$AAe?$AAs?$AA?9?$AAc?$AAo?$AA?$AA@ 00450850     libucrt:lcidtoname_downlevel.obj
 0002:0000785c       ??_C@_1M@EIAHOHH@?$AAe?$AAs?$AA?9?$AAc?$AAr?$AA?$AA@ 0045085c     libucrt:lcidtoname_downlevel.obj
 0002:00007868       ??_C@_1M@LLPGMBIN@?$AAe?$AAs?$AA?9?$AAd?$AAo?$AA?$AA@ 00450868     libucrt:lcidtoname_downlevel.obj
 0002:00007874       ??_C@_1M@DKHMKNJA@?$AAe?$AAs?$AA?9?$AAe?$AAc?$AA?$AA@ 00450874     libucrt:lcidtoname_downlevel.obj
 0002:00007880       ??_C@_1M@GKGFPKAP@?$AAe?$AAs?$AA?9?$AAe?$AAs?$AA?$AA@ 00450880     libucrt:lcidtoname_downlevel.obj
 0002:0000788c       ??_C@_1M@LKHKGDLN@?$AAe?$AAs?$AA?9?$AAg?$AAt?$AA?$AA@ 0045088c     libucrt:lcidtoname_downlevel.obj
 0002:00007898       ??_C@_1M@HEIIGGJD@?$AAe?$AAs?$AA?9?$AAh?$AAn?$AA?$AA@ 00450898     libucrt:lcidtoname_downlevel.obj
 0002:000078a4       ??_C@_1M@FBDHPPGD@?$AAe?$AAs?$AA?9?$AAm?$AAx?$AA?$AA@ 004508a4     libucrt:lcidtoname_downlevel.obj
 0002:000078b0       ??_C@_1M@DPAGLNDH@?$AAe?$AAs?$AA?9?$AAn?$AAi?$AA?$AA@ 004508b0     libucrt:lcidtoname_downlevel.obj
 0002:000078bc       ??_C@_1M@MDGOPGDD@?$AAe?$AAs?$AA?9?$AAp?$AAa?$AA?$AA@ 004508bc     libucrt:lcidtoname_downlevel.obj
 0002:000078c8       ??_C@_1M@EMAMGBGE@?$AAe?$AAs?$AA?9?$AAp?$AAe?$AA?$AA@ 004508c8     libucrt:lcidtoname_downlevel.obj
 0002:000078d4       ??_C@_1M@IBMCAOEC@?$AAe?$AAs?$AA?9?$AAp?$AAr?$AA?$AA@ 004508d4     libucrt:lcidtoname_downlevel.obj
 0002:000078e0       ??_C@_1M@FGMDIJED@?$AAe?$AAs?$AA?9?$AAp?$AAy?$AA?$AA@ 004508e0     libucrt:lcidtoname_downlevel.obj
 0002:000078ec       ??_C@_1M@IIDEOLLL@?$AAe?$AAs?$AA?9?$AAs?$AAv?$AA?$AA@ 004508ec     libucrt:lcidtoname_downlevel.obj
 0002:000078f8       ??_C@_1M@GAOBIPA@?$AAe?$AAs?$AA?9?$AAu?$AAy?$AA?$AA@ 004508f8     libucrt:lcidtoname_downlevel.obj
 0002:00007904       ??_C@_1M@JKFFICHJ@?$AAe?$AAs?$AA?9?$AAv?$AAe?$AA?$AA@ 00450904     libucrt:lcidtoname_downlevel.obj
 0002:00007910       ??_C@_1M@PNMLOJDF@?$AAe?$AAt?$AA?9?$AAe?$AAe?$AA?$AA@ 00450910     libucrt:lcidtoname_downlevel.obj
 0002:0000791c       ??_C@_1M@GHHLIKEI@?$AAe?$AAu?$AA?9?$AAe?$AAs?$AA?$AA@ 0045091c     libucrt:lcidtoname_downlevel.obj
 0002:00007928       ??_C@_1M@PBNONODE@?$AAf?$AAa?$AA?9?$AAi?$AAr?$AA?$AA@ 00450928     libucrt:lcidtoname_downlevel.obj
 0002:00007934       ??_C@_1M@JEEHPMIL@?$AAf?$AAi?$AA?9?$AAf?$AAi?$AA?$AA@ 00450934     libucrt:lcidtoname_downlevel.obj
 0002:00007940       ??_C@_1M@LMDCNDBA@?$AAf?$AAo?$AA?9?$AAf?$AAo?$AA?$AA@ 00450940     libucrt:lcidtoname_downlevel.obj
 0002:0000794c       ??_C@_1M@JKEOHLDK@?$AAf?$AAr?$AA?9?$AAb?$AAe?$AA?$AA@ 0045094c     libucrt:lcidtoname_downlevel.obj
 0002:00007958       ??_C@_1M@NOHADPMI@?$AAf?$AAr?$AA?9?$AAc?$AAa?$AA?$AA@ 00450958     libucrt:lcidtoname_downlevel.obj
 0002:00007964       ??_C@_1M@KDHIHAEC@?$AAf?$AAr?$AA?9?$AAc?$AAh?$AA?$AA@ 00450964     libucrt:lcidtoname_downlevel.obj
 0002:00007970       ??_C@_1M@MMBBFGAK@?$AAf?$AAr?$AA?9?$AAf?$AAr?$AA?$AA@ 00450970     libucrt:lcidtoname_downlevel.obj
 0002:0000797c       ??_C@_1M@PAFNENNF@?$AAf?$AAr?$AA?9?$AAl?$AAu?$AA?$AA@ 0045097c     libucrt:lcidtoname_downlevel.obj
 0002:00007988       ??_C@_1M@EOHDJGDD@?$AAf?$AAr?$AA?9?$AAm?$AAc?$AA?$AA@ 00450988     libucrt:lcidtoname_downlevel.obj
 0002:00007994       ??_C@_1M@FAPLLOPF@?$AAg?$AAl?$AA?9?$AAe?$AAs?$AA?$AA@ 00450994     libucrt:lcidtoname_downlevel.obj
 0002:000079a0       ??_C@_1M@FOPBFLOO@?$AAg?$AAu?$AA?9?$AAi?$AAn?$AA?$AA@ 004509a0     libucrt:lcidtoname_downlevel.obj
 0002:000079ac       ??_C@_1M@KBMCINPM@?$AAh?$AAe?$AA?9?$AAi?$AAl?$AA?$AA@ 004509ac     libucrt:lcidtoname_downlevel.obj
 0002:000079b8       ??_C@_1M@BBPHKFPJ@?$AAh?$AAi?$AA?9?$AAi?$AAn?$AA?$AA@ 004509b8     libucrt:lcidtoname_downlevel.obj
 0002:000079c4       ??_C@_1M@PMBNDPHD@?$AAh?$AAr?$AA?9?$AAb?$AAa?$AA?$AA@ 004509c4     libucrt:lcidtoname_downlevel.obj
 0002:000079d0       ??_C@_1M@BPCKOEGE@?$AAh?$AAr?$AA?9?$AAh?$AAr?$AA?$AA@ 004509d0     libucrt:lcidtoname_downlevel.obj
 0002:000079dc       ??_C@_1M@GACBMHKE@?$AAh?$AAu?$AA?9?$AAh?$AAu?$AA?$AA@ 004509dc     libucrt:lcidtoname_downlevel.obj
 0002:000079e8       ??_C@_1M@MILPAJJC@?$AAh?$AAy?$AA?9?$AAa?$AAm?$AA?$AA@ 004509e8     libucrt:lcidtoname_downlevel.obj
 0002:000079f4       ??_C@_1M@BABBICEC@?$AAi?$AAd?$AA?9?$AAi?$AAd?$AA?$AA@ 004509f4     libucrt:lcidtoname_downlevel.obj
 0002:00007a00       ??_C@_1M@BIKNHHPF@?$AAi?$AAs?$AA?9?$AAi?$AAs?$AA?$AA@ 00450a00     libucrt:lcidtoname_downlevel.obj
 0002:00007a0c       ??_C@_1M@NMPCJPHE@?$AAi?$AAt?$AA?9?$AAc?$AAh?$AA?$AA@ 00450a0c     libucrt:lcidtoname_downlevel.obj
 0002:00007a18       ??_C@_1M@GHKGFEDF@?$AAi?$AAt?$AA?9?$AAi?$AAt?$AA?$AA@ 00450a18     libucrt:lcidtoname_downlevel.obj
 0002:00007a24       ??_C@_1M@NIEJCJJA@?$AAj?$AAa?$AA?9?$AAj?$AAp?$AA?$AA@ 00450a24     libucrt:lcidtoname_downlevel.obj
 0002:00007a30       ??_C@_1M@JILFNBIM@?$AAk?$AAa?$AA?9?$AAg?$AAe?$AA?$AA@ 00450a30     libucrt:lcidtoname_downlevel.obj
 0002:00007a3c       ??_C@_1M@PACPMGPH@?$AAk?$AAk?$AA?9?$AAk?$AAz?$AA?$AA@ 00450a3c     libucrt:lcidtoname_downlevel.obj
 0002:00007a48       ??_C@_1M@IELFGMHA@?$AAk?$AAn?$AA?9?$AAi?$AAn?$AA?$AA@ 00450a48     libucrt:lcidtoname_downlevel.obj
 0002:00007a54       ??_C@_1O@IBBJHCH@?$AAk?$AAo?$AAk?$AA?9?$AAi?$AAn?$AA?$AA@ 00450a54     libucrt:lcidtoname_downlevel.obj
 0002:00007a64       ??_C@_1M@DMHAEOGC@?$AAk?$AAo?$AA?9?$AAk?$AAr?$AA?$AA@ 00450a64     libucrt:lcidtoname_downlevel.obj
 0002:00007a70       ??_C@_1M@HBAHBIGA@?$AAk?$AAy?$AA?9?$AAk?$AAg?$AA?$AA@ 00450a70     libucrt:lcidtoname_downlevel.obj
 0002:00007a7c       ??_C@_1M@KPMILCJG@?$AAl?$AAt?$AA?9?$AAl?$AAt?$AA?$AA@ 00450a7c     libucrt:lcidtoname_downlevel.obj
 0002:00007a88       ??_C@_1M@BDEKKCA@?$AAl?$AAv?$AA?9?$AAl?$AAv?$AA?$AA@ 00450a88     libucrt:lcidtoname_downlevel.obj
 0002:00007a94       ??_C@_1M@ELCKCCJJ@?$AAm?$AAi?$AA?9?$AAn?$AAz?$AA?$AA@ 00450a94     libucrt:lcidtoname_downlevel.obj
 0002:00007aa0       ??_C@_1M@CBOOLAPA@?$AAm?$AAk?$AA?9?$AAm?$AAk?$AA?$AA@ 00450aa0     libucrt:lcidtoname_downlevel.obj
 0002:00007aac       ??_C@_1M@GPHNBJKN@?$AAm?$AAl?$AA?9?$AAi?$AAn?$AA?$AA@ 00450aac     libucrt:lcidtoname_downlevel.obj
 0002:00007ab8       ??_C@_1M@PABJILIG@?$AAm?$AAn?$AA?9?$AAm?$AAn?$AA?$AA@ 00450ab8     libucrt:lcidtoname_downlevel.obj
 0002:00007ac4       ??_C@_1M@FGBKKIPG@?$AAm?$AAr?$AA?9?$AAi?$AAn?$AA?$AA@ 00450ac4     libucrt:lcidtoname_downlevel.obj
 0002:00007ad0       ??_C@_1M@NDBPDDAL@?$AAm?$AAs?$AA?9?$AAb?$AAn?$AA?$AA@ 00450ad0     libucrt:lcidtoname_downlevel.obj
 0002:00007adc       ??_C@_1M@OPIHOOPI@?$AAm?$AAs?$AA?9?$AAm?$AAy?$AA?$AA@ 00450adc     libucrt:lcidtoname_downlevel.obj
 0002:00007ae8       ??_C@_1M@PPDBCNFM@?$AAm?$AAt?$AA?9?$AAm?$AAt?$AA?$AA@ 00450ae8     libucrt:lcidtoname_downlevel.obj
 0002:00007af4       ??_C@_1M@KDJDKMDD@?$AAn?$AAb?$AA?9?$AAn?$AAo?$AA?$AA@ 00450af4     libucrt:lcidtoname_downlevel.obj
 0002:00007b00       ??_C@_1M@KFCFLMJP@?$AAn?$AAl?$AA?9?$AAb?$AAe?$AA?$AA@ 00450b00     libucrt:lcidtoname_downlevel.obj
 0002:00007b0c       ??_C@_1M@KPOPDDGO@?$AAn?$AAl?$AA?9?$AAn?$AAl?$AA?$AA@ 00450b0c     libucrt:lcidtoname_downlevel.obj
 0002:00007b18       ??_C@_1M@LJKPEMLN@?$AAn?$AAn?$AA?9?$AAn?$AAo?$AA?$AA@ 00450b18     libucrt:lcidtoname_downlevel.obj
 0002:00007b24       ??_C@_1M@BDGHHBFL@?$AAn?$AAs?$AA?9?$AAz?$AAa?$AA?$AA@ 00450b24     libucrt:lcidtoname_downlevel.obj
 0002:00007b30       ??_C@_1M@IDEHOAP@?$AAp?$AAa?$AA?9?$AAi?$AAn?$AA?$AA@ 00450b30     libucrt:lcidtoname_downlevel.obj
 0002:00007b3c       ??_C@_1M@HDBKGOGH@?$AAp?$AAl?$AA?9?$AAp?$AAl?$AA?$AA@ 00450b3c     libucrt:lcidtoname_downlevel.obj
 0002:00007b48       ??_C@_1M@LJLLCMEH@?$AAp?$AAt?$AA?9?$AAb?$AAr?$AA?$AA@ 00450b48     libucrt:lcidtoname_downlevel.obj
 0002:00007b54       ??_C@_1M@NCMONAAL@?$AAp?$AAt?$AA?9?$AAp?$AAt?$AA?$AA@ 00450b54     libucrt:lcidtoname_downlevel.obj
 0002:00007b60       ??_C@_1O@EAKMAJDN@?$AAq?$AAu?$AAz?$AA?9?$AAb?$AAo?$AA?$AA@ 00450b60     libucrt:lcidtoname_downlevel.obj
 0002:00007b70       ??_C@_1O@BHHPIGDN@?$AAq?$AAu?$AAz?$AA?9?$AAe?$AAc?$AA?$AA@ 00450b70     libucrt:lcidtoname_downlevel.obj
 0002:00007b80       ??_C@_1O@GBAPEKMJ@?$AAq?$AAu?$AAz?$AA?9?$AAp?$AAe?$AA?$AA@ 00450b80     libucrt:lcidtoname_downlevel.obj
 0002:00007b90       ??_C@_1M@CLGLEFBO@?$AAr?$AAo?$AA?9?$AAr?$AAo?$AA?$AA@ 00450b90     libucrt:lcidtoname_downlevel.obj
 0002:00007b9c       ??_C@_1M@CEEDODME@?$AAr?$AAu?$AA?9?$AAr?$AAu?$AA?$AA@ 00450b9c     libucrt:lcidtoname_downlevel.obj
 0002:00007ba8       ??_C@_1M@HPKKKMPP@?$AAs?$AAa?$AA?9?$AAi?$AAn?$AA?$AA@ 00450ba8     libucrt:lcidtoname_downlevel.obj
 0002:00007bb4       ??_C@_1M@BKMAIGOJ@?$AAs?$AAe?$AA?9?$AAf?$AAi?$AA?$AA@ 00450bb4     libucrt:lcidtoname_downlevel.obj
 0002:00007bc0       ??_C@_1M@NDPIFLFI@?$AAs?$AAe?$AA?9?$AAn?$AAo?$AA?$AA@ 00450bc0     libucrt:lcidtoname_downlevel.obj
 0002:00007bcc       ??_C@_1M@DANKKHJ@?$AAs?$AAe?$AA?9?$AAs?$AAe?$AA?$AA@ 00450bcc     libucrt:lcidtoname_downlevel.obj
 0002:00007bd8       ??_C@_1M@PNBLONPJ@?$AAs?$AAk?$AA?9?$AAs?$AAk?$AA?$AA@ 00450bd8     libucrt:lcidtoname_downlevel.obj
 0002:00007be4       ??_C@_1M@LFMODOAL@?$AAs?$AAl?$AA?9?$AAs?$AAi?$AA?$AA@ 00450be4     libucrt:lcidtoname_downlevel.obj
 0002:00007bf0       ??_C@_1O@DFKOMPG@?$AAs?$AAm?$AAa?$AA?9?$AAn?$AAo?$AA?$AA@ 00450bf0     libucrt:lcidtoname_downlevel.obj
 0002:00007c00       ??_C@_1O@NDKPBNNH@?$AAs?$AAm?$AAa?$AA?9?$AAs?$AAe?$AA?$AA@ 00450c00     libucrt:lcidtoname_downlevel.obj
 0002:00007c10       ??_C@_1O@PLLKBHAB@?$AAs?$AAm?$AAj?$AA?9?$AAn?$AAo?$AA?$AA@ 00450c10     libucrt:lcidtoname_downlevel.obj
 0002:00007c20       ??_C@_1O@CLEPOGCA@?$AAs?$AAm?$AAj?$AA?9?$AAs?$AAe?$AA?$AA@ 00450c20     libucrt:lcidtoname_downlevel.obj
 0002:00007c30       ??_C@_1O@DLGJGKMK@?$AAs?$AAm?$AAn?$AA?9?$AAf?$AAi?$AA?$AA@ 00450c30     libucrt:lcidtoname_downlevel.obj
 0002:00007c40       ??_C@_1O@OJDJGAJC@?$AAs?$AAm?$AAs?$AA?9?$AAf?$AAi?$AA?$AA@ 00450c40     libucrt:lcidtoname_downlevel.obj
 0002:00007c50       ??_C@_1M@BOFOGHPB@?$AAs?$AAq?$AA?9?$AAa?$AAl?$AA?$AA@ 00450c50     libucrt:lcidtoname_downlevel.obj
 0002:00007c5c       ??_C@_1BG@LJBBIPGB@?$AAs?$AAr?$AA?9?$AAb?$AAa?$AA?9?$AAc?$AAy?$AAr?$AAl?$AA?$AA@ 00450c5c     libucrt:lcidtoname_downlevel.obj
 0002:00007c74       ??_C@_1BG@JLBENFOE@?$AAs?$AAr?$AA?9?$AAb?$AAa?$AA?9?$AAl?$AAa?$AAt?$AAn?$AA?$AA@ 00450c74     libucrt:lcidtoname_downlevel.obj
 0002:00007c8c       ??_C@_1BG@KODPNHE@?$AAs?$AAr?$AA?9?$AAs?$AAp?$AA?9?$AAc?$AAy?$AAr?$AAl?$AA?$AA@ 00450c8c     libucrt:lcidtoname_downlevel.obj
 0002:00007ca4       ??_C@_1BG@CIOGKHPB@?$AAs?$AAr?$AA?9?$AAs?$AAp?$AA?9?$AAl?$AAa?$AAt?$AAn?$AA?$AA@ 00450ca4     libucrt:lcidtoname_downlevel.obj
 0002:00007cbc       ??_C@_1M@NGFJLMAC@?$AAs?$AAv?$AA?9?$AAf?$AAi?$AA?$AA@ 00450cbc     libucrt:lcidtoname_downlevel.obj
 0002:00007cc8       ??_C@_1M@MPJEJAJC@?$AAs?$AAv?$AA?9?$AAs?$AAe?$AA?$AA@ 00450cc8     libucrt:lcidtoname_downlevel.obj
 0002:00007cd4       ??_C@_1M@MPNDHLFK@?$AAs?$AAw?$AA?9?$AAk?$AAe?$AA?$AA@ 00450cd4     libucrt:lcidtoname_downlevel.obj
 0002:00007ce0       ??_C@_1O@KOHBJJI@?$AAs?$AAy?$AAr?$AA?9?$AAs?$AAy?$AA?$AA@ 00450ce0     libucrt:lcidtoname_downlevel.obj
 0002:00007cf0       ??_C@_1M@LDCEFHA@?$AAt?$AAa?$AA?9?$AAi?$AAn?$AA?$AA@ 00450cf0     libucrt:lcidtoname_downlevel.obj
 0002:00007cfc       ??_C@_1M@CNJOFAK@?$AAt?$AAe?$AA?9?$AAi?$AAn?$AA?$AA@ 00450cfc     libucrt:lcidtoname_downlevel.obj
 0002:00007d08       ??_C@_1M@GNAECACD@?$AAt?$AAh?$AA?9?$AAt?$AAh?$AA?$AA@ 00450d08     libucrt:lcidtoname_downlevel.obj
 0002:00007d14       ??_C@_1M@CHBIHOJO@?$AAt?$AAn?$AA?9?$AAz?$AAa?$AA?$AA@ 00450d14     libucrt:lcidtoname_downlevel.obj
 0002:00007d20       ??_C@_1M@GCCMIGPJ@?$AAt?$AAr?$AA?9?$AAt?$AAr?$AA?$AA@ 00450d20     libucrt:lcidtoname_downlevel.obj
 0002:00007d2c       ??_C@_1M@CELMCNBK@?$AAt?$AAt?$AA?9?$AAr?$AAu?$AA?$AA@ 00450d2c     libucrt:lcidtoname_downlevel.obj
 0002:00007d38       ??_C@_1M@KLMCELGA@?$AAu?$AAk?$AA?9?$AAu?$AAa?$AA?$AA@ 00450d38     libucrt:lcidtoname_downlevel.obj
 0002:00007d44       ??_C@_1M@EPAJJAJF@?$AAu?$AAr?$AA?9?$AAp?$AAk?$AA?$AA@ 00450d44     libucrt:lcidtoname_downlevel.obj
 0002:00007d50       ??_C@_1BG@GEGPMCDJ@?$AAu?$AAz?$AA?9?$AAu?$AAz?$AA?9?$AAc?$AAy?$AAr?$AAl?$AA?$AA@ 00450d50     libucrt:lcidtoname_downlevel.obj
 0002:00007d68       ??_C@_1BG@EGGKJILM@?$AAu?$AAz?$AA?9?$AAu?$AAz?$AA?9?$AAl?$AAa?$AAt?$AAn?$AA?$AA@ 00450d68     libucrt:lcidtoname_downlevel.obj
 0002:00007d80       ??_C@_1M@GFOCLFF@?$AAv?$AAi?$AA?9?$AAv?$AAn?$AA?$AA@ 00450d80     libucrt:lcidtoname_downlevel.obj
 0002:00007d8c       ??_C@_1M@CPAMEDFI@?$AAx?$AAh?$AA?9?$AAz?$AAa?$AA?$AA@ 00450d8c     libucrt:lcidtoname_downlevel.obj
 0002:00007d98       ??_C@_1O@EBKIFIGN@?$AAz?$AAh?$AA?9?$AAc?$AAh?$AAs?$AA?$AA@ 00450d98     libucrt:lcidtoname_downlevel.obj
 0002:00007da8       ??_C@_1O@NMHPGANE@?$AAz?$AAh?$AA?9?$AAc?$AAh?$AAt?$AA?$AA@ 00450da8     libucrt:lcidtoname_downlevel.obj
 0002:00007db8       ??_C@_1M@LPINJOMC@?$AAz?$AAh?$AA?9?$AAc?$AAn?$AA?$AA@ 00450db8     libucrt:lcidtoname_downlevel.obj
 0002:00007dc4       ??_C@_1M@OCJEJODD@?$AAz?$AAh?$AA?9?$AAh?$AAk?$AA?$AA@ 00450dc4     libucrt:lcidtoname_downlevel.obj
 0002:00007dd0       ??_C@_1M@DNDLJINH@?$AAz?$AAh?$AA?9?$AAm?$AAo?$AA?$AA@ 00450dd0     libucrt:lcidtoname_downlevel.obj
 0002:00007ddc       ??_C@_1M@MBFDNDND@?$AAz?$AAh?$AA?9?$AAs?$AAg?$AA?$AA@ 00450ddc     libucrt:lcidtoname_downlevel.obj
 0002:00007de8       ??_C@_1M@IMEPLEPE@?$AAz?$AAh?$AA?9?$AAt?$AAw?$AA?$AA@ 00450de8     libucrt:lcidtoname_downlevel.obj
 0002:00007df4       ??_C@_1M@BBGHNHJP@?$AAz?$AAu?$AA?9?$AAz?$AAa?$AA?$AA@ 00450df4     libucrt:lcidtoname_downlevel.obj
 0002:00007f80       __infinity                 00450f80     libucrt:87tran.obj
 0002:00007f8a       __minfinity                00450f8a     libucrt:87tran.obj
 0002:00007f94       __logemax                  00450f94     libucrt:87tran.obj
 0002:00007fba       __OP_EXPjmptab             00450fba     libucrt:87tran.obj
 0002:00007fe0       __indefinite               00450fe0     libucrt:87disp.obj
 0002:00007fea       __piby2                    00450fea     libucrt:87disp.obj
 0002:00007ff4       __piby4                    00450ff4     libucrt:87disp.obj
 0002:00008028       __DEFAULT_CW_in_mem        00451028     libucrt:common.obj
 0002:0000802a       __pi_by_2_to_61            0045102a     libucrt:common.obj
 0002:00008064       ??_C@_03MGHMBJCF@log?$AA@  00451064     libucrt:libm_error.obj
 0002:00008068       ??_C@_05HGHHAHAP@log10?$AA@ 00451068     libucrt:libm_error.obj
 0002:00008070       ??_C@_03KHJOGHMM@exp?$AA@  00451070     libucrt:libm_error.obj
 0002:00008074       ??_C@_03JGHBODFD@pow?$AA@  00451074     libucrt:libm_error.obj
 0002:00008078       ??_C@_04FIHNOPOL@asin?$AA@ 00451078     libucrt:libm_error.obj
 0002:00008080       ??_C@_04PDIFKINK@acos?$AA@ 00451080     libucrt:libm_error.obj
 0002:00008088       ??_C@_04EIAKFFMI@sqrt?$AA@ 00451088     libucrt:libm_error.obj
 0002:00008090       __real@3ff0000000000000    00451090     libucrt:libm_error.obj
 0002:00008098       ??_C@_1BA@BALFACEM@?$AAC?$AAO?$AAN?$AAO?$AAU?$AAT?$AA$?$AA?$AA@ 00451098     libucrt:initcon.obj
 0002:000080b0       ___acrt_log10_table_t      004510b0     libucrt:log10_tables.obj
 0002:000084c0       ___acrt_log10_table_cb     004514c0     libucrt:log10_tables.obj
 0002:000088d0       __real@3fe0000000000000    004518d0     libucrt:powhlp.obj
 0002:000088d8       ??_C@_04FJHINJAO@tanh?$AA@ 004518d8     libucrt:fpexcept.obj
 0002:000088e0       ??_C@_04MLLJIGOK@atan?$AA@ 004518e0     libucrt:fpexcept.obj
 0002:000088e8       ??_C@_05KNGEOGJB@atan2?$AA@ 004518e8     libucrt:fpexcept.obj
 0002:000088f0       ??_C@_03BLEJJJBH@sin?$AA@  004518f0     libucrt:fpexcept.obj
 0002:000088f4       ??_C@_03LALBNOCG@cos?$AA@  004518f4     libucrt:fpexcept.obj
 0002:000088f8       ??_C@_03IIINPABG@tan?$AA@  004518f8     libucrt:fpexcept.obj
 0002:000088fc       ??_C@_04GFPJNGEK@ceil?$AA@ 004518fc     libucrt:fpexcept.obj
 0002:00008904       ??_C@_05PBJFFIGL@floor?$AA@ 00451904     libucrt:fpexcept.obj
 0002:0000890c       ??_C@_04ODHECPBC@fabs?$AA@ 0045190c     libucrt:fpexcept.obj
 0002:00008914       ??_C@_04EHEDPDJG@modf?$AA@ 00451914     libucrt:fpexcept.obj
 0002:0000891c       ??_C@_05CEJMAHNP@ldexp?$AA@ 0045191c     libucrt:fpexcept.obj
 0002:00008924       ??_C@_05KBKMEMPO@_cabs?$AA@ 00451924     libucrt:fpexcept.obj
 0002:0000892c       ??_C@_06MEIMCGCF@_hypot?$AA@ 0045192c     libucrt:fpexcept.obj
 0002:00008934       ??_C@_04KEPJIHGP@fmod?$AA@ 00451934     libucrt:fpexcept.obj
 0002:0000893c       ??_C@_05GKKHEGJL@frexp?$AA@ 0045193c     libucrt:fpexcept.obj
 0002:00008944       ??_C@_03MJLDFKDL@_y0?$AA@  00451944     libucrt:fpexcept.obj
 0002:00008948       ??_C@_03NAKIGLHK@_y1?$AA@  00451948     libucrt:fpexcept.obj
 0002:0000894c       ??_C@_03ONILCKOB@_yn?$AA@  0045194c     libucrt:fpexcept.obj
 0002:00008950       ??_C@_05JGDBENOH@_logb?$AA@ 00451950     libucrt:fpexcept.obj
 0002:00008958       ??_C@_0L@KDOEJCKC@_nextafter?$AA@ 00451958     libucrt:fpexcept.obj
 0002:00008a50       ??_C@_04COOMCNPB@sinh?$AA@ 00451a50     libucrt:fpexcept.obj
 0002:00008a58       ??_C@_04HPJJNFIM@cosh?$AA@ 00451a58     libucrt:fpexcept.obj
 0002:00008a60       __d_inf                    00451a60     libucrt:util.obj
 0002:00008a68       __d_max                    00451a68     libucrt:util.obj
 0002:00008a70       __d_mzero                  00451a70     libucrt:util.obj
 0002:00008a78       ??_C@_13HADIAKP@?$AAS?$AA?$AA@ 00451a78     AboutGui.obj
 0002:00008a7c       ??_C@_13LHMFKAAD@?$AAM?$AA?$AA@ 00451a7c     AboutGui.obj
 0002:00008a80       ??_C@_13MKMNOPIJ@?$AAD?$AA?$AA@ 00451a80     AboutGui.obj
 0002:00008a84       ??_C@_13OPKGLAFF@?$AAB?$AA?$AA@ 00451a84     AboutGui.obj
 0002:00008a88       ??_C@_17LLMMEOJD@?$AAV?$AAa?$AAl?$AA?$AA@ 00451a88     AboutGui.obj
 0002:00008a90       ??_C@_1BI@JFAIJMHL@?$AAF?$AAo?$AAr?$AAc?$AAe?$AAR?$AAe?$AAm?$AAo?$AAv?$AAe?$AA?$AA@ 00451a90     AboutGui.obj
 0002:00008aa8       ??_C@_1BC@GCKHIPE@?$AAN?$AAo?$AAR?$AAe?$AAm?$AAo?$AAv?$AAe?$AA?$AA@ 00451aa8     AboutGui.obj
 0002:00008abc       ??_C@_1O@JDLOHAN@?$AAD?$AAe?$AAl?$AAe?$AAt?$AAe?$AA?$AA@ 00451abc     AboutGui.obj
 0002:00008acc       ??_C@_1CE@DKDKIIIM@?$AAS?$AAc?$AAy?$AAl?$AAl?$AAa?$AA?5?$AAx?$AA8?$AA6?$AA?5?$AAv?$AA1?$AA?4?$AA0?$AA?4?$AA0?$AA?$AA@ 00451acc     AboutGui.obj
 0002:00008af0       ??_C@_19BDAJEHDN@?$AAo?$AAp?$AAe?$AAn?$AA?$AA@ 00451af0     AboutGui.obj
 0002:00008afc       ??_C@_1CC@KPOKNCMJ@?$AAt?$AAo?$AAo?$AAl?$AAt?$AAi?$AAp?$AAs?$AA_?$AAc?$AAl?$AAa?$AAs?$AAs?$AA3?$AA2?$AA?$AA@ 00451afc     AboutGui.obj
 0002:00008b20       ?TEXT_LICENSE@AboutGui@@1QB_WB 00451b20     AboutGui.obj
 0002:00008ba4       ?URL_VISIT1@AboutGui@@1QB_WB 00451ba4     AboutGui.obj
 0002:00008be0       ?URL_SILK@AboutGui@@1QB_WB 00451be0     AboutGui.obj
 0002:00008c14       ?URL_VISIT2@AboutGui@@1QB_WB 00451c14     AboutGui.obj
 0002:00008c48       ?TEXT_DEVELOPED@AboutGui@@1QB_WB 00451c48     AboutGui.obj
 0002:00008cc4       ?CONFIG_FILE_SECTION_NAME@ConfigurationHolder@@0QB_WB 00451cc4     ConfigurationHolder.obj
 0002:00008ce0       ?TEXT_VISIT@AboutGui@@1QB_WB 00451ce0     AboutGui.obj
 0002:00008d60       ?TEXT_CREDIT_WTL@AboutGui@@1QB_WB 00451d60     AboutGui.obj
 0002:00008dcf       ?condenseWhiteSpace@TiXmlBase@@0_NA 00451dcf     tinyxml:tinyxml.obj
 0002:00008dd0       ?TEXT_CREDIT_SILK@AboutGui@@1QB_WB 00451dd0     AboutGui.obj
 0002:00008e48       ?TEXT_CREDIT_YODA@AboutGui@@1QB_WB 00451e48     AboutGui.obj
 0002:00008ea0       ?TEXT_GREETINGS@AboutGui@@1QB_WB 00451ea0     AboutGui.obj
 0002:00008f00       ?URL_TINYXML@AboutGui@@1QB_WB 00451f00     AboutGui.obj
 0002:00008f54       ?FILE_MAPPING_NAME@DllInjectionPlugin@@2PB_WB 00451f54     DllInjectionPlugin.obj
 0002:00008f58       ?TEXT_TINYXML@AboutGui@@1QB_WB 00451f58     AboutGui.obj
 0002:00008fac       ?MemoryProtectionValues@DumpMemoryGui@@0PAPB_WA 00451fac     DumpMemoryGui.obj
 0002:00008fd8       ?URL_LICENSE@AboutGui@@1QB_WB 00451fd8     AboutGui.obj
 0002:0000902c       ?MemoryStateValues@DumpMemoryGui@@0PAPB_WA 0045202c     DumpMemoryGui.obj
 0002:00009038       ?URL_DISTORM@AboutGui@@1QB_WB 00452038     AboutGui.obj
 0002:0000907c       ?URL_WTL@AboutGui@@1QB_WB  0045207c     AboutGui.obj
 0002:000090b4       ?MemoryUndefined@DumpMemoryGui@@0QB_WB 004520b4     DumpMemoryGui.obj
 0002:000090c0       ?TEXT_CREDIT_DISTORM@AboutGui@@1QB_WB 004520c0     AboutGui.obj
 0002:00009134       ?MemoryTypeValues@DumpMemoryGui@@0PAPB_WA 00452134     DumpMemoryGui.obj
 0002:00009140       ?TEXT_DONATE@DonateGui@@1QB_WB 00452140     DonateGui.obj
 0002:00009258       ?MemoryUnknown@DumpMemoryGui@@0QB_WB 00452258     DumpMemoryGui.obj
 0002:00009268       ?filterExeDll@MainGui@@1QB_WB 00452268     MainGui.obj
 0002:00009300       ?filterXml@MainGui@@1QB_WB 00452300     MainGui.obj
 0002:0000934c       ?PLUGIN_DIR@PluginLoader@@0QB_WB 0045234c     PluginLoader.obj
 0002:00009360       ?filterExe@MainGui@@1QB_WB 00452360     MainGui.obj
 0002:000093b0       ?filterDll@MainGui@@1QB_WB 004523b0     MainGui.obj
 0002:00009414       ?PLUGIN_SEARCH_STRING@PluginLoader@@0QB_WB 00452414     PluginLoader.obj
 0002:00009420       ?filterTxt@MainGui@@1QB_WB 00452420     MainGui.obj
 0002:00009470       ?filterMem@MainGui@@1QB_WB 00452470     MainGui.obj
 0002:000094bc       ?PLUGIN_IMPREC_WRAPPER_DLL@PluginLoader@@0QB_WB 004524bc     PluginLoader.obj
 0002:000094ec       ?PLUGIN_IMPREC_DIR@PluginLoader@@0QB_WB 004524ec     PluginLoader.obj
 0002:0000950c       ?DEBUG_LOG_FILENAME@Scylla@@0QB_WB 0045250c     Scylla.obj
 0002:00009530       ?npos@TiXmlString@@2IB     00452530     tinyxml:tinystr.obj
 0002:00009538       ?utf8ByteTable@TiXmlBase@@2QBHB 00452538     tinyxml:tinyxmlparser.obj
 0002:00009938       ?errorString@TiXmlBase@@1PAPBDA 00452938     tinyxml:tinyxmlerror.obj
 0002:00009978       ??_C@_1BK@MGMFAEKH@?$AAk?$AAe?$AAr?$AAn?$AAe?$AAl?$AA3?$AA2?$AA?4?$AAd?$AAl?$AAl?$AA?$AA@ 00452978     ApiReader.obj
 0002:00009994       ??_C@_1CG@EGHLDGJO@?$AAM?$AAo?$AAd?$AAu?$AAl?$AAe?$AA?5?$AAp?$AAa?$AAr?$AAs?$AAi?$AAn?$AAg?$AA?3?$AA?5?$AA?$CF?$AAs?$AA?$AA@ 00452994     ApiReader.obj
 0002:000099bc       ??_C@_04MICCJKBJ@API?9?$AA@ 004529bc     ApiReader.obj
 0002:000099c4       ??_C@_04OMOICEBF@EXT?9?$AA@ 004529c4     ApiReader.obj
 0002:000099cc       ??_C@_04HLONOPDM@?4dll?$AA@ 004529cc     ApiReader.obj
 0002:000099d8       ??_C@_1EK@NPBLOOBP@?$AA?9?$AA?$DO?$AA?5?$AAI?$AAM?$AAA?$AAG?$AAE?$AA_?$AAN?$AAT?$AA_?$AAS?$AAI?$AAG?$AAN?$AAA?$AAT?$AAU?$AAR?$AAE?$AA?5?$AAd?$AAo?$AAe?$AAs?$AAn?$AA?8?$AAt?$AA?5?$AAm?$AAa@ 004529d8     ApiReader.obj
 0002:00009a24       ??_C@_1CI@FNHPDPDD@?$AA?9?$AA?$DO?$AA?5?$AAN?$AAo?$AA?5?$AAe?$AAx?$AAp?$AAo?$AAr?$AAt?$AA?5?$AAt?$AAa?$AAb?$AAl?$AAe?$AA?4?$AA?$AA@ 00452a24     ApiReader.obj
 0002:00009a4c       ??_C@_1BO@MFOKJHPK@?$AAk?$AAe?$AAr?$AAn?$AAe?$AAl?$AAb?$AAa?$AAs?$AAe?$AA?4?$AAd?$AAl?$AAl?$AA?$AA@ 00452a4c     ApiReader.obj
 0002:00009a6c       ??_C@_1BE@GJOFHIHD@?$AAn?$AAt?$AAd?$AAl?$AAl?$AA?4?$AAd?$AAl?$AAl?$AA?$AA@ 00452a6c     ApiReader.obj
 0002:00009a80       ??_C@_1BI@EPOJMAKJ@?$AAs?$AAh?$AAl?$AAw?$AAa?$AAp?$AAi?$AA?4?$AAd?$AAl?$AAl?$AA?$AA@ 00452a80     ApiReader.obj
 0002:00009a98       ??_C@_1BI@CBIFPKFD@?$AAS?$AAh?$AAi?$AAm?$AAE?$AAn?$AAg?$AA?4?$AAd?$AAl?$AAl?$AA?$AA@ 00452a98     ApiReader.obj
 0002:00009ab0       ??_C@_19ECCECEJG@?$AAA?$AAP?$AAI?$AA?9?$AA?$AA@ 00452ab0     ApiReader.obj
 0002:00009abc       ??_C@_19CHGCIOBM@?$AAE?$AAX?$AAT?$AA?9?$AA?$AA@ 00452abc     ApiReader.obj
 0002:00009ac8       ??_C@_1IC@HOFDFAKC@?$AAg?$AAe?$AAt?$AAA?$AAp?$AAi?$AAB?$AAy?$AAV?$AAi?$AAr?$AAt?$AAu?$AAa?$AAl?$AAA?$AAd?$AAd?$AAr?$AAe?$AAs?$AAs?$AA?5?$AA?3?$AA?3?$AA?5?$AAT?$AAh?$AAe?$AAr?$AAe?$AA?5@ 00452ac8     ApiReader.obj
 0002:00009b4c       ??_C@_1DK@FILACLGB@?$AA?9?$AA?$DO?$AA?5?$AAP?$AAo?$AAs?$AAs?$AAi?$AAb?$AAl?$AAe?$AA?5?$AAA?$AAP?$AAI?$AA?3?$AA?5?$AA?$CF?$AAS?$AA?5?$AAo?$AAr?$AAd?$AA?3?$AA?5?$AA?$CF?$AAd?$AA?5?$AA?$AA@ 00452b4c     ApiReader.obj
 0002:00009b88       ??_C@_1FI@BNEKMIIF@?$AAg?$AAe?$AAt?$AAA?$AAp?$AAi?$AAB?$AAy?$AAV?$AAi?$AAr?$AAt?$AAu?$AAa?$AAl?$AAA?$AAd?$AAd?$AAr?$AAe?$AAs?$AAs?$AA?5?$AA?3?$AA?3?$AA?5?$AAN?$AAo?$AA?5?$AAA?$AAp?$AAi@ 00452b88     ApiReader.obj
 0002:00009be0       ??_C@_1HE@OMMPLKCI@?$AAI?$AAA?$AAT?$AA?5?$AAp?$AAa?$AAr?$AAs?$AAi?$AAn?$AAg?$AA?5?$AAf?$AAi?$AAn?$AAi?$AAs?$AAh?$AAe?$AAd?$AA?0?$AA?5?$AAf?$AAo?$AAu?$AAn?$AAd?$AA?5?$AA?$CF?$AAd?$AA?5?$AAv@ 00452be0     ApiReader.obj
 0002:00009c54       ??_C@_13HGPDMIBE@?$AA?$DP?$AA?$AA@ 00452c54     ApiReader.obj
 0002:00009c58       ??_C@_01OGPIMHDM@?$DP?$AA@ 00452c58     ApiReader.obj
 0002:00009c5c       ??_C@_0BB@HJOFFDOA@RestoreLastError?$AA@ 00452c5c     ApiReader.obj
 0002:00009c70       ??_C@_1BC@OACMOHID@?$AA?2?$AAW?$AAi?$AAn?$AAS?$AAx?$AAS?$AA?2?$AA?$AA@ 00452c70     ApiReader.obj
 0002:00009c84       ??_C@_1BC@LPOCJKBI@?$AA?2?$AAw?$AAi?$AAn?$AAs?$AAx?$AAs?$AA?2?$AA?$AA@ 00452c84     ApiReader.obj
 0002:00009c98       ??_C@_0BD@OLBABOEK@vector?$DMT?$DO?5too?5long?$AA@ 00452c98     ApiReader.obj
 0002:00009cac       ??_C@_0BE@JONHPENG@map?1set?$DMT?$DO?5too?5long?$AA@ 00452cac     ApiReader.obj
 0002:00009cc0       ??_C@_0BB@MOGOBHAF@list?$DMT?$DO?5too?5long?$AA@ 00452cc0     ApiReader.obj
 0002:00009cd4       ??_C@_1DA@MJCOJPDA@?$AAU?$AAS?$AAE?$AA_?$AAP?$AAE?$AA_?$AAH?$AAE?$AAA?$AAD?$AAE?$AAR?$AA_?$AAF?$AAR?$AAO?$AAM?$AA_?$AAD?$AAI?$AAS?$AAK?$AA?$AA@ 00452cd4     ConfigurationHolder.obj
 0002:00009d04       ??_C@_1CA@MMGEJPAL@?$AAD?$AAE?$AAB?$AAU?$AAG?$AA_?$AAP?$AAR?$AAI?$AAV?$AAI?$AAL?$AAE?$AAG?$AAE?$AA?$AA@ 00452d04     ConfigurationHolder.obj
 0002:00009d24       ??_C@_1BM@GGEHJLAB@?$AAC?$AAR?$AAE?$AAA?$AAT?$AAE?$AA_?$AAB?$AAA?$AAC?$AAK?$AAU?$AAP?$AA?$AA@ 00452d24     ConfigurationHolder.obj
 0002:00009d40       ??_C@_1DE@KDGHFIC@?$AAD?$AAL?$AAL?$AA_?$AAI?$AAN?$AAJ?$AAE?$AAC?$AAT?$AAI?$AAO?$AAN?$AA_?$AAA?$AAU?$AAT?$AAO?$AA_?$AAU?$AAN?$AAL?$AAO?$AAA?$AAD?$AA?$AA@ 00452d40     ConfigurationHolder.obj
 0002:00009d74       ??_C@_1CO@KALAJJFG@?$AAU?$AAP?$AAD?$AAA?$AAT?$AAE?$AA_?$AAH?$AAE?$AAA?$AAD?$AAE?$AAR?$AA_?$AAC?$AAH?$AAE?$AAC?$AAK?$AAS?$AAU?$AAM?$AA?$AA@ 00452d74     ConfigurationHolder.obj
 0002:00009da4       ??_C@_1CC@PHHKDKMP@?$AAI?$AAA?$AAT?$AA_?$AAS?$AAE?$AAC?$AAT?$AAI?$AAO?$AAN?$AA_?$AAN?$AAA?$AAM?$AAE?$AA?$AA@ 00452da4     ConfigurationHolder.obj
 0002:00009dc8       ??_C@_19KJIBGICF@?$AA?4?$AAS?$AAC?$AAY?$AA?$AA@ 00452dc8     ConfigurationHolder.obj
 0002:00009dd4       ??_C@_1CO@ECDEBGFH@?$AAR?$AAE?$AAM?$AAO?$AAV?$AAE?$AA_?$AAD?$AAO?$AAS?$AA_?$AAH?$AAE?$AAA?$AAD?$AAE?$AAR?$AA_?$AAS?$AAT?$AAU?$AAB?$AA?$AA@ 00452dd4     ConfigurationHolder.obj
 0002:00009e04       ??_C@_1CI@BGFJJIIC@?$AAI?$AAA?$AAT?$AA_?$AAF?$AAI?$AAX?$AA_?$AAA?$AAN?$AAD?$AA_?$AAO?$AAE?$AAP?$AA_?$AAF?$AAI?$AAX?$AA?$AA@ 00452e04     ConfigurationHolder.obj
 0002:00009e2c       ??_C@_1DI@CBEHBDFC@?$AAS?$AAU?$AAS?$AAP?$AAE?$AAN?$AAD?$AA_?$AAP?$AAR?$AAO?$AAC?$AAE?$AAS?$AAS?$AA_?$AAF?$AAO?$AAR?$AA_?$AAD?$AAU?$AAM?$AAP?$AAI?$AAN?$AAG?$AA?$AA@ 00452e2c     ConfigurationHolder.obj
 0002:00009e64       ??_C@_1DG@CPLEGPL@?$AAO?$AAr?$AAi?$AAg?$AAi?$AAn?$AAa?$AAl?$AAF?$AAi?$AAr?$AAs?$AAt?$AAT?$AAh?$AAu?$AAn?$AAk?$AA_?$AAS?$AAU?$AAP?$AAP?$AAO?$AAR?$AAT?$AA?$AA@ 00452e64     ConfigurationHolder.obj
 0002:00009e9c       ??_C@_1DA@OAPMDNNE@?$AAU?$AAS?$AAE?$AA_?$AAA?$AAD?$AAV?$AAA?$AAN?$AAC?$AAE?$AAD?$AA_?$AAI?$AAA?$AAT?$AA_?$AAS?$AAE?$AAA?$AAR?$AAC?$AAH?$AA?$AA@ 00452e9c     ConfigurationHolder.obj
 0002:00009ecc       ??_C@_1CI@EEJMMHBB@?$AAS?$AAC?$AAA?$AAN?$AA_?$AAD?$AAI?$AAR?$AAE?$AAC?$AAT?$AA_?$AAI?$AAM?$AAP?$AAO?$AAR?$AAT?$AAS?$AA?$AA@ 00452ecc     ConfigurationHolder.obj
 0002:00009ef4       ??_C@_1DE@IHJKEFCO@?$AAF?$AAI?$AAX?$AA_?$AAD?$AAI?$AAR?$AAE?$AAC?$AAT?$AA_?$AAI?$AAM?$AAP?$AAO?$AAR?$AAT?$AAS?$AA_?$AAN?$AAO?$AAR?$AAM?$AAA?$AAL?$AA?$AA@ 00452ef4     ConfigurationHolder.obj
 0002:00009f28       ??_C@_1DK@MHKMGLOJ@?$AAF?$AAI?$AAX?$AA_?$AAD?$AAI?$AAR?$AAE?$AAC?$AAT?$AA_?$AAI?$AAM?$AAP?$AAO?$AAR?$AAT?$AAS?$AA_?$AAU?$AAN?$AAI?$AAV?$AAE?$AAR?$AAS?$AAA?$AAL?$AA?$AA@ 00452f28     ConfigurationHolder.obj
 0002:00009f64       ??_C@_1DE@NPFGOBIP@?$AAC?$AAR?$AAE?$AAA?$AAT?$AAE?$AA_?$AAN?$AAE?$AAW?$AA_?$AAI?$AAA?$AAT?$AA_?$AAI?$AAN?$AA_?$AAS?$AAE?$AAC?$AAT?$AAI?$AAO?$AAN?$AA?$AA@ 00452f64     ConfigurationHolder.obj
 0002:00009f98       ??_C@_1DA@JKHMADOP@?$AAD?$AAO?$AAN?$AAT?$AA_?$AAC?$AAR?$AAE?$AAA?$AAT?$AAE?$AA_?$AAN?$AAE?$AAW?$AA_?$AAS?$AAE?$AAC?$AAT?$AAI?$AAO?$AAN?$AA?$AA@ 00452f98     ConfigurationHolder.obj
 0002:00009fc8       ??_C@_1CM@FHIGOAAB@?$AAA?$AAP?$AAI?$AAS?$AA_?$AAA?$AAL?$AAW?$AAA?$AAY?$AAS?$AA_?$AAF?$AAR?$AAO?$AAM?$AA_?$AAD?$AAI?$AAS?$AAK?$AA?$AA@ 00452fc8     ConfigurationHolder.obj
 0002:00009ff4       ??_C@_11LOCGONAA@?$AA?$AA@ 00452ff4     ConfigurationHolder.obj
 0002:00009ff8       ??_C@_19NGFMKOON@?$AA?$CF?$AA0?$AA8?$AAX?$AA?$AA@ 00452ff8     ConfigurationHolder.obj
 0002:0000a004       ??_C@_15EFLNJKHH@?$AA?$CF?$AAu?$AA?$AA@ 00453004     ConfigurationHolder.obj
 0002:0000a00c       ??_C@_13JGCMLPCH@?$AA1?$AA?$AA@ 0045300c     ConfigurationHolder.obj
 0002:0000a010       ??_C@_13COJANIEC@?$AA0?$AA?$AA@ 00453010     ConfigurationHolder.obj
 0002:0000a014       ??_C@_1M@ILHOPKA@?$AAE?$AAr?$AAr?$AAo?$AAr?$AA?$AA@ 00453014     DisassemblerGui.obj
 0002:0000a020       ??_C@_1FE@JBDLABIC@?$AAC?$AAa?$AAn?$AAn?$AAo?$AAt?$AA?5?$AAd?$AAi?$AAs?$AAa?$AAs?$AAs?$AAe?$AAm?$AAb?$AAl?$AAe?$AA?5?$AAm?$AAe?$AAm?$AAo?$AAr?$AAy?$AA?5?$AAa?$AAt?$AA?5?$AAt?$AAh?$AAi@ 00453020     DisassemblerGui.obj
 0002:0000a074       ??_C@_1BA@LDPMAPOD@?$AAA?$AAd?$AAd?$AAr?$AAe?$AAs?$AAs?$AA?$AA@ 00453074     DisassemblerGui.obj
 0002:0000a084       ??_C@_19CHLDDIME@?$AAS?$AAi?$AAz?$AAe?$AA?$AA@ 00453084     DisassemblerGui.obj
 0002:0000a090       ??_C@_1BA@FDINEIPA@?$AAO?$AAp?$AAc?$AAo?$AAd?$AAe?$AAs?$AA?$AA@ 00453090     DisassemblerGui.obj
 0002:0000a0a0       ??_C@_1BK@BOIIFMMI@?$AAI?$AAn?$AAs?$AAt?$AAr?$AAu?$AAc?$AAt?$AAi?$AAo?$AAn?$AAs?$AA?$AA@ 004530a0     DisassemblerGui.obj
 0002:0000a0bc       ??_C@_1BA@BCPHNIGF@?$AAC?$AAo?$AAm?$AAm?$AAe?$AAn?$AAt?$AA?$AA@ 004530bc     DisassemblerGui.obj
 0002:0000a0cc       ??_C@_19MNDKMKJC@?$AA?$CF?$AA0?$AA2?$AAd?$AA?$AA@ 004530cc     DisassemblerGui.obj
 0002:0000a0d8       ??_C@_15MAOEGKJF@?$AA?$CF?$AAS?$AA?$AA@ 004530d8     DisassemblerGui.obj
 0002:0000a0e0       ??_C@_01CLKCMJKC@?5?$AA@   004530e0     DisassemblerGui.obj
 0002:0000a0e2       ??_C@_00CNPNBAHC@?$AA@     004530e2     DisassemblerGui.obj
 0002:0000a0e4       ??_C@_1O@NAGCBAAJ@?$AA?$CF?$AAS?$AA?$CF?$AAS?$AA?$CF?$AAS?$AA?$AA@ 004530e4     DisassemblerGui.obj
 0002:0000a0f4       ??_C@_1BA@LPGEHOCG@?$AA?9?$AA?$DO?$AA?5?$AA?$CF?$AA0?$AA8?$AAX?$AA?$AA@ 004530f4     DisassemblerGui.obj
 0002:0000a104       ??_C@_1BG@FMNEPFC@?$AA?$CF?$AAs?$AA?5?$AA?9?$AA?$DO?$AA?5?$AA?$CF?$AA0?$AA8?$AAX?$AA?$AA@ 00453104     DisassemblerGui.obj
 0002:0000a11c       ??_C@_1BK@MDABAFJD@?$AA?$CF?$AAs?$AA?5?$AA?$DN?$AA?5?$AA?$CF?$AAs?$AA?4?$AA?$CF?$AA0?$AA4?$AAX?$AA?$AA@ 0045311c     DisassemblerGui.obj
 0002:0000a138       ??_C@_1BG@GDBCCMGC@?$AA?$CF?$AAs?$AA?5?$AA?$DN?$AA?5?$AA?$CF?$AAs?$AA?4?$AA?$CF?$AAS?$AA?$AA@ 00453138     DisassemblerGui.obj
 0002:0000a150       ??_C@_1BA@LKINKPIO@?$AA?$CF?$AAs?$AA?5?$AA?$DN?$AA?5?$AA?$CF?$AAs?$AA?$AA@ 00453150     DisassemblerGui.obj
 0002:0000a160       ??_C@_1BE@PNDFOHKG@?$AAS?$AAC?$AAR?$AAO?$AAL?$AAL?$AAB?$AAA?$AAR?$AA?$AA@ 00453160     DisassemblerGui.obj
 0002:0000a174       ?theMap@?1??GetDlgResizeMap@DisassemblerGui@@SAPBU_AtlDlgResizeMap@WTL@@XZ@4QBU34@B 00453174     DisassemblerGui.obj
 0002:0000a1ac       ?Digits@?$CHexEditImpl@V?$CHexEdit@K@@KV?$CEditT@VCWindow@ATL@@@WTL@@V?$CWinTraits@$0FGAAAAAA@$0A@@ATL@@@@2QB_WB 004531ac     DisassemblerGui.obj
 0002:0000a1d4       ??_7DisassemblerGui@@6B@   004531d4     DisassemblerGui.obj
 0002:0000a1e8       ??_7?$CHexEdit@K@@6B@      004531e8     DisassemblerGui.obj
 0002:0000a1f8       ??_C@_1CK@KBDPMF@?$AAS?$AAc?$AAy?$AAl?$AAl?$AAa?$AAP?$AAl?$AAu?$AAg?$AAi?$AAn?$AAE?$AAx?$AAc?$AAh?$AAa?$AAn?$AAg?$AAe?$AA?$AA@ 004531f8     DllInjectionPlugin.obj
 0002:0000a224       ??_C@_1CM@MHLEKHGN@?$AAN?$AAo?$AA?5?$AAu?$AAn?$AAr?$AAe?$AAs?$AAo?$AAl?$AAv?$AAe?$AAd?$AA?5?$AAI?$AAm?$AAp?$AAo?$AAr?$AAt?$AAs?$AA?$AA@ 00453224     DllInjectionPlugin.obj
 0002:0000a250       ??_C@_1EA@LBMNHFFM@?$AAP?$AAl?$AAu?$AAg?$AAi?$AAn?$AA?5?$AAi?$AAn?$AAj?$AAe?$AAc?$AAt?$AAi?$AAo?$AAn?$AA?5?$AAw?$AAa?$AAs?$AA?5?$AAs?$AAu?$AAc?$AAc?$AAe?$AAs?$AAs?$AAf?$AAu?$AAl?$AA?$AA@ 00453250     DllInjectionPlugin.obj
 0002:0000a290       ??_C@_1DA@KKJKABFG@?$AAP?$AAl?$AAu?$AAg?$AAi?$AAn?$AA?5?$AAu?$AAn?$AAl?$AAo?$AAa?$AAd?$AAi?$AAn?$AAg?$AA?5?$AAf?$AAa?$AAi?$AAl?$AAe?$AAd?$AA?$AA@ 00453290     DllInjectionPlugin.obj
 0002:0000a2c0       ??_C@_1DA@JCIFJMMH@?$AAP?$AAl?$AAu?$AAg?$AAi?$AAn?$AA?5?$AAi?$AAn?$AAj?$AAe?$AAc?$AAt?$AAi?$AAo?$AAn?$AA?5?$AAf?$AAa?$AAi?$AAl?$AAe?$AAd?$AA?$AA@ 004532c0     DllInjectionPlugin.obj
 0002:0000a2f0       ??_C@_1DO@DDENLPML@?$AAS?$AAc?$AAy?$AAl?$AAl?$AAa?$AAI?$AAm?$AAp?$AAr?$AAe?$AAc?$AAP?$AAl?$AAu?$AAg?$AAi?$AAn?$AAE?$AAx?$AAc?$AAh?$AAa?$AAn?$AAg?$AAe?$AAP?$AAa?$AAt?$AAh?$AA?$AA@ 004532f0     DllInjectionPlugin.obj
 0002:0000a330       ??_C@_1CM@KEIICEID@?$AAP?$AAl?$AAu?$AAg?$AAi?$AAn?$AA?5?$AAw?$AAa?$AAs?$AA?5?$AAs?$AAu?$AAc?$AAc?$AAe?$AAs?$AAs?$AAf?$AAu?$AAl?$AA?$AA@ 00453330     DllInjectionPlugin.obj
 0002:0000a35c       ??_C@_1DM@FJLKLAFN@?$AAP?$AAl?$AAu?$AAg?$AAi?$AAn?$AA?5?$AAr?$AAe?$AAp?$AAo?$AAr?$AAt?$AAe?$AAd?$AA?5?$AAU?$AAn?$AAk?$AAn?$AAo?$AAw?$AAn?$AA?5?$AAE?$AAr?$AAr?$AAo?$AAr?$AA?$AA@ 0045335c     DllInjectionPlugin.obj
 0002:0000a398       ??_C@_1EG@EKPGAOHL@?$AAP?$AAl?$AAu?$AAg?$AAi?$AAn?$AA?5?$AAd?$AAe?$AAt?$AAe?$AAc?$AAt?$AAe?$AAd?$AA?5?$AAu?$AAn?$AAk?$AAn?$AAo?$AAw?$AAn?$AA?5?$AAp?$AAr?$AAo?$AAt?$AAe?$AAc?$AAt?$AAi@ 00453398     DllInjectionPlugin.obj
 0002:0000a3e0       ??_C@_1DO@LLJEGBMF@?$AAP?$AAl?$AAu?$AAg?$AAi?$AAn?$AA?5?$AAi?$AAm?$AAp?$AAo?$AAr?$AAt?$AA?5?$AAr?$AAe?$AAs?$AAo?$AAl?$AAv?$AAi?$AAn?$AAg?$AA?5?$AAf?$AAa?$AAi?$AAl?$AAe?$AAd?$AA?$AA@ 004533e0     DllInjectionPlugin.obj
 0002:0000a420       ??_C@_1DG@NHGAOCDC@?$AAP?$AAl?$AAu?$AAg?$AAi?$AAn?$AA?5?$AAf?$AAi?$AAl?$AAe?$AA?5?$AAm?$AAa?$AAp?$AAp?$AAi?$AAn?$AAg?$AA?5?$AAf?$AAa?$AAi?$AAl?$AAe?$AAd?$AA?$AA@ 00453420     DllInjectionPlugin.obj
 0002:0000a458       ??_C@_1DK@CFPDNPKN@?$AAP?$AAl?$AAu?$AAg?$AAi?$AAn?$AA?5?$AAf?$AAa?$AAi?$AAl?$AAe?$AAd?$AA?5?$AAw?$AAi?$AAt?$AAh?$AAo?$AAu?$AAt?$AA?5?$AAr?$AAe?$AAa?$AAs?$AAo?$AAn?$AA?$AA@ 00453458     DllInjectionPlugin.obj
 0002:0000a494       ??_C@_0CD@HFMLLGML@1GmVrhWwUhwLohaCLP4SKV5kkz8rd16N@ 00453494     DonateGui.obj
 0002:0000a4b8       ??_C@_1O@OEIPOEOO@?$AAC?$AAO?$AAM?$AAM?$AAI?$AAT?$AA?$AA@ 004534b8     DumpMemoryGui.obj
 0002:0000a4c8       ??_C@_19GLINCHAF@?$AAF?$AAR?$AAE?$AAE?$AA?$AA@ 004534c8     DumpMemoryGui.obj
 0002:0000a4d4       ??_C@_1BA@MLMPDDHH@?$AAR?$AAE?$AAS?$AAE?$AAR?$AAV?$AAE?$AA?$AA@ 004534d4     DumpMemoryGui.obj
 0002:0000a4e4       ??_C@_1M@BJAEGIEJ@?$AAI?$AAM?$AAA?$AAG?$AAE?$AA?$AA@ 004534e4     DumpMemoryGui.obj
 0002:0000a4f0       ??_C@_1O@NEBANLDG@?$AAM?$AAA?$AAP?$AAP?$AAE?$AAD?$AA?$AA@ 004534f0     DumpMemoryGui.obj
 0002:0000a500       ??_C@_1BA@NKFKCIAN@?$AAP?$AAR?$AAI?$AAV?$AAA?$AAT?$AAE?$AA?$AA@ 00453500     DumpMemoryGui.obj
 0002:0000a510       ??_C@_1BA@KIGPCJOC@?$AAE?$AAX?$AAE?$AAC?$AAU?$AAT?$AAE?$AA?$AA@ 00453510     DumpMemoryGui.obj
 0002:0000a520       ??_C@_1BK@CCMLIPII@?$AAE?$AAX?$AAE?$AAC?$AAU?$AAT?$AAE?$AA_?$AAR?$AAE?$AAA?$AAD?$AA?$AA@ 00453520     DumpMemoryGui.obj
 0002:0000a53c       ??_C@_1CE@MLNFCLGB@?$AAE?$AAX?$AAE?$AAC?$AAU?$AAT?$AAE?$AA_?$AAR?$AAE?$AAA?$AAD?$AAW?$AAR?$AAI?$AAT?$AAE?$AA?$AA@ 0045353c     DumpMemoryGui.obj
 0002:0000a560       ??_C@_1CE@FFANDECC@?$AAE?$AAX?$AAE?$AAC?$AAU?$AAT?$AAE?$AA_?$AAW?$AAR?$AAI?$AAT?$AAE?$AAC?$AAO?$AAP?$AAY?$AA?$AA@ 00453560     DumpMemoryGui.obj
 0002:0000a584       ??_C@_1BC@EHMJBKCD@?$AAN?$AAO?$AAA?$AAC?$AAC?$AAE?$AAS?$AAS?$AA?$AA@ 00453584     DumpMemoryGui.obj
 0002:0000a598       ??_C@_1BC@CPNDMAGA@?$AAR?$AAE?$AAA?$AAD?$AAO?$AAN?$AAL?$AAY?$AA?$AA@ 00453598     DumpMemoryGui.obj
 0002:0000a5ac       ??_C@_1BE@JBKLMJBF@?$AAR?$AAE?$AAA?$AAD?$AAW?$AAR?$AAI?$AAT?$AAE?$AA?$AA@ 004535ac     DumpMemoryGui.obj
 0002:0000a5c0       ??_C@_1BE@PHDNGFG@?$AAW?$AAR?$AAI?$AAT?$AAE?$AAC?$AAO?$AAP?$AAY?$AA?$AA@ 004535c0     DumpMemoryGui.obj
 0002:0000a5d4       ??_C@_1M@CPOLIOAG@?$AAG?$AAU?$AAA?$AAR?$AAD?$AA?$AA@ 004535d4     DumpMemoryGui.obj
 0002:0000a5e0       ??_C@_1BA@NEMDBLGC@?$AAN?$AAO?$AAC?$AAA?$AAC?$AAH?$AAE?$AA?$AA@ 004535e0     DumpMemoryGui.obj
 0002:0000a5f0       ??_C@_1BK@EMAHKFIE@?$AAW?$AAR?$AAI?$AAT?$AAE?$AAC?$AAO?$AAM?$AAB?$AAI?$AAN?$AAE?$AA?$AA@ 004535f0     DumpMemoryGui.obj
 0002:0000a60c       ??_C@_19DDLLJDOO@?$AAF?$AAi?$AAl?$AAe?$AA?$AA@ 0045360c     DumpMemoryGui.obj
 0002:0000a618       ??_C@_1BG@NDCFGPEH@?$AAP?$AAE?$AA?5?$AAS?$AAe?$AAc?$AAt?$AAi?$AAo?$AAn?$AA?$AA@ 00453618     DumpMemoryGui.obj
 0002:0000a630       ??_C@_19BIEPDBPA@?$AAT?$AAy?$AAp?$AAe?$AA?$AA@ 00453630     DumpMemoryGui.obj
 0002:0000a63c       ??_C@_1BG@GOGPGFPK@?$AAP?$AAr?$AAo?$AAt?$AAe?$AAc?$AAt?$AAi?$AAo?$AAn?$AA?$AA@ 0045363c     DumpMemoryGui.obj
 0002:0000a654       ??_C@_1M@LAGHHMEN@?$AAS?$AAt?$AAa?$AAt?$AAe?$AA?$AA@ 00453654     DumpMemoryGui.obj
 0002:0000a660       ??_C@_1BI@PCAJJNCE@?$AAM?$AAa?$AAp?$AAp?$AAe?$AAd?$AA?5?$AAF?$AAi?$AAl?$AAe?$AA?$AA@ 00453660     DumpMemoryGui.obj
 0002:0000a678       ??_C@_17LPHJCAEE@?$AA?5?$AA?$HM?$AA?5?$AA?$AA@ 00453678     DumpMemoryGui.obj
 0002:0000a680       ??_C@_1CE@JMLNHHC@?$AAT?$AAe?$AAx?$AAt?$AAb?$AAo?$AAx?$AA?5?$AAi?$AAs?$AA?5?$AAe?$AAm?$AAp?$AAt?$AAy?$AA?$CB?$AA?$AA@ 00453680     DumpMemoryGui.obj
 0002:0000a6a8       ??_C@_1EG@PIIMCHII@?$AAR?$AAe?$AAa?$AAd?$AAi?$AAn?$AAg?$AA?5?$AAm?$AAe?$AAm?$AAo?$AAr?$AAy?$AA?5?$AAf?$AAr?$AAo?$AAm?$AA?5?$AAp?$AAr?$AAo?$AAc?$AAe?$AAs?$AAs?$AA?5?$AAf?$AAa?$AAi?$AAl@ 004536a8     DumpMemoryGui.obj
 0002:0000a6f0       ??_C@_13PPFCDPMH@?$AA?$HM?$AA?$AA@ 004536f0     DumpMemoryGui.obj
 0002:0000a6f8       ??_C@_1FG@JPFCCPCJ@?$AAN?$AAo?$AAt?$AA?5?$AAa?$AA?5?$AAv?$AAa?$AAl?$AAi?$AAd?$AA?5?$AAP?$AAE?$AA?5?$AA?9?$AA?$DO?$AA?5?$AAT?$AAh?$AAi?$AAs?$AA?5?$AAs?$AAh?$AAo?$AAu?$AAl?$AAd?$AA?5?$AAn?$AAe@ 004536f8     DumpMemoryGui.obj
 0002:0000a750       ??_C@_1BM@OCLDKCCK@?$AAM?$AAE?$AAM?$AA_?$AA?$CF?$AA0?$AA8?$AAX?$AA_?$AA?$CF?$AA0?$AA8?$AAX?$AA?$AA@ 00453750     DumpMemoryGui.obj
 0002:0000a770       ?theMap@?1??GetDlgResizeMap@DumpMemoryGui@@SAPBU_AtlDlgResizeMap@WTL@@XZ@4QBU34@B 00453770     DumpMemoryGui.obj
 0002:0000a7bc       ??_7DumpMemoryGui@@6B@     004537bc     DumpMemoryGui.obj
 0002:0000a7cc       ??_C@_19DINFBLAK@?$AAN?$AAa?$AAm?$AAe?$AA?$AA@ 004537cc     DumpSectionGui.obj
 0002:0000a7d8       ??_C@_1CA@KJMDFFJL@?$AAV?$AAi?$AAr?$AAt?$AAu?$AAa?$AAl?$AA?5?$AAA?$AAd?$AAd?$AAr?$AAe?$AAs?$AAs?$AA?$AA@ 004537d8     DumpSectionGui.obj
 0002:0000a7f8       ??_C@_1BK@PBFKPMNN@?$AAV?$AAi?$AAr?$AAt?$AAu?$AAa?$AAl?$AA?5?$AAS?$AAi?$AAz?$AAe?$AA?$AA@ 004537f8     DumpSectionGui.obj
 0002:0000a814       ??_C@_1BI@FKDDFHEO@?$AAR?$AAa?$AAw?$AA?5?$AAA?$AAd?$AAd?$AAr?$AAe?$AAs?$AAs?$AA?$AA@ 00453814     DumpSectionGui.obj
 0002:0000a82c       ??_C@_1BC@DCGCAGGP@?$AAR?$AAa?$AAw?$AA?5?$AAS?$AAi?$AAz?$AAe?$AA?$AA@ 0045382c     DumpSectionGui.obj
 0002:0000a840       ??_C@_1CA@HLGPGKOE@?$AAC?$AAh?$AAa?$AAr?$AAa?$AAc?$AAt?$AAe?$AAr?$AAi?$AAs?$AAt?$AAi?$AAc?$AAs?$AA?$AA@ 00453840     DumpSectionGui.obj
 0002:0000a864       ??_7DumpSectionGui@@6B@    00453864     DumpSectionGui.obj
 0002:0000a874       ?theMap@?1??GetDlgResizeMap@DumpSectionGui@@SAPBU_AtlDlgResizeMap@WTL@@XZ@4QBU34@B 00453874     DumpSectionGui.obj
 0002:0000a89c       ??_C@_0P@LKABJJMO@IsWow64Process?$AA@ 0045389c     FunctionExport.obj
 0002:0000a8ac       ??_C@_1DE@IPMKIBAI@?$AAS?$AAc?$AAy?$AAl?$AAl?$AAa?$AA_?$AAd?$AAi?$AAr?$AAe?$AAc?$AAt?$AA_?$AAi?$AAm?$AAp?$AAo?$AAr?$AAt?$AAs?$AA?4?$AAl?$AAo?$AAg?$AA?$AA@ 004538ac     IATReferenceScan.obj
 0002:0000a8e0       ??_C@_1FG@NBOHMPCF@?$AAE?$AAr?$AAr?$AAo?$AAr?$AA?5?$AA?9?$AA?5?$AAC?$AAa?$AAn?$AAn?$AAo?$AAt?$AA?5?$AAf?$AAi?$AAx?$AA?5?$AAI?$AAA?$AAT?$AA?5?$AAr?$AAe?$AAf?$AAe?$AAr?$AAe?$AAn?$AAc?$AAe@ 004538e0     IATReferenceScan.obj
 0002:0000a938       ??_C@_1HK@PLEACAAO@?$AA?9?$AA?9?$AA?9?$AA?9?$AA?9?$AA?9?$AA?9?$AA?9?$AA?9?$AA?9?$AA?9?$AA?9?$AA?9?$AA?9?$AA?9?$AA?9?$AA?9?$AA?9?$AA?9?$AA?9?$AA?9?$AA?9?$AA?9?$AA?9?$AA?9?$AA?9?$AA?9?$AA?9?$AA?9?$AA?9?$AA?9?$AA?9@ 00453938     IATReferenceScan.obj
 0002:0000a9b8       ??_C@_1HG@BKCKLPDD@?$AAI?$AAm?$AAa?$AAg?$AAe?$AAB?$AAa?$AAs?$AAe?$AA?5?$AA?$CF?$AA0?$AA8?$AAX?$AA?5?$AAI?$AAm?$AAa?$AAg?$AAe?$AAS?$AAi?$AAz?$AAe?$AA?5?$AA?$CF?$AA0?$AA8?$AAX?$AA?5?$AAI?$AAA@ 004539b8     IATReferenceScan.obj
 0002:0000aa30       ??_C@_13CCGINPHD@?$AAU?$AA?$AA@ 00453a30     IATReferenceScan.obj
 0002:0000aa34       ??_C@_19CFJHMEML@?$AAC?$AAA?$AAL?$AAL?$AA?$AA@ 00453a34     IATReferenceScan.obj
 0002:0000aa40       ??_C@_17FKELOIKD@?$AAJ?$AAM?$AAP?$AA?$AA@ 00453a40     IATReferenceScan.obj
 0002:0000aa48       ??_C@_17DICNBPGN@?$AAM?$AAO?$AAV?$AA?$AA@ 00453a48     IATReferenceScan.obj
 0002:0000aa50       ??_C@_19GMBNOGOI@?$AAP?$AAU?$AAS?$AAH?$AA?$AA@ 00453a50     IATReferenceScan.obj
 0002:0000aa5c       ??_C@_17JINCFDLD@?$AAL?$AAE?$AAA?$AA?$AA@ 00453a5c     IATReferenceScan.obj
 0002:0000aa68       ??_C@_1IC@GJKLIEHJ@?$AA?$CF?$AA0?$AA4?$AAd?$AA?5?$AAA?$AAd?$AAd?$AAr?$AAV?$AAA?$AA?5?$AA?$CF?$AA0?$AA8?$AAX?$AA?5?$AAT?$AAy?$AAp?$AAe?$AA?5?$AA?$CF?$AAs?$AA?5?$AAV?$AAa?$AAl?$AAu?$AAe?$AA?5?$AA?$CF@ 00453a68     IATReferenceScan.obj
 0002:0000aaf0       ??_C@_1LG@CEDAOFAF@?$AAR?$AAe?$AAl?$AAo?$AAc?$AAa?$AAt?$AAi?$AAo?$AAn?$AA?5?$AAd?$AAi?$AAr?$AAe?$AAc?$AAt?$AA?5?$AAi?$AAm?$AAp?$AAo?$AAr?$AAt?$AAs?$AA?5?$AAf?$AAi?$AAx?$AA?3?$AA?5?$AAB@ 00453af0     IATReferenceScan.obj
 0002:0000aba8       ??_C@_1GG@PIEAOKLG@?$AAE?$AAr?$AAr?$AAo?$AAr?$AA?5?$AA?9?$AA?5?$AAC?$AAa?$AAn?$AAn?$AAo?$AAt?$AA?5?$AAf?$AAi?$AAx?$AA?5?$AAd?$AAi?$AAr?$AAe?$AAc?$AAt?$AA?5?$AAi?$AAm?$AAp?$AAo?$AAr?$AAt@ 00453ba8     IATReferenceScan.obj
 0002:0000ac10       ??_C@_1GM@IKMOGLOE@?$AAI?$AAA?$AAT?$AA?5?$AAS?$AAe?$AAa?$AAr?$AAc?$AAh?$AA?5?$AAA?$AAd?$AAv?$AA?3?$AA?5?$AAF?$AAo?$AAu?$AAn?$AAd?$AA?5?$AA?$CF?$AAd?$AA?5?$AA?$CI?$AA0?$AAx?$AA?$CF?$AAX?$AA?$CJ?$AA?5@ 00453c10     IATSearch.obj
 0002:0000ac80       ??_C@_1HC@MMLEFPJM@?$AAI?$AAA?$AAT?$AA?5?$AAS?$AAe?$AAa?$AAr?$AAc?$AAh?$AA?5?$AAA?$AAd?$AAv?$AA?3?$AA?5?$AAP?$AAo?$AAs?$AAs?$AAi?$AAb?$AAl?$AAe?$AA?5?$AAI?$AAA?$AAT?$AA?5?$AAf?$AAi?$AAr@ 00453c80     IATSearch.obj
 0002:0000acf4       ??_C@_04IHDBOMEP@?4SCY?$AA@ 00453cf4     ImportRebuilder.obj
 0002:0000acfc       ??_C@_0BC@EOODALEL@Unknown?5exception?$AA@ 00453cfc     ImportsHandling.obj
 0002:0000ad10       ??_C@_1CG@HDGJAKBE@?$AAo?$AAr?$AAd?$AA?3?$AA?5?$AA?$CF?$AA0?$AA4?$AAX?$AA?5?$AAn?$AAa?$AAm?$AAe?$AA?3?$AA?5?$AA?$CF?$AAS?$AA?$AA@ 00453d10     ImportsHandling.obj
 0002:0000ad38       ??_C@_1BE@FOEGGGEN@?$AAo?$AAr?$AAd?$AA?3?$AA?5?$AA?$CF?$AA0?$AA4?$AAX?$AA?$AA@ 00453d38     ImportsHandling.obj
 0002:0000ad4c       ??_C@_1CM@NIMMEAEI@?$AA?5?$AAr?$AAv?$AAa?$AA?3?$AA?5?$AA?$CF?$AA0?$AA8?$AAX?$AA?5?$AAm?$AAo?$AAd?$AA?3?$AA?5?$AA?$CF?$AAs?$AA?5?$AA?$CF?$AAs?$AA?$AA@ 00453d4c     ImportsHandling.obj
 0002:0000ad78       ??_C@_1CK@OPAKMBDG@?$AA?5?$AAr?$AAv?$AAa?$AA?3?$AA?5?$AA?$CF?$AA0?$AA8?$AAX?$AA?5?$AAp?$AAt?$AAr?$AA?3?$AA?5?$AA?$CF?$AA0?$AA8?$AAX?$AA?$AA@ 00453d78     ImportsHandling.obj
 0002:0000ada4       ??_C@_1CK@NHEMHLNP@?$AA?$CF?$AAs?$AA?5?$AA?$CI?$AA?$CF?$AAd?$AA?$CJ?$AA?5?$AAF?$AAT?$AAh?$AAu?$AAn?$AAk?$AA?3?$AA?5?$AA?$CF?$AA0?$AA8?$AAX?$AA?$AA@ 00453da4     ImportsHandling.obj
 0002:0000add0       ??_C@_13FNCBLAIF@?$AAa?$AA?$AA@ 00453dd0     Logger.obj
 0002:0000add4       ??_C@_02PCIJFNDE@?$AN?6?$AA@ 00453dd4     Logger.obj
 0002:0000add8       ??_C@_15JNBOKNOG@?$AA?$AN?$AA?6?$AA?$AA@ 00453dd8     Logger.obj
 0002:0000ade4       ??_7FileLog@@6B@           00453de4     Logger.obj
 0002:0000adf4       ??_C@_1BK@BIGILECK@?$AAA?$AAd?$AAv?$AAa?$AAp?$AAi?$AA3?$AA2?$AA?4?$AAd?$AAl?$AAl?$AA?$AA@ 00453df4     main.obj
 0002:0000ae10       ??_C@_0BG@EKFFMJIO@RegOpenKeyTransactedW?$AA@ 00453e10     main.obj
 0002:0000ae28       ??_C@_0BI@MNCFCPFK@RegCreateKeyTransactedW?$AA@ 00453e28     main.obj
 0002:0000ae40       ??_C@_0BI@HAKLOOGP@RegDeleteKeyTransactedW?$AA@ 00453e40     main.obj
 0002:0000ae58       ??_C@_0BA@LILAPHGE@RegDeleteKeyExW?$AA@ 00453e58     main.obj
 0002:0000ae68       ??_C@_1M@KANJNLFF@?$AAC?$AAL?$AAS?$AAI?$AAD?$AA?$AA@ 00453e68     main.obj
 0002:0000ae74       ??_C@_1M@EJNEECMJ@?$AAA?$AAp?$AAp?$AAI?$AAD?$AA?$AA@ 00453e74     main.obj
 0002:0000ae80       ??_C@_1CK@OEKPKBNA@?$AAC?$AAo?$AAm?$AAp?$AAo?$AAn?$AAe?$AAn?$AAt?$AA?5?$AAC?$AAa?$AAt?$AAe?$AAg?$AAo?$AAr?$AAi?$AAe?$AAs?$AA?$AA@ 00453e80     main.obj
 0002:0000aeac       ??_C@_1BC@NKMMNMGL@?$AAF?$AAi?$AAl?$AAe?$AAT?$AAy?$AAp?$AAe?$AA?$AA@ 00453eac     main.obj
 0002:0000aec0       ??_C@_1BE@EKPAFMCP@?$AAI?$AAn?$AAt?$AAe?$AAr?$AAf?$AAa?$AAc?$AAe?$AA?$AA@ 00453ec0     main.obj
 0002:0000aed4       ??_C@_1BC@MAICEHGI@?$AAH?$AAa?$AAr?$AAd?$AAw?$AAa?$AAr?$AAe?$AA?$AA@ 00453ed4     main.obj
 0002:0000aee8       ??_C@_19HLLLM@?$AAM?$AAi?$AAm?$AAe?$AA?$AA@ 00453ee8     main.obj
 0002:0000aef4       ??_C@_17OMAOINJK@?$AAS?$AAA?$AAM?$AA?$AA@ 00453ef4     main.obj
 0002:0000aefc       ??_C@_1BC@IBECJAAI@?$AAS?$AAE?$AAC?$AAU?$AAR?$AAI?$AAT?$AAY?$AA?$AA@ 00453efc     main.obj
 0002:0000af10       ??_C@_1O@GBFINDKL@?$AAS?$AAY?$AAS?$AAT?$AAE?$AAM?$AA?$AA@ 00453f10     main.obj
 0002:0000af20       ??_C@_1BC@EAHCMADO@?$AAS?$AAo?$AAf?$AAt?$AAw?$AAa?$AAr?$AAe?$AA?$AA@ 00453f20     main.obj
 0002:0000af34       ??_C@_1BA@JIHHIEDE@?$AAT?$AAy?$AAp?$AAe?$AAL?$AAi?$AAb?$AA?$AA@ 00453f34     main.obj
 0002:0000af44       ??_C@_19NCHLBIN@?$AAH?$AAK?$AAC?$AAR?$AA?$AA@ 00453f44     main.obj
 0002:0000af50       ??_C@_19JAPAIJDE@?$AAH?$AAK?$AAC?$AAU?$AA?$AA@ 00453f50     main.obj
 0002:0000af5c       ??_C@_19PEALEEJB@?$AAH?$AAK?$AAL?$AAM?$AA?$AA@ 00453f5c     main.obj
 0002:0000af68       ??_C@_17PJOJPMPB@?$AAH?$AAK?$AAU?$AA?$AA@ 00453f68     main.obj
 0002:0000af70       ??_C@_19PNBHMJPL@?$AAH?$AAK?$AAP?$AAD?$AA?$AA@ 00453f70     main.obj
 0002:0000af7c       ??_C@_19GFFAIJHG@?$AAH?$AAK?$AAD?$AAD?$AA?$AA@ 00453f7c     main.obj
 0002:0000af88       ??_C@_19OFICIBHH@?$AAH?$AAK?$AAC?$AAC?$AA?$AA@ 00453f88     main.obj
 0002:0000af94       ??_C@_1CE@PACHPJFI@?$AAH?$AAK?$AAE?$AAY?$AA_?$AAC?$AAL?$AAA?$AAS?$AAS?$AAE?$AAS?$AA_?$AAR?$AAO?$AAO?$AAT?$AA?$AA@ 00453f94     main.obj
 0002:0000afb8       ??_C@_1CE@HLHNCBPM@?$AAH?$AAK?$AAE?$AAY?$AA_?$AAC?$AAU?$AAR?$AAR?$AAE?$AAN?$AAT?$AA_?$AAU?$AAS?$AAE?$AAR?$AA?$AA@ 00453fb8     main.obj
 0002:0000afdc       ??_C@_1CG@GFBEANJL@?$AAH?$AAK?$AAE?$AAY?$AA_?$AAL?$AAO?$AAC?$AAA?$AAL?$AA_?$AAM?$AAA?$AAC?$AAH?$AAI?$AAN?$AAE?$AA?$AA@ 00453fdc     main.obj
 0002:0000b004       ??_C@_1BG@BGODANIO@?$AAH?$AAK?$AAE?$AAY?$AA_?$AAU?$AAS?$AAE?$AAR?$AAS?$AA?$AA@ 00454004     main.obj
 0002:0000b01c       ??_C@_1CM@KHNNAOIC@?$AAH?$AAK?$AAE?$AAY?$AA_?$AAP?$AAE?$AAR?$AAF?$AAO?$AAR?$AAM?$AAA?$AAN?$AAC?$AAE?$AA_?$AAD?$AAA?$AAT?$AAA?$AA?$AA@ 0045401c     main.obj
 0002:0000b048       ??_C@_1BM@HAGMMHIA@?$AAH?$AAK?$AAE?$AAY?$AA_?$AAD?$AAY?$AAN?$AA_?$AAD?$AAA?$AAT?$AAA?$AA?$AA@ 00454048     main.obj
 0002:0000b064       ??_C@_1CI@BBJOACGG@?$AAH?$AAK?$AAE?$AAY?$AA_?$AAC?$AAU?$AAR?$AAR?$AAE?$AAN?$AAT?$AA_?$AAC?$AAO?$AAN?$AAF?$AAI?$AAG?$AA?$AA@ 00454064     main.obj
 0002:0000b090       ??_C@_1EA@NHKLICFA@?$AAH?$AAK?$AAC?$AAU?$AA?$AN?$AA?6?$AA?$HL?$AA?7?$AAS?$AAo?$AAf?$AAt?$AAw?$AAa?$AAr?$AAe?$AA?$AN?$AA?6?$AA?7?$AA?$HL?$AA?$AN?$AA?6?$AA?7?$AA?7?$AAC?$AAl?$AAa?$AAs?$AAs?$AAe?$AAs?$AA?$AA@ 00454090     main.obj
 0002:0000b0d0       ??_C@_1BE@LJOLIMEM@?$AA?$AN?$AA?6?$AA?7?$AA?$HN?$AA?$AN?$AA?6?$AA?$HN?$AA?$AN?$AA?6?$AA?$AA@ 004540d0     main.obj
 0002:0000b0e4       ??_C@_1O@MNLDABAF@?$AAM?$AAo?$AAd?$AAu?$AAl?$AAe?$AA?$AA@ 004540e4     main.obj
 0002:0000b0f4       ??_C@_1BG@JBACFMF@?$AAM?$AAo?$AAd?$AAu?$AAl?$AAe?$AA_?$AAR?$AAa?$AAw?$AA?$AA@ 004540f4     main.obj
 0002:0000b10c       ??_C@_1BC@KAILKFFG@?$AAR?$AAE?$AAG?$AAI?$AAS?$AAT?$AAR?$AAY?$AA?$AA@ 0045410c     main.obj
 0002:0000b120       ??_C@_1BA@KDMGPDJH@?$AAu?$AAn?$AAk?$AAn?$AAo?$AAw?$AAn?$AA?$AA@ 00454120     main.obj
 0002:0000b130       ??_C@_1EI@DFGJONLO@?$AAE?$AAx?$AAc?$AAe?$AAp?$AAt?$AAi?$AAo?$AAn?$AA?$CB?$AA?5?$AAP?$AAl?$AAe?$AAa?$AAs?$AAe?$AA?5?$AAr?$AAe?$AAp?$AAo?$AAr?$AAt?$AA?5?$AAi?$AAt?$AA?$CB?$AA?5?$AAO?$AAS?$AA?3@ 00454130     main.obj
 0002:0000b178       ??_C@_1BAK@GFEPGJJJ@?$AAE?$AAx?$AAc?$AAe?$AAp?$AAt?$AAi?$AAo?$AAn?$AAC?$AAo?$AAd?$AAe?$AA?5?$AA?$CF?$AA0?$AA8?$AAX?$AA?$AN?$AA?6?$AAE?$AAx?$AAc?$AAe?$AAp?$AAt?$AAi?$AAo?$AAn?$AAF?$AAl?$AAa@ 00454178     main.obj
 0002:0000b288       ??_C@_1LC@JMICDIHL@?$AAe?$AAa?$AAx?$AA?$DN?$AA0?$AAx?$AA?$CF?$AAp?$AA?0?$AA?5?$AAe?$AAb?$AAx?$AA?$DN?$AA0?$AAx?$AA?$CF?$AAp?$AA?0?$AA?5?$AAe?$AAd?$AAx?$AA?$DN?$AA0?$AAx?$AA?$CF?$AAp?$AA?0?$AA?5?$AAe?$AAc@ 00454288     main.obj
 0002:0000b33c       ??_C@_1M@PPPPCDEP@?$AAA?$AAP?$AAP?$AAI?$AAD?$AA?$AA@ 0045433c     main.obj
 0002:0000b34c       ??_7CComModule@ATL@@6B@    0045434c     main.obj
 0002:0000b378       ?map@?1??HKeyFromString@CRegParser@ATL@@KAPAUHKEY__@@PA_W@Z@4QBUkeymap@?1??123@KAPAU4@0@Z@B 00454378     main.obj
 0002:0000b3ec       ??_7CMessageLoop@WTL@@6B@  004543ec     main.obj
 0002:0000b400       ??_7CRegObject@ATL@@6B@    00454400     main.obj
 0002:0000b41c       ??_7CAppModule@WTL@@6B@    0045441c     main.obj
 0002:0000b444       ?rgszNeverDelete@CRegParser@ATL@@1QBQB_WB 00454444     main.obj
 0002:0000b474       __GUID_00000146_0000_0000_c000_000000000046 00454474     main.obj
 0002:0000b484       ??_C@_1BO@LHCMKFAI@?$AA?$CF?$AA0?$AA4?$AAd?$AA?5?$AA?9?$AA?5?$AA?$CF?$AAs?$AA?5?$AA?9?$AA?5?$AA?$CF?$AAs?$AA?$AA@ 00454484     MainGui.obj
 0002:0000b4a4       ??_C@_1DC@PBMNCDDD@?$AA?9?$AA?$DO?$AA?$DO?$AA?$DO?$AA?5?$AAM?$AAo?$AAd?$AAu?$AAl?$AAe?$AA?5?$AA?$CF?$AAs?$AA?5?$AAs?$AAe?$AAl?$AAe?$AAc?$AAt?$AAe?$AAd?$AA?4?$AA?$AA@ 004544a4     MainGui.obj
 0002:0000b4d8       ??_C@_1FI@BNOFBONG@?$AAI?$AAm?$AAa?$AAg?$AAe?$AAb?$AAa?$AAs?$AAe?$AA?3?$AA?5?$AA?$CF?$AA0?$AA8?$AAX?$AA?5?$AAS?$AAi?$AAz?$AAe?$AA?3?$AA?5?$AA?$CF?$AA0?$AA8?$AAX?$AA?5?$AAE?$AAn?$AAt?$AAr?$AAy@ 004544d8     MainGui.obj
 0002:0000b530       ??_C@_1O@FLFGJCGH@?$AAS?$AAc?$AAy?$AAl?$AAl?$AAa?$AA?$AA@ 00454530     MainGui.obj
 0002:0000b540       ??_C@_1GI@CAIFHGCB@?$AAO?$AAp?$AAe?$AAr?$AAa?$AAt?$AAi?$AAn?$AAg?$AA?5?$AAS?$AAy?$AAs?$AAt?$AAe?$AAm?$AA?5?$AAi?$AAs?$AA?5?$AAn?$AAo?$AAt?$AA?5?$AAs?$AAu?$AAp?$AAp?$AAo?$AAr?$AAt?$AAe@ 00454540     MainGui.obj
 0002:0000b5a8       ??_C@_1BI@NIHBLACF@?$AAI?$AAn?$AAf?$AAo?$AAr?$AAm?$AAa?$AAt?$AAi?$AAo?$AAn?$AA?$AA@ 004545a8     MainGui.obj
 0002:0000b5c0       ??_C@_1BBI@BKMHJPIK@?$AAP?$AAr?$AAo?$AAc?$AAe?$AAs?$AAs?$AA?5?$AAi?$AAs?$AA?5?$AAs?$AAu?$AAs?$AAp?$AAe?$AAn?$AAd?$AAe?$AAd?$AA?4?$AA?5?$AAD?$AAo?$AA?5?$AAy?$AAo?$AAu?$AA?5?$AAw?$AAa?$AAn@ 004545c0     MainGui.obj
 0002:0000b6d8       ??_C@_1BK@IMEIHDKC@?$AA?7?$AAI?$AAm?$AAp?$AAo?$AAr?$AAt?$AAs?$AA?3?$AA?5?$AA?$CF?$AAu?$AA?$AA@ 004546d8     MainGui.obj
 0002:0000b6f4       ??_C@_1BK@EHFDNBMP@?$AA?7?$AAI?$AAn?$AAv?$AAa?$AAl?$AAi?$AAd?$AA?3?$AA?5?$AA?$CF?$AAu?$AA?$AA@ 004546f4     MainGui.obj
 0002:0000b710       ??_C@_1CC@BKDFKEAF@?$AA?7?$AAI?$AAm?$AAa?$AAg?$AAe?$AAb?$AAa?$AAs?$AAe?$AA?3?$AA?5?$AA?$CF?$AA0?$AA8?$AAX?$AA?$AA@ 00454710     MainGui.obj
 0002:0000b734       ??_C@_1DE@PJJNKLE@?$AAC?$AAa?$AAn?$AA?8?$AAt?$AA?5?$AAr?$AAe?$AAa?$AAd?$AA?5?$AAm?$AAe?$AAm?$AAo?$AAr?$AAy?$AA?5?$AAa?$AAt?$AA?5?$AA?$CF?$AA0?$AA8?$AAX?$AA?$AA@ 00454734     MainGui.obj
 0002:0000b768       ??_C@_1BA@KPPLMDID@?$AAF?$AAa?$AAi?$AAl?$AAu?$AAr?$AAe?$AA?$AA@ 00454768     MainGui.obj
 0002:0000b778       ??_C@_1BK@HNNFFOCN@?$AAA?$AAn?$AAa?$AAl?$AAy?$AAz?$AAi?$AAn?$AAg?$AA?5?$AA?$CF?$AAs?$AA?$AA@ 00454778     MainGui.obj
 0002:0000b798       ??_C@_1EG@HHILMNLI@?$AAE?$AAr?$AAr?$AAo?$AAr?$AA?3?$AA?5?$AAC?$AAa?$AAn?$AAn?$AAo?$AAt?$AA?5?$AAo?$AAp?$AAe?$AAn?$AA?5?$AAp?$AAr?$AAo?$AAc?$AAe?$AAs?$AAs?$AA?5?$AAh?$AAa?$AAn?$AAd?$AAl@ 00454798     MainGui.obj
 0002:0000b7e0       ??_C@_1CM@HKPJPOPJ@?$AAL?$AAo?$AAa?$AAd?$AAi?$AAn?$AAg?$AA?5?$AAm?$AAo?$AAd?$AAu?$AAl?$AAe?$AAs?$AA?5?$AAd?$AAo?$AAn?$AAe?$AA?4?$AA?$AA@ 004547e0     MainGui.obj
 0002:0000b80c       ??_C@_1DG@BEBJFPCE@?$AAI?$AAm?$AAa?$AAg?$AAe?$AAb?$AAa?$AAs?$AAe?$AA?3?$AA?5?$AA?$CF?$AA0?$AA8?$AAX?$AA?5?$AAS?$AAi?$AAz?$AAe?$AA?3?$AA?5?$AA?$CF?$AA0?$AA8?$AAX?$AA?$AA@ 0045480c     MainGui.obj
 0002:0000b844       ??_C@_1DI@IFDAEHI@?$AAL?$AAo?$AAa?$AAd?$AAi?$AAn?$AAg?$AA?5?$AAt?$AAr?$AAe?$AAe?$AA?5?$AAf?$AAi?$AAl?$AAe?$AA?5?$AAf?$AAa?$AAi?$AAl?$AAe?$AAd?$AA?5?$AA?$CF?$AAs?$AA?$AA@ 00454844     MainGui.obj
 0002:0000b87c       ??_C@_1DE@PEELJCMD@?$AAL?$AAo?$AAa?$AAd?$AAi?$AAn?$AAg?$AA?5?$AAt?$AAr?$AAe?$AAe?$AA?5?$AAf?$AAi?$AAl?$AAe?$AA?5?$AAf?$AAa?$AAi?$AAl?$AAe?$AAd?$AA?4?$AA?$AA@ 0045487c     MainGui.obj
 0002:0000b8b0       ??_C@_1CI@BCMCIJNM@?$AAL?$AAo?$AAa?$AAd?$AAe?$AAd?$AA?5?$AAt?$AAr?$AAe?$AAe?$AA?5?$AAf?$AAi?$AAl?$AAe?$AA?5?$AA?$CF?$AAs?$AA?$AA@ 004548b0     MainGui.obj
 0002:0000b8d8       ??_C@_1BK@FIMEOEIE@?$AA?9?$AA?$DO?$AA?5?$AAO?$AAE?$AAP?$AA?3?$AA?5?$AA?$CF?$AA0?$AA8?$AAX?$AA?$AA@ 004548d8     MainGui.obj
 0002:0000b8f4       ??_C@_1CM@BODBHKPC@?$AA?9?$AA?$DO?$AA?5?$AAI?$AAA?$AAT?$AA?3?$AA?5?$AA?$CF?$AA0?$AA8?$AAX?$AA?5?$AAS?$AAi?$AAz?$AAe?$AA?3?$AA?5?$AA?$CF?$AAX?$AA?$AA@ 004548f4     MainGui.obj
 0002:0000b920       ??_C@_17CAPCPOIM@?$AAx?$AAm?$AAl?$AA?$AA@ 00454920     MainGui.obj
 0002:0000b928       ??_C@_1DG@KECPDANK@?$AAS?$AAa?$AAv?$AAi?$AAn?$AAg?$AA?5?$AAt?$AAr?$AAe?$AAe?$AA?5?$AAf?$AAi?$AAl?$AAe?$AA?5?$AAf?$AAa?$AAi?$AAl?$AAe?$AAd?$AA?5?$AA?$CF?$AAs?$AA?$AA@ 00454928     MainGui.obj
 0002:0000b960       ??_C@_1DC@JBIJHDFK@?$AAS?$AAa?$AAv?$AAi?$AAn?$AAg?$AA?5?$AAt?$AAr?$AAe?$AAe?$AA?5?$AAf?$AAi?$AAl?$AAe?$AA?5?$AAf?$AAa?$AAi?$AAl?$AAe?$AAd?$AA?4?$AA?$AA@ 00454960     MainGui.obj
 0002:0000b994       ??_C@_1CG@CJJOEBGA@?$AAS?$AAa?$AAv?$AAe?$AAd?$AA?5?$AAt?$AAr?$AAe?$AAe?$AA?5?$AAf?$AAi?$AAl?$AAe?$AA?5?$AA?$CF?$AAs?$AA?$AA@ 00454994     MainGui.obj
 0002:0000b9c0       ??_C@_1GM@JOLALHIA@?$AAI?$AAA?$AAT?$AA?5?$AAS?$AAe?$AAa?$AAr?$AAc?$AAh?$AA?5?$AAA?$AAd?$AAv?$AA?3?$AA?5?$AAI?$AAA?$AAT?$AA?5?$AAV?$AAA?$AA?5?$AA?$CF?$AA0?$AA8?$AAX?$AA?5?$AAR?$AAV?$AAA?$AA?5@ 004549c0     MainGui.obj
 0002:0000ba30       ??_C@_1FG@FIJKCENN@?$AAI?$AAA?$AAT?$AA?5?$AAS?$AAe?$AAa?$AAr?$AAc?$AAh?$AA?5?$AAA?$AAd?$AAv?$AA?3?$AA?5?$AAI?$AAA?$AAT?$AA?5?$AAn?$AAo?$AAt?$AA?5?$AAf?$AAo?$AAu?$AAn?$AAd?$AA?5?$AAa?$AAt@ 00454a30     MainGui.obj
 0002:0000ba88       ??_C@_1GM@CDDGMGLO@?$AAI?$AAA?$AAT?$AA?5?$AAS?$AAe?$AAa?$AAr?$AAc?$AAh?$AA?5?$AAN?$AAo?$AAr?$AA?3?$AA?5?$AAI?$AAA?$AAT?$AA?5?$AAV?$AAA?$AA?5?$AA?$CF?$AA0?$AA8?$AAX?$AA?5?$AAR?$AAV?$AAA?$AA?5@ 00454a88     MainGui.obj
 0002:0000baf8       ??_C@_1FG@MNAFJBLC@?$AAI?$AAA?$AAT?$AA?5?$AAS?$AAe?$AAa?$AAr?$AAc?$AAh?$AA?5?$AAN?$AAo?$AAr?$AA?3?$AA?5?$AAI?$AAA?$AAT?$AA?5?$AAn?$AAo?$AAt?$AA?5?$AAf?$AAo?$AAu?$AAn?$AAd?$AA?5?$AAa?$AAt@ 00454af8     MainGui.obj
 0002:0000bb50       ??_C@_1MM@MPLOAHIK@?$AAR?$AAe?$AAs?$AAu?$AAl?$AAt?$AA?5?$AAo?$AAf?$AA?5?$AAa?$AAd?$AAv?$AAa?$AAn?$AAc?$AAe?$AAd?$AA?5?$AAa?$AAn?$AAd?$AA?5?$AAn?$AAo?$AAr?$AAm?$AAa?$AAl?$AA?5?$AAs?$AAe@ 00454b50     MainGui.obj
 0002:0000bc20       ??_C@_1IO@PNDCIJOE@?$AAD?$AAI?$AAR?$AAE?$AAC?$AAT?$AA?5?$AAI?$AAM?$AAP?$AAO?$AAR?$AAT?$AAS?$AA?5?$AA?9?$AA?5?$AAF?$AAo?$AAu?$AAn?$AAd?$AA?5?$AA?$CF?$AAd?$AA?5?$AAp?$AAo?$AAs?$AAs?$AAi?$AAb@ 00454c20     MainGui.obj
 0002:0000bcb0       ??_C@_1GI@JPHKLELA@?$AAD?$AAI?$AAR?$AAE?$AAC?$AAT?$AA?5?$AAI?$AAM?$AAP?$AAO?$AAR?$AAT?$AAS?$AA?5?$AA?9?$AA?5?$AAF?$AAo?$AAu?$AAn?$AAd?$AA?5?$AA?$CF?$AAd?$AA?5?$AAa?$AAd?$AAd?$AAi?$AAt?$AAi@ 00454cb0     MainGui.obj
 0002:0000bd18       ??_C@_1HE@DHBPOKCL@?$AAD?$AAI?$AAR?$AAE?$AAC?$AAT?$AA?5?$AAI?$AAM?$AAP?$AAO?$AAR?$AAT?$AAS?$AA?5?$AA?9?$AA?5?$AAO?$AAl?$AAd?$AA?5?$AAI?$AAA?$AAT?$AA?5?$AAs?$AAi?$AAz?$AAe?$AA?5?$AA0?$AAx@ 00454d18     MainGui.obj
 0002:0000bd90       ??_C@_1BLC@FENHMJOD@?$AAD?$AAi?$AAr?$AAe?$AAc?$AAt?$AA?5?$AAI?$AAm?$AAp?$AAo?$AAr?$AAt?$AAs?$AA?5?$AAf?$AAo?$AAu?$AAn?$AAd?$AA?4?$AA?5?$AAI?$AA?5?$AAc?$AAa?$AAn?$AA?5?$AAp?$AAa?$AAt?$AAc@ 00454d90     MainGui.obj
 0002:0000bf48       ??_C@_1FM@OJJJKNLJ@?$AAD?$AAI?$AAR?$AAE?$AAC?$AAT?$AA?5?$AAI?$AAM?$AAP?$AAO?$AAR?$AAT?$AAS?$AA?5?$AA?9?$AA?5?$AAP?$AAa?$AAt?$AAc?$AAh?$AAe?$AAd?$AA?$CB?$AA?5?$AAP?$AAl?$AAe?$AAa?$AAs?$AAe@ 00454f48     MainGui.obj
 0002:0000bfa8       ??_C@_1HI@NFMNPJGO@?$AAW?$AAA?$AAR?$AAN?$AAI?$AAN?$AAG?$AA?$CB?$AA?5?$AAI?$AAA?$AAT?$AA?5?$AAi?$AAs?$AA?5?$AAn?$AAo?$AAt?$AA?5?$AAi?$AAn?$AAs?$AAi?$AAd?$AAe?$AA?5?$AAt?$AAh?$AAe?$AA?5?$AAP@ 00454fa8     MainGui.obj
 0002:0000c020       ??_C@_17LBOLAHJL@?$AAt?$AAx?$AAt?$AA?$AA@ 00455020     MainGui.obj
 0002:0000c028       ??_C@_1BO@GPGEPOBL@?$AAS?$AAc?$AAy?$AAl?$AAl?$AAa?$AA?5?$AAP?$AAl?$AAu?$AAg?$AAi?$AAn?$AAs?$AA?$AA@ 00455028     MainGui.obj
 0002:0000c048       ??_C@_1BO@PAFDGOKI@?$AAI?$AAm?$AAp?$AAR?$AAE?$AAC?$AA?5?$AAP?$AAl?$AAu?$AAg?$AAi?$AAn?$AAs?$AA?$AA@ 00455048     MainGui.obj
 0002:0000c068       ??_C@_17EAEGCEML@?$AAm?$AAe?$AAm?$AA?$AA@ 00455068     MainGui.obj
 0002:0000c070       ??_C@_1CK@DJCCIADC@?$AAM?$AAe?$AAm?$AAo?$AAr?$AAy?$AA?5?$AAd?$AAu?$AAm?$AAp?$AA?5?$AAs?$AAa?$AAv?$AAe?$AAd?$AA?5?$AA?$CF?$AAs?$AA?$AA@ 00455070     MainGui.obj
 0002:0000c0a0       ??_C@_1FA@IHLNPIPN@?$AAE?$AAr?$AAr?$AAo?$AAr?$AA?$CB?$AA?5?$AAC?$AAa?$AAn?$AAn?$AAo?$AAt?$AA?5?$AAw?$AAr?$AAi?$AAt?$AAe?$AA?5?$AAm?$AAe?$AAm?$AAo?$AAr?$AAy?$AA?5?$AAd?$AAu?$AAm?$AAp?$AA?5@ 004550a0     MainGui.obj
 0002:0000c0f0       ??_C@_17MALKAJEN@?$AAd?$AAl?$AAl?$AA?$AA@ 004550f0     MainGui.obj
 0002:0000c0f8       ??_C@_17OJFPAGNE@?$AAe?$AAx?$AAe?$AA?$AA@ 004550f8     MainGui.obj
 0002:0000c100       ??_C@_1CA@FCBBCFFF@?$AAD?$AAu?$AAm?$AAp?$AA?5?$AAs?$AAu?$AAc?$AAc?$AAe?$AAs?$AAs?$AA?5?$AA?$CF?$AAs?$AA?$AA@ 00455100     MainGui.obj
 0002:0000c120       ??_C@_1DE@BPJLMFPN@?$AAE?$AAr?$AAr?$AAo?$AAr?$AA?3?$AA?5?$AAC?$AAa?$AAn?$AAn?$AAo?$AAt?$AA?5?$AAd?$AAu?$AAm?$AAp?$AA?5?$AAi?$AAm?$AAa?$AAg?$AAe?$AA?4?$AA?$AA@ 00455120     MainGui.obj
 0002:0000c154       ??_C@_1CG@LBFMBDMG@?$AAC?$AAa?$AAn?$AAn?$AAo?$AAt?$AA?5?$AAd?$AAu?$AAm?$AAp?$AA?5?$AAi?$AAm?$AAa?$AAg?$AAe?$AA?4?$AA?$AA@ 00455154     MainGui.obj
 0002:0000c180       ??_C@_1KM@JFFPAEPN@?$AAE?$AAr?$AAr?$AAo?$AAr?$AA?3?$AA?5?$AAI?$AAn?$AAv?$AAa?$AAl?$AAi?$AAd?$AA?5?$AAP?$AAE?$AA?5?$AAf?$AAi?$AAl?$AAe?$AA?5?$AAo?$AAr?$AA?5?$AAi?$AAn?$AAv?$AAa?$AAl?$AAi@ 00455180     MainGui.obj
 0002:0000c22c       ??_C@_1DO@MFGNMGKB@?$AAC?$AAr?$AAe?$AAa?$AAt?$AAi?$AAn?$AAg?$AA?5?$AAb?$AAa?$AAc?$AAk?$AAu?$AAp?$AA?5?$AAf?$AAi?$AAl?$AAe?$AA?5?$AAf?$AAa?$AAi?$AAl?$AAe?$AAd?$AA?5?$AA?$CF?$AAs?$AA?$AA@ 0045522c     MainGui.obj
 0002:0000c26c       ??_C@_1DO@FADNJAOE@?$AAT?$AAh?$AAi?$AAs?$AA?5?$AAi?$AAs?$AA?5?$AAn?$AAo?$AAt?$AA?5?$AAa?$AA?5?$AAv?$AAa?$AAl?$AAi?$AAd?$AA?5?$AAP?$AAE?$AA?5?$AAf?$AAi?$AAl?$AAe?$AA?5?$AA?$CF?$AAs?$AA?$AA@ 0045526c     MainGui.obj
 0002:0000c2ac       ??_C@_1CK@FPKNNKLK@?$AAN?$AAo?$AAt?$AA?5?$AAa?$AA?5?$AAv?$AAa?$AAl?$AAi?$AAd?$AA?5?$AAP?$AAE?$AA?5?$AAf?$AAi?$AAl?$AAe?$AA?4?$AA?$AA@ 004552ac     MainGui.obj
 0002:0000c2d8       ??_C@_1DM@KLKELLCG@?$AAG?$AAe?$AAn?$AAe?$AAr?$AAa?$AAt?$AAi?$AAn?$AAg?$AA?5?$AAP?$AAE?$AA?5?$AAh?$AAe?$AAa?$AAd?$AAe?$AAr?$AA?5?$AAc?$AAh?$AAe?$AAc?$AAk?$AAs?$AAu?$AAm?$AA?$AA@ 004552d8     MainGui.obj
 0002:0000c318       ??_C@_1EM@IDHFDLCD@?$AAG?$AAe?$AAn?$AAe?$AAr?$AAa?$AAt?$AAi?$AAn?$AAg?$AA?5?$AAP?$AAE?$AA?5?$AAh?$AAe?$AAa?$AAd?$AAe?$AAr?$AA?5?$AAc?$AAh?$AAe?$AAc?$AAk?$AAs?$AAu?$AAm?$AA?5?$AAF?$AAA@ 00455318     MainGui.obj
 0002:0000c364       ??_C@_1CG@OALHDGHC@?$AAR?$AAe?$AAb?$AAu?$AAi?$AAl?$AAd?$AA?5?$AAs?$AAu?$AAc?$AAc?$AAe?$AAs?$AAs?$AA?5?$AA?$CF?$AAs?$AA?$AA@ 00455364     MainGui.obj
 0002:0000c390       ??_C@_1GK@ECFCKIFP@?$AA?9?$AA?$DO?$AA?5?$AAO?$AAl?$AAd?$AA?5?$AAf?$AAi?$AAl?$AAe?$AA?5?$AAs?$AAi?$AAz?$AAe?$AA?5?$AA0?$AAx?$AA?$CF?$AA0?$AA8?$AAX?$AA?5?$AAn?$AAe?$AAw?$AA?5?$AAf?$AAi?$AAl?$AAe@ 00455390     MainGui.obj
 0002:0000c400       ??_C@_1EI@NHIFFHJ@?$AAR?$AAe?$AAb?$AAu?$AAi?$AAl?$AAd?$AA?5?$AAf?$AAa?$AAi?$AAl?$AAe?$AAd?$AA?0?$AA?5?$AAc?$AAa?$AAn?$AAn?$AAo?$AAt?$AA?5?$AAs?$AAa?$AAv?$AAe?$AA?5?$AAf?$AAi?$AAl?$AAe@ 00455400     MainGui.obj
 0002:0000c448       ??_C@_1EE@DJBGJMKC@?$AAR?$AAe?$AAb?$AAu?$AAi?$AAl?$AAd?$AA?5?$AAf?$AAa?$AAi?$AAl?$AAe?$AAd?$AA?4?$AA?5?$AAC?$AAa?$AAn?$AAn?$AAo?$AAt?$AA?5?$AAs?$AAa?$AAv?$AAe?$AA?5?$AAf?$AAi?$AAl?$AAe@ 00455448     MainGui.obj
 0002:0000c490       ??_C@_1EI@CKCKCCPG@?$AAR?$AAe?$AAb?$AAu?$AAi?$AAl?$AAd?$AA?5?$AAf?$AAa?$AAi?$AAl?$AAe?$AAd?$AA?0?$AA?5?$AAc?$AAa?$AAn?$AAn?$AAo?$AAt?$AA?5?$AAr?$AAe?$AAa?$AAd?$AA?5?$AAf?$AAi?$AAl?$AAe@ 00455490     MainGui.obj
 0002:0000c4d8       ??_C@_1EE@BDGNENG@?$AAR?$AAe?$AAb?$AAu?$AAi?$AAl?$AAd?$AA?5?$AAf?$AAa?$AAi?$AAl?$AAe?$AAd?$AA?4?$AA?5?$AAC?$AAa?$AAn?$AAn?$AAo?$AAt?$AA?5?$AAr?$AAe?$AAa?$AAd?$AA?5?$AAf?$AAi?$AAl?$AAe@ 004554d8     MainGui.obj
 0002:0000c51c       ??_C@_1CG@MKNIHKKJ@?$AAN?$AAo?$AAt?$AAh?$AAi?$AAn?$AAg?$AA?5?$AAt?$AAo?$AA?5?$AAr?$AAe?$AAb?$AAu?$AAi?$AAl?$AAd?$AA?$AA@ 0045551c     MainGui.obj
 0002:0000c544       ??_C@_19LAAKIGID@?$AA_?$AAS?$AAC?$AAY?$AA?$AA@ 00455544     MainGui.obj
 0002:0000c550       ??_C@_1DE@HKBGINIB@?$AAI?$AAm?$AAp?$AAo?$AAr?$AAt?$AA?5?$AAR?$AAe?$AAb?$AAu?$AAi?$AAl?$AAd?$AA?5?$AAs?$AAu?$AAc?$AAc?$AAe?$AAs?$AAs?$AA?5?$AA?$CF?$AAs?$AA?$AA@ 00455550     MainGui.obj
 0002:0000c584       ??_C@_1DC@ODMEEHHM@?$AAI?$AAm?$AAp?$AAo?$AAr?$AAt?$AA?5?$AAR?$AAe?$AAb?$AAu?$AAi?$AAl?$AAd?$AA?5?$AAf?$AAa?$AAi?$AAl?$AAe?$AAd?$AA?5?$AA?$CF?$AAs?$AA?$AA@ 00455584     MainGui.obj
 0002:0000c5b8       ??_C@_1CM@CJJANMBP@?$AAI?$AAm?$AAp?$AAo?$AAr?$AAt?$AA?5?$AAR?$AAe?$AAb?$AAu?$AAi?$AAl?$AAd?$AA?5?$AAf?$AAa?$AAi?$AAl?$AAe?$AAd?$AA?$AA@ 004555b8     MainGui.obj
 0002:0000c5e8       ??_C@_1EA@PFBDLALF@?$AAD?$AAL?$AAL?$AA?5?$AAu?$AAn?$AAl?$AAo?$AAa?$AAd?$AAi?$AAn?$AAg?$AA?5?$AAf?$AAa?$AAi?$AAl?$AAe?$AAd?$AA?0?$AA?5?$AAt?$AAa?$AAr?$AAg?$AAe?$AAt?$AA?5?$AA?$CF?$AAs?$AA?$AA@ 004555e8     MainGui.obj
 0002:0000c628       ??_C@_1FA@FCJODEDK@?$AAD?$AAL?$AAL?$AA?5?$AAI?$AAn?$AAj?$AAe?$AAc?$AAt?$AAi?$AAo?$AAn?$AA?5?$AAw?$AAa?$AAs?$AA?5?$AAs?$AAu?$AAc?$AAc?$AAe?$AAs?$AAs?$AAf?$AAu?$AAl?$AA?0?$AA?5?$AAt?$AAa@ 00455628     MainGui.obj
 0002:0000c678       ??_C@_1EA@HBNJCDBK@?$AAD?$AAL?$AAL?$AA?5?$AAI?$AAn?$AAj?$AAe?$AAc?$AAt?$AAi?$AAo?$AAn?$AA?5?$AAf?$AAa?$AAi?$AAl?$AAe?$AAd?$AA?0?$AA?5?$AAt?$AAa?$AAr?$AAg?$AAe?$AAt?$AA?5?$AA?$CF?$AAs?$AA?$AA@ 00455678     MainGui.obj
 0002:0000c6b8       ??_C@_1DO@KGKDLMPM@?$AAE?$AAr?$AAr?$AAo?$AAr?$AA?3?$AA?5?$AAC?$AAa?$AAn?$AAn?$AAo?$AAt?$AA?5?$AAs?$AAu?$AAs?$AAp?$AAe?$AAn?$AAd?$AA?5?$AAp?$AAr?$AAo?$AAc?$AAe?$AAs?$AAs?$AA?4?$AA?$AA@ 004556b8     MainGui.obj
 0002:0000c6f8       ??_C@_1GO@DKOHNIJN@?$AAS?$AAu?$AAs?$AAp?$AAe?$AAn?$AAd?$AAi?$AAn?$AAg?$AA?5?$AAp?$AAr?$AAo?$AAc?$AAe?$AAs?$AAs?$AA?5?$AAs?$AAu?$AAc?$AAc?$AAe?$AAs?$AAs?$AAf?$AAu?$AAl?$AA?0?$AA?5?$AAp@ 004556f8     MainGui.obj
 0002:0000c768       ??_C@_1FM@DEPOLAOP@?$AAI?$AAA?$AAT?$AA?5?$AAf?$AAo?$AAu?$AAn?$AAd?$AA?3?$AA?$AN?$AA?6?$AA?$AN?$AA?6?$AAS?$AAt?$AAa?$AAr?$AAt?$AA?3?$AA?5?$AA?$CF?$AA0?$AA8?$AAX?$AA?$AN?$AA?6?$AAS?$AAi?$AAz?$AAe?$AA?3@ 00455768     MainGui.obj
 0002:0000c7c4       ??_C@_1BE@DMDEBELF@?$AAI?$AAA?$AAT?$AA?5?$AAf?$AAo?$AAu?$AAn?$AAd?$AA?$AA@ 004557c4     MainGui.obj
 0002:0000c7d8       ??_C@_1BE@EEJAKAH@?$AA_?$AAd?$AAu?$AAm?$AAp?$AA?4?$AAd?$AAl?$AAl?$AA?$AA@ 004557d8     MainGui.obj
 0002:0000c7ec       ??_C@_1BE@CNKMAFJO@?$AA_?$AAd?$AAu?$AAm?$AAp?$AA?4?$AAe?$AAx?$AAe?$AA?$AA@ 004557ec     MainGui.obj
 0002:0000c800       ??_C@_0BM@NMJKDPPO@invalid?5vector?$DMT?$DO?5subscript?$AA@ 00455800     MainGui.obj
 0002:0000c81c       ??_C@_1CG@JPMAJDKP@?$AAm?$AAs?$AAc?$AAt?$AAl?$AAs?$AA_?$AAs?$AAt?$AAa?$AAt?$AAu?$AAs?$AAb?$AAa?$AAr?$AA3?$AA2?$AA?$AA@ 0045581c     MainGui.obj
 0002:0000c848       ??_7MainGui@@6BCMessageFilter@WTL@@@ 00455848     MainGui.obj
 0002:0000c850       ??_7CMultiSelectTreeViewCtrl@@6B@ 00455850     MainGui.obj
 0002:0000c864       ??_7MainGui@@6B?$CDialogImpl@VMainGui@@VCWindow@ATL@@@ATL@@@ 00455864     MainGui.obj
 0002:0000c878       ?theMap@?1??GetDlgResizeMap@MainGui@@SAPBU_AtlDlgResizeMap@WTL@@XZ@4QBU34@B 00455878     MainGui.obj
 0002:0000c94c       ??_7AboutGui@@6B@          0045594c     MainGui.obj
 0002:0000c960       ??_7DonateGui@@6B@         00455960     MainGui.obj
 0002:0000c974       ??_7OptionsGui@@6B@        00455974     MainGui.obj
 0002:0000c984       ??_C@_0BB@KGGDNLNO@NtCreateThreadEx?$AA@ 00455984     NativeWinApi.obj
 0002:0000c998       ??_C@_0BC@MDCBEKCC@NtDuplicateObject?$AA@ 00455998     NativeWinApi.obj
 0002:0000c9ac       ??_C@_0O@JGCNKEPA@NtOpenProcess?$AA@ 004559ac     NativeWinApi.obj
 0002:0000c9bc       ??_C@_0N@EJDHLIH@NtOpenThread?$AA@ 004559bc     NativeWinApi.obj
 0002:0000c9cc       ??_C@_0O@IFMDHOMC@NtQueryObject?$AA@ 004559cc     NativeWinApi.obj
 0002:0000c9dc       ??_C@_0BH@DLPGICA@NtQueryInformationFile?$AA@ 004559dc     NativeWinApi.obj
 0002:0000c9f4       ??_C@_0BK@EGDDIFMK@NtQueryInformationProcess?$AA@ 004559f4     NativeWinApi.obj
 0002:0000ca10       ??_C@_0BJ@HKKELGGC@NtQueryInformationThread?$AA@ 00455a10     NativeWinApi.obj
 0002:0000ca2c       ??_C@_0BJ@NDLOPGCH@NtQuerySystemInformation?$AA@ 00455a2c     NativeWinApi.obj
 0002:0000ca48       ??_C@_0BF@MJPACJIK@NtQueryVirtualMemory?$AA@ 00455a48     NativeWinApi.obj
 0002:0000ca60       ??_C@_0BA@PNNBPCAM@NtResumeProcess?$AA@ 00455a60     NativeWinApi.obj
 0002:0000ca70       ??_C@_0P@JDJEHDNH@NtResumeThread?$AA@ 00455a70     NativeWinApi.obj
 0002:0000ca80       ??_C@_0BH@KPLDILJD@NtSetInformationThread?$AA@ 00455a80     NativeWinApi.obj
 0002:0000ca98       ??_C@_0BB@ELOHAJKJ@NtSuspendProcess?$AA@ 00455a98     NativeWinApi.obj
 0002:0000caac       ??_C@_0BD@LGANCOHC@NtTerminateProcess?$AA@ 00455aac     NativeWinApi.obj
 0002:0000cac0       ??_C@_0BJ@NAAOCCIC@NtOpenSymbolicLinkObject?$AA@ 00455ac0     NativeWinApi.obj
 0002:0000cadc       ??_C@_0BK@FFOGOCND@NtQuerySymbolicLinkObject?$AA@ 00455adc     NativeWinApi.obj
 0002:0000caf8       ??_C@_0BG@NFNCIOML@RtlNtStatusToDosError?$AA@ 00455af8     NativeWinApi.obj
 0002:0000cb10       ??_C@_07EGJLEIEB@NtClose?$AA@ 00455b10     NativeWinApi.obj
 0002:0000cb18       ??_C@_1M@FGGOMJIH@?$AA?$CD?$AA?$CF?$AA0?$AA4?$AAX?$AA?$AA@ 00455b18     PickApiGui.obj
 0002:0000cb28       ??_7PickApiGui@@6B@        00455b28     PickApiGui.obj
 0002:0000cb38       ?theMap@?1??GetDlgResizeMap@PickApiGui@@SAPBU_AtlDlgResizeMap@WTL@@XZ@4QBU34@B 00455b38     PickApiGui.obj
 0002:0000cb80       ??_C@_1BE@OAIGADCK@?$AAI?$AAm?$AAa?$AAg?$AAe?$AAB?$AAa?$AAs?$AAe?$AA?$AA@ 00455b80     PickDllGui.obj
 0002:0000cb94       ??_C@_1BE@NMAAKDIB@?$AAI?$AAm?$AAa?$AAg?$AAe?$AAS?$AAi?$AAz?$AAe?$AA?$AA@ 00455b94     PickDllGui.obj
 0002:0000cba8       ??_C@_19NHABCBNP@?$AAP?$AAa?$AAt?$AAh?$AA?$AA@ 00455ba8     PickDllGui.obj
 0002:0000cbb4       ?theMap@?1??GetDlgResizeMap@PickDllGui@@SAPBU_AtlDlgResizeMap@WTL@@XZ@4QBU34@B 00455bb4     PickDllGui.obj
 0002:0000cbd8       ??_7PickDllGui@@6B@        00455bd8     PickDllGui.obj
 0002:0000cbe8       ??_C@_0BC@PPICJDA@ScyllaPluginNameW?$AA@ 00455be8     PluginLoader.obj
 0002:0000cbfc       ??_C@_0BC@BDGAJMOH@ScyllaPluginNameA?$AA@ 00455bfc     PluginLoader.obj
 0002:0000cc10       ??_C@_05ILLBNNOP@Trace?$AA@ 00455c10     PluginLoader.obj
 0002:0000cc18       ??_C@_19PAKAKPNB@?$AA?4?$AAb?$AAa?$AAk?$AA?$AA@ 00455c18     ProcessAccessHelp.obj
 0002:0000cc24       ??_C@_1CC@DMDJMJLM@?$AAS?$AAe?$AAD?$AAe?$AAb?$AAu?$AAg?$AAP?$AAr?$AAi?$AAv?$AAi?$AAl?$AAe?$AAg?$AAe?$AA?$AA@ 00455c24     ProcessLister.obj
 0002:0000cc48       ??_C@_1BK@FFELDFED@?$AAU?$AAn?$AAk?$AAn?$AAo?$AAw?$AAn?$AA?5?$AAp?$AAa?$AAt?$AAh?$AA?$AA@ 00455c48     ProcessLister.obj
 0002:0000cc64       ??_C@_1BG@NNINIFNH@?$AAS?$AAc?$AAy?$AAl?$AAl?$AAa?$AA?4?$AAi?$AAn?$AAi?$AA?$AA@ 00455c64     Scylla.obj
 0002:0000cc80       ??_7ListboxLog@@6B@        00455c80     Scylla.obj
 0002:0000cc90       ??_C@_0BE@HLKFLAJF@GetNativeSystemInfo?$AA@ 00455c90     SystemInformation.obj
 0002:0000cca8       ??_7TiXmlDocument@@6B@     00455ca8     TreeImportExport.obj
 0002:0000ccec       ??_C@_03HLLJOCDO@1?40?$AA@ 00455cec     TreeImportExport.obj
 0002:0000ccf0       ??_C@_06JJLAMBGK@target?$AA@ 00455cf0     TreeImportExport.obj
 0002:0000ccf8       ??_C@_1FA@ICINJGBB@?$AAL?$AAo?$AAa?$AAd?$AA?5?$AAT?$AAr?$AAe?$AAe?$AA?5?$AA?3?$AA?3?$AA?5?$AAE?$AAr?$AAr?$AAo?$AAr?$AA?5?$AAp?$AAa?$AAr?$AAs?$AAi?$AAn?$AAg?$AA?5?$AAx?$AAm?$AAl?$AA?5?$AA?$CF@ 00455cf8     TreeImportExport.obj
 0002:0000cd48       ??_C@_1HG@PBKFIGBF@?$AAL?$AAo?$AAa?$AAd?$AA?5?$AAT?$AAr?$AAe?$AAe?$AA?5?$AA?3?$AA?3?$AA?5?$AAE?$AAr?$AAr?$AAo?$AAr?$AA?5?$AAg?$AAe?$AAt?$AAt?$AAi?$AAn?$AAg?$AA?5?$AAf?$AAi?$AAr?$AAs?$AAt@ 00455d48     TreeImportExport.obj
 0002:0000cdc0       ??_C@_06BHCDDFL@oep_va?$AA@ 00455dc0     TreeImportExport.obj
 0002:0000cdc8       ??_C@_06MLDOCLH@iat_va?$AA@ 00455dc8     TreeImportExport.obj
 0002:0000cdd0       ??_C@_08KJDIGCGD@iat_size?$AA@ 00455dd0     TreeImportExport.obj
 0002:0000cddc       ??_C@_08BABJIOEM@filename?$AA@ 00455ddc     TreeImportExport.obj
 0002:0000cde8       ??_C@_15JJPIMNBO@?$AAr?$AAb?$AA?$AA@ 00455de8     TreeImportExport.obj
 0002:0000cdf0       ??_C@_15MJDFFMKN@?$AAw?$AAb?$AA?$AA@ 00455df0     TreeImportExport.obj
 0002:0000cdf8       ??_C@_06BIEEJMKO@module?$AA@ 00455df8     TreeImportExport.obj
 0002:0000ce00       ??_C@_0BA@JPBBNJAM@first_thunk_rva?$AA@ 00455e00     TreeImportExport.obj
 0002:0000ce10       ??_C@_0N@HMECECNC@import_valid?$AA@ 00455e10     TreeImportExport.obj
 0002:0000ce20       ??_C@_04MEMAJGDJ@name?$AA@ 00455e20     TreeImportExport.obj
 0002:0000ce28       ??_C@_07LEACAOHP@ordinal?$AA@ 00455e28     TreeImportExport.obj
 0002:0000ce30       ??_C@_04NPKLNGDP@hint?$AA@ 00455e30     TreeImportExport.obj
 0002:0000ce38       ??_C@_07HPAMBIHD@suspect?$AA@ 00455e38     TreeImportExport.obj
 0002:0000ce40       ??_C@_0P@GJBBLENC@import_invalid?$AA@ 00455e40     TreeImportExport.obj
 0002:0000ce50       ??_C@_07LPOEONIJ@iat_rva?$AA@ 00455e50     TreeImportExport.obj
 0002:0000ce58       ??_C@_0L@GHGKDCGG@address_va?$AA@ 00455e58     TreeImportExport.obj
 0002:0000ce64       ??_C@_01HIHLOKLC@1?$AA@    00455e64     TreeImportExport.obj
 0002:0000ce68       ??_C@_01GBGANLPD@0?$AA@    00455e68     TreeImportExport.obj
 0002:0000ce6c       ??_C@_04JIMNDDED@?$CF08X?$AA@ 00455e6c     TreeImportExport.obj
 0002:0000ce74       ??_C@_04JBNHMKCH@?$CF04X?$AA@ 00455e74     TreeImportExport.obj
 0002:0000ce7c       ??_C@_01EEMJAFIK@?6?$AA@   00455e7c     tinyxml:tinyxml.obj
 0002:0000ce80       ??_C@_04PFOHOKJK@?5?5?5?5?$AA@ 00455e80     tinyxml:tinyxml.obj
 0002:0000ce88       ??_C@_08LCBMGHJI@?$CG?$CDx?$CF02X?$DL?$AA@ 00455e88     tinyxml:tinyxml.obj
 0002:0000ce94       ??_C@_03FONCMJME@?$DM?$CFs?$AA@ 00455e94     tinyxml:tinyxml.obj
 0002:0000ce98       ??_C@_01PPODPGHN@?$DO?$AA@ 00455e98     tinyxml:tinyxml.obj
 0002:0000ce9c       ??_C@_03MFNJFHN@?5?1?$DO?$AA@ 00455e9c     tinyxml:tinyxml.obj
 0002:0000cea0       ??_C@_05POIKLDCH@?$DM?1?$CFs?$DO?$AA@ 00455ea0     tinyxml:tinyxml.obj
 0002:0000cea8       ??_C@_07JDMHCBCA@?$CFs?$DN?$CC?$CFs?$CC?$AA@ 00455ea8     tinyxml:tinyxml.obj
 0002:0000ceb0       ??_C@_01BJJEKLCA@?$CC?$AA@ 00455eb0     tinyxml:tinyxml.obj
 0002:0000ceb4       ??_C@_07CGFAFKBF@?$CFs?$DN?8?$CFs?8?$AA@ 00455eb4     tinyxml:tinyxml.obj
 0002:0000cebc       ??_C@_01GEODFPGF@?8?$AA@   00455ebc     tinyxml:tinyxml.obj
 0002:0000cec0       ??_C@_0BA@HEAAMLOF@?$DM?$CB?$FLCDATA?$FL?$CFs?$FN?$FN?$DO?6?$AA@ 00455ec0     tinyxml:tinyxml.obj
 0002:0000ced0       ??_C@_09PNDCPLLD@?$DM?$CB?9?9?$CFs?9?9?$DO?$AA@ 00455ed0     tinyxml:tinyxml.obj
 0002:0000cedc       ??_C@_06CMNLMIOJ@?$DM?$DPxml?5?$AA@ 00455edc     tinyxml:tinyxml.obj
 0002:0000cee4       ??_C@_02DKCKIIND@?$CFs?$AA@ 00455ee4     tinyxml:tinyxml.obj
 0002:0000cee8       ??_C@_09KGECPEDL@version?$DN?$CC?$AA@ 00455ee8     tinyxml:tinyxml.obj
 0002:0000cef4       ??_C@_0O@LGPLJGNM@version?$DN?$CC?$CFs?$CC?5?$AA@ 00455ef4     tinyxml:tinyxml.obj
 0002:0000cf04       ??_C@_0P@CJGKNICB@encoding?$DN?$CC?$CFs?$CC?5?$AA@ 00455f04     tinyxml:tinyxml.obj
 0002:0000cf14       ??_C@_02KOPDJAMB@?$CC?5?$AA@ 00455f14     tinyxml:tinyxml.obj
 0002:0000cf18       ??_C@_0BB@OAOJGGEI@standalone?$DN?$CC?$CFs?$CC?5?$AA@ 00455f18     tinyxml:tinyxml.obj
 0002:0000cf2c       ??_C@_0L@ENAAEPMN@encoding?$DN?$CC?$AA@ 00455f2c     tinyxml:tinyxml.obj
 0002:0000cf38       ??_C@_02GOEMJPDN@?$DP?$DO?$AA@ 00455f38     tinyxml:tinyxml.obj
 0002:0000cf3c       ??_C@_0N@IHAMHLOK@standalone?$DN?$CC?$AA@ 00455f3c     tinyxml:tinyxml.obj
 0002:0000cf4c       ??_C@_01MNNFJEPP@?$DM?$AA@ 00455f4c     tinyxml:tinyxml.obj
 0002:0000cf50       ??_C@_04NNJCMPBN@?$DM?$CFs?$DO?$AA@ 00455f50     tinyxml:tinyxml.obj
 0002:0000cf58       ??_C@_09BLLNCBLF@?$DM?$CB?$FLCDATA?$FL?$AA@ 00455f58     tinyxml:tinyxml.obj
 0002:0000cf64       ??_C@_02DPNDACHE@?$DM?1?$AA@ 00455f64     tinyxml:tinyxml.obj
 0002:0000cf68       ??_C@_04FFDNBKGC@?$DM?$CB?9?9?$AA@ 00455f68     tinyxml:tinyxml.obj
 0002:0000cf70       ??_C@_03MCHNFBAC@?$FN?$FN?$DO?$AA@ 00455f70     tinyxml:tinyxml.obj
 0002:0000cf74       ??_C@_03PNLDJJMO@?9?9?$DO?$AA@ 00455f74     tinyxml:tinyxml.obj
 0002:0000cf7c       ??_7TiXmlText@@6B@         00455f7c     tinyxml:tinyxml.obj
 0002:0000cfc4       ??_7TiXmlNode@@6B@         00455fc4     tinyxml:tinyxml.obj
 0002:0000d00c       ??_7TiXmlElement@@6B@      0045600c     tinyxml:tinyxml.obj
 0002:0000d054       ??_7TiXmlAttribute@@6B@    00456054     tinyxml:tinyxml.obj
 0002:0000d064       ??_7TiXmlComment@@6B@      00456064     tinyxml:tinyxml.obj
 0002:0000d0ac       ??_7TiXmlDeclaration@@6B@  004560ac     tinyxml:tinyxml.obj
 0002:0000d0f8       ??_7TiXmlUnknown@@6B@      004560f8     tinyxml:tinyxml.obj
 0002:0000d140       ??_7TiXmlBase@@6B@         00456140     tinyxml:tinyxml.obj
 0002:0000d14c       ??_C@_04GJOGLFEJ@?$CGlt?$DL?$AA@ 0045614c     tinyxml:tinyxmlparser.obj
 0002:0000d154       ??_C@_05JKJFEODM@?$CGamp?$DL?$AA@ 00456154     tinyxml:tinyxmlparser.obj
 0002:0000d15c       ??_C@_06DDLNFFBN@?$CGquot?$DL?$AA@ 0045615c     tinyxml:tinyxmlparser.obj
 0002:0000d164       ??_C@_04LOOHDCEI@?$CGgt?$DL?$AA@ 00456164     tinyxml:tinyxmlparser.obj
 0002:0000d16c       ??_C@_05EGJIMALK@UTF?98?$AA@ 0045616c     tinyxml:tinyxmlparser.obj
 0002:0000d174       ??_C@_06PNMEMOHD@?$CGapos?$DL?$AA@ 00456174     tinyxml:tinyxmlparser.obj
 0002:0000d17c       ??_C@_05DJDIECHG@?$DM?$DPxml?$AA@ 0045617c     tinyxml:tinyxmlparser.obj
 0002:0000d184       ??_C@_04OOMJJNCF@UTF8?$AA@ 00456184     tinyxml:tinyxmlparser.obj
 0002:0000d18c       ??_C@_07CPCPJPKL@version?$AA@ 0045618c     tinyxml:tinyxmlparser.obj
 0002:0000d194       ??_C@_02KBFACPPK@?$DM?$CB?$AA@ 00456194     tinyxml:tinyxmlparser.obj
 0002:0000d198       ??_C@_0L@FLHGMILF@standalone?$AA@ 00456198     tinyxml:tinyxmlparser.obj
 0002:0000d1a4       ??_C@_08MLPGAEIK@encoding?$AA@ 004561a4     tinyxml:tinyxmlparser.obj
 0002:0000d1b0       ??_C@_05NAOIJFC@Error?$AA@ 004561b0     tinyxml:tinyxmlerror.obj
 0002:0000d1b8       ??_C@_08INEPGKHH@No?5error?$AA@ 004561b8     tinyxml:tinyxmlerror.obj
 0002:0000d1c4       ??_C@_0BH@BONKCKA@Error?5parsing?5Element?4?$AA@ 004561c4     tinyxml:tinyxmlerror.obj
 0002:0000d1dc       ??_C@_0BE@HJPJFJPJ@Failed?5to?5open?5file?$AA@ 004561dc     tinyxml:tinyxmlerror.obj
 0002:0000d1f0       ??_C@_0BN@KKMBBCED@Error?5reading?5Element?5value?4?$AA@ 004561f0     tinyxml:tinyxmlerror.obj
 0002:0000d210       ??_C@_0BM@NCHBIJBE@Failed?5to?5read?5Element?5name?$AA@ 00456210     tinyxml:tinyxmlerror.obj
 0002:0000d22c       ??_C@_0BC@HMFFDDLH@Error?3?5empty?5tag?4?$AA@ 0045622c     tinyxml:tinyxmlerror.obj
 0002:0000d240       ??_C@_0BK@JPCMNIIK@Error?5reading?5Attributes?4?$AA@ 00456240     tinyxml:tinyxmlerror.obj
 0002:0000d25c       ??_C@_0BH@EPLDMIEN@Error?5parsing?5Unknown?4?$AA@ 0045625c     tinyxml:tinyxmlerror.obj
 0002:0000d274       ??_C@_0BH@JJGGDJOP@Error?5reading?5end?5tag?4?$AA@ 00456274     tinyxml:tinyxmlerror.obj
 0002:0000d28c       ??_C@_0BL@BMCKJPKK@Error?5parsing?5Declaration?4?$AA@ 0045628c     tinyxml:tinyxmlerror.obj
 0002:0000d2a8       ??_C@_0BH@MPJHJCKO@Error?5parsing?5Comment?4?$AA@ 004562a8     tinyxml:tinyxmlerror.obj
 0002:0000d2c0       ??_C@_0DI@GMJJAOBO@Error?5null?5?$CI0?$CJ?5or?5unexpected?5EOF@ 004562c0     tinyxml:tinyxmlerror.obj
 0002:0000d2f8       ??_C@_0BG@FFJMEOCN@Error?5document?5empty?4?$AA@ 004562f8     tinyxml:tinyxmlerror.obj
 0002:0000d310       ??_C@_0FL@BMBPKIGK@Error?5when?5TiXmlDocument?5added?5t@ 00456310     tinyxml:tinyxmlerror.obj
 0002:0000d36c       ??_C@_0BF@HJPECPBG@Error?5parsing?5CDATA?4?$AA@ 0045636c     tinyxml:tinyxmlerror.obj
 0002:0000d390       __xmm@41f00000000000000000000000000000 00456390     ImportsHandling.obj
 0002:0000d3d8       __load_config_used         004563d8     LIBCMT:loadcfg.obj
 0002:0000d434       __tls_used                 00456434     LIBCMT:tlssup.obj
 0002:0000d44c       ??_R4bad_alloc@std@@6B@    0045644c     libcpmt:xthrow.obj
 0002:0000d460       ??_R3bad_alloc@std@@8      00456460     libcpmt:xthrow.obj
 0002:0000d470       ??_R2bad_alloc@std@@8      00456470     libcpmt:xthrow.obj
 0002:0000d47c       ??_R1A@?0A@EA@bad_alloc@std@@8 0045647c     libcpmt:xthrow.obj
 0002:0000d498       ??_R4logic_error@std@@6B@  00456498     libcpmt:xthrow.obj
 0002:0000d4ac       ??_R3logic_error@std@@8    004564ac     libcpmt:xthrow.obj
 0002:0000d4bc       ??_R2logic_error@std@@8    004564bc     libcpmt:xthrow.obj
 0002:0000d4c8       ??_R1A@?0A@EA@logic_error@std@@8 004564c8     libcpmt:xthrow.obj
 0002:0000d4e4       ??_R4length_error@std@@6B@ 004564e4     libcpmt:xthrow.obj
 0002:0000d4f8       ??_R3length_error@std@@8   004564f8     libcpmt:xthrow.obj
 0002:0000d508       ??_R2length_error@std@@8   00456508     libcpmt:xthrow.obj
 0002:0000d518       ??_R1A@?0A@EA@length_error@std@@8 00456518     libcpmt:xthrow.obj
 0002:0000d534       ??_R4out_of_range@std@@6B@ 00456534     libcpmt:xthrow.obj
 0002:0000d548       ??_R3out_of_range@std@@8   00456548     libcpmt:xthrow.obj
 0002:0000d558       ??_R2out_of_range@std@@8   00456558     libcpmt:xthrow.obj
 0002:0000d568       ??_R1A@?0A@EA@out_of_range@std@@8 00456568     libcpmt:xthrow.obj
 0002:0000d584       ??_R4type_info@@6B@        00456584     LIBCMT:std_type_info_static.obj
 0002:0000d598       ??_R3type_info@@8          00456598     LIBCMT:std_type_info_static.obj
 0002:0000d5a8       ??_R2type_info@@8          004565a8     LIBCMT:std_type_info_static.obj
 0002:0000d5b0       ??_R1A@?0A@EA@type_info@@8 004565b0     LIBCMT:std_type_info_static.obj
 0002:0000d5cc       ??_R4bad_array_new_length@std@@6B@ 004565cc     LIBCMT:throw_bad_alloc.obj
 0002:0000d5e0       ??_R3bad_array_new_length@std@@8 004565e0     LIBCMT:throw_bad_alloc.obj
 0002:0000d5f0       ??_R2bad_array_new_length@std@@8 004565f0     LIBCMT:throw_bad_alloc.obj
 0002:0000d600       ??_R1A@?0A@EA@bad_array_new_length@std@@8 00456600     LIBCMT:throw_bad_alloc.obj
 0002:0000d61c       ??_R4bad_exception@std@@6B@ 0045661c     libvcruntime:frame.obj
 0002:0000d630       ??_R3bad_exception@std@@8  00456630     libvcruntime:frame.obj
 0002:0000d640       ??_R2bad_exception@std@@8  00456640     libvcruntime:frame.obj
 0002:0000d64c       ??_R1A@?0A@EA@bad_exception@std@@8 0045664c     libvcruntime:frame.obj
 0002:0000d668       ??_R1A@?0A@EA@?$CEditT@VCWindow@ATL@@@WTL@@8 00456668     DisassemblerGui.obj
 0002:0000d684       ??_R3CWindow@ATL@@8        00456684     DisassemblerGui.obj
 0002:0000d694       ??_R2?$CWindowImpl@V?$CHexEdit@K@@V?$CEditT@VCWindow@ATL@@@WTL@@V?$CWinTraits@$0FGAAAAAA@$0A@@ATL@@@ATL@@8 00456694     DisassemblerGui.obj
 0002:0000d6b0       ??_R2?$CDialogImplBaseT@VCWindow@ATL@@@ATL@@8 004566b0     DisassemblerGui.obj
 0002:0000d6c4       ??_R1A@?0A@EA@?$CWindowImplRoot@VCWindow@ATL@@@ATL@@8 004566c4     DisassemblerGui.obj
 0002:0000d6e0       ??_R3?$CDialogResize@VDisassemblerGui@@@WTL@@8 004566e0     DisassemblerGui.obj
 0002:0000d6f0       ??_R1A@?0A@EA@?$CHexEdit@K@@8 004566f0     DisassemblerGui.obj
 0002:0000d70c       ??_R3?$CWindowImplRoot@V?$CEditT@VCWindow@ATL@@@WTL@@@ATL@@8 0045670c     DisassemblerGui.obj
 0002:0000d71c       ??_R2DisassemblerGui@@8    0045671c     DisassemblerGui.obj
 0002:0000d740       ??_R4?$CHexEdit@K@@6B@     00456740     DisassemblerGui.obj
 0002:0000d754       ??_R1CA@?0A@EA@?$CDialogResize@VDisassemblerGui@@@WTL@@8 00456754     DisassemblerGui.obj
 0002:0000d770       ??_R3CMessageMap@ATL@@8    00456770     DisassemblerGui.obj
 0002:0000d780       ??_R1A@?0A@EA@?$CDialogImplBaseT@VCWindow@ATL@@@ATL@@8 00456780     DisassemblerGui.obj
 0002:0000d79c       ??_R3?$CDialogImpl@VDisassemblerGui@@VCWindow@ATL@@@ATL@@8 0045679c     DisassemblerGui.obj
 0002:0000d7ac       ??_R3?$CEditT@VCWindow@ATL@@@WTL@@8 004567ac     DisassemblerGui.obj
 0002:0000d7bc       ??_R1A@?0A@EA@?$CHexEditImpl@V?$CHexEdit@K@@KV?$CEditT@VCWindow@ATL@@@WTL@@V?$CWinTraits@$0FGAAAAAA@$0A@@ATL@@@@8 004567bc     DisassemblerGui.obj
 0002:0000d7d8       ??_R1A@?0A@EA@?$CWinDataExchange@VDisassemblerGui@@@WTL@@8 004567d8     DisassemblerGui.obj
 0002:0000d7f4       ??_R1A@?0A@EA@?$CWindowImplRoot@V?$CEditT@VCWindow@ATL@@@WTL@@@ATL@@8 004567f4     DisassemblerGui.obj
 0002:0000d810       ??_R1CA@?0A@EA@?$CWinDataExchange@VDisassemblerGui@@@WTL@@8 00456810     DisassemblerGui.obj
 0002:0000d82c       ??_R2CWindow@ATL@@8        0045682c     DisassemblerGui.obj
 0002:0000d834       ??_R1A@?0A@EA@?$CDialogImpl@VDisassemblerGui@@VCWindow@ATL@@@ATL@@8 00456834     DisassemblerGui.obj
 0002:0000d850       ??_R1A@?0A@EA@?$CWindowImplBaseT@V?$CEditT@VCWindow@ATL@@@WTL@@V?$CWinTraits@$0FGAAAAAA@$0A@@ATL@@@ATL@@8 00456850     DisassemblerGui.obj
 0002:0000d86c       ??_R3?$CWindowImplBaseT@V?$CEditT@VCWindow@ATL@@@WTL@@V?$CWinTraits@$0FGAAAAAA@$0A@@ATL@@@ATL@@8 0045686c     DisassemblerGui.obj
 0002:0000d87c       ??_R2CMessageMap@ATL@@8    0045687c     DisassemblerGui.obj
 0002:0000d884       ??_R2?$CDialogResize@VDisassemblerGui@@@WTL@@8 00456884     DisassemblerGui.obj
 0002:0000d88c       ??_R2?$CEditT@VCWindow@ATL@@@WTL@@8 0045688c     DisassemblerGui.obj
 0002:0000d898       ??_R1A@?0A@EA@CWindow@ATL@@8 00456898     DisassemblerGui.obj
 0002:0000d8b4       ??_R3?$CDialogImplBaseT@VCWindow@ATL@@@ATL@@8 004568b4     DisassemblerGui.obj
 0002:0000d8c4       ??_R2?$CWindowImplRoot@VCWindow@ATL@@@ATL@@8 004568c4     DisassemblerGui.obj
 0002:0000d8d4       ??_R3?$CWindowImplRoot@VCWindow@ATL@@@ATL@@8 004568d4     DisassemblerGui.obj
 0002:0000d8e4       ??_R13?0A@EA@?$CEditT@VCWindow@ATL@@@WTL@@8 004568e4     DisassemblerGui.obj
 0002:0000d900       ??_R2?$CHexEditImpl@V?$CHexEdit@K@@KV?$CEditT@VCWindow@ATL@@@WTL@@V?$CWinTraits@$0FGAAAAAA@$0A@@ATL@@@@8 00456900     DisassemblerGui.obj
 0002:0000d920       ??_R3?$CHexEditImpl@V?$CHexEdit@K@@KV?$CEditT@VCWindow@ATL@@@WTL@@V?$CWinTraits@$0FGAAAAAA@$0A@@ATL@@@@8 00456920     DisassemblerGui.obj
 0002:0000d930       ??_R1A@?0A@EA@CMessageMap@ATL@@8 00456930     DisassemblerGui.obj
 0002:0000d94c       ??_R1A@?0A@EA@?$CDialogResize@VDisassemblerGui@@@WTL@@8 0045694c     DisassemblerGui.obj
 0002:0000d968       ??_R2?$CDialogImpl@VDisassemblerGui@@VCWindow@ATL@@@ATL@@8 00456968     DisassemblerGui.obj
 0002:0000d980       ??_R3?$CHexEdit@K@@8       00456980     DisassemblerGui.obj
 0002:0000d990       ??_R1A@?0A@EA@DisassemblerGui@@8 00456990     DisassemblerGui.obj
 0002:0000d9ac       ??_R13?0A@EA@CWindow@ATL@@8 004569ac     DisassemblerGui.obj
 0002:0000d9c8       ??_R3?$CWindowImpl@V?$CHexEdit@K@@V?$CEditT@VCWindow@ATL@@@WTL@@V?$CWinTraits@$0FGAAAAAA@$0A@@ATL@@@ATL@@8 004569c8     DisassemblerGui.obj
 0002:0000d9d8       ??_R2?$CWindowImplRoot@V?$CEditT@VCWindow@ATL@@@WTL@@@ATL@@8 004569d8     DisassemblerGui.obj
 0002:0000d9ec       ??_R3DisassemblerGui@@8    004569ec     DisassemblerGui.obj
 0002:0000d9fc       ??_R3?$CWinDataExchange@VDisassemblerGui@@@WTL@@8 004569fc     DisassemblerGui.obj
 0002:0000da0c       ??_R2?$CHexEdit@K@@8       00456a0c     DisassemblerGui.obj
 0002:0000da30       ??_R1A@?0A@EA@?$CWindowImpl@V?$CHexEdit@K@@V?$CEditT@VCWindow@ATL@@@WTL@@V?$CWinTraits@$0FGAAAAAA@$0A@@ATL@@@ATL@@8 00456a30     DisassemblerGui.obj
 0002:0000da4c       ??_R2?$CWinDataExchange@VDisassemblerGui@@@WTL@@8 00456a4c     DisassemblerGui.obj
 0002:0000da54       ??_R4DisassemblerGui@@6B@  00456a54     DisassemblerGui.obj
 0002:0000da68       ??_R2?$CWindowImplBaseT@V?$CEditT@VCWindow@ATL@@@WTL@@V?$CWinTraits@$0FGAAAAAA@$0A@@ATL@@@ATL@@8 00456a68     DisassemblerGui.obj
 0002:0000da80       ??_R4DumpMemoryGui@@6B@    00456a80     DumpMemoryGui.obj
 0002:0000da94       ??_R3?$CWinDataExchange@VDumpMemoryGui@@@WTL@@8 00456a94     DumpMemoryGui.obj
 0002:0000daa4       ??_R1A@?0A@EA@?$CWinDataExchange@VDumpMemoryGui@@@WTL@@8 00456aa4     DumpMemoryGui.obj
 0002:0000dac0       ??_R3?$CDialogResize@VDumpMemoryGui@@@WTL@@8 00456ac0     DumpMemoryGui.obj
 0002:0000dad0       ??_R2?$CDialogImpl@VDumpMemoryGui@@VCWindow@ATL@@@ATL@@8 00456ad0     DumpMemoryGui.obj
 0002:0000dae8       ??_R2?$CDialogResize@VDumpMemoryGui@@@WTL@@8 00456ae8     DumpMemoryGui.obj
 0002:0000daf0       ??_R3DumpMemoryGui@@8      00456af0     DumpMemoryGui.obj
 0002:0000db00       ??_R3?$CDialogImpl@VDumpMemoryGui@@VCWindow@ATL@@@ATL@@8 00456b00     DumpMemoryGui.obj
 0002:0000db10       ??_R1A@?0A@EA@?$CDialogImpl@VDumpMemoryGui@@VCWindow@ATL@@@ATL@@8 00456b10     DumpMemoryGui.obj
 0002:0000db2c       ??_R1A@?0A@EA@?$CDialogResize@VDumpMemoryGui@@@WTL@@8 00456b2c     DumpMemoryGui.obj
 0002:0000db48       ??_R2?$CWinDataExchange@VDumpMemoryGui@@@WTL@@8 00456b48     DumpMemoryGui.obj
 0002:0000db50       ??_R2DumpMemoryGui@@8      00456b50     DumpMemoryGui.obj
 0002:0000db74       ??_R1CA@?0A@EA@?$CDialogResize@VDumpMemoryGui@@@WTL@@8 00456b74     DumpMemoryGui.obj
 0002:0000db90       ??_R1A@?0A@EA@DumpMemoryGui@@8 00456b90     DumpMemoryGui.obj
 0002:0000dbac       ??_R1CA@?0A@EA@?$CWinDataExchange@VDumpMemoryGui@@@WTL@@8 00456bac     DumpMemoryGui.obj
 0002:0000dbc8       ??_R1CA@?0A@EA@?$CWinDataExchange@VDumpSectionGui@@@WTL@@8 00456bc8     DumpSectionGui.obj
 0002:0000dbe4       ??_R2?$CWinDataExchange@VDumpSectionGui@@@WTL@@8 00456be4     DumpSectionGui.obj
 0002:0000dbec       ??_R3DumpSectionGui@@8     00456bec     DumpSectionGui.obj
 0002:0000dbfc       ??_R1A@?0A@EA@?$CWinDataExchange@VDumpSectionGui@@@WTL@@8 00456bfc     DumpSectionGui.obj
 0002:0000dc18       ??_R2?$CDialogImpl@VDumpSectionGui@@VCWindow@ATL@@@ATL@@8 00456c18     DumpSectionGui.obj
 0002:0000dc30       ??_R3?$CDialogResize@VDumpSectionGui@@@WTL@@8 00456c30     DumpSectionGui.obj
 0002:0000dc40       ??_R3?$CWinDataExchange@VDumpSectionGui@@@WTL@@8 00456c40     DumpSectionGui.obj
 0002:0000dc50       ??_R3?$CDialogImpl@VDumpSectionGui@@VCWindow@ATL@@@ATL@@8 00456c50     DumpSectionGui.obj
 0002:0000dc60       ??_R4DumpSectionGui@@6B@   00456c60     DumpSectionGui.obj
 0002:0000dc74       ??_R1CA@?0A@EA@?$CDialogResize@VDumpSectionGui@@@WTL@@8 00456c74     DumpSectionGui.obj
 0002:0000dc90       ??_R1A@?0A@EA@?$CDialogResize@VDumpSectionGui@@@WTL@@8 00456c90     DumpSectionGui.obj
 0002:0000dcac       ??_R2DumpSectionGui@@8     00456cac     DumpSectionGui.obj
 0002:0000dcd0       ??_R2?$CDialogResize@VDumpSectionGui@@@WTL@@8 00456cd0     DumpSectionGui.obj
 0002:0000dcd8       ??_R1A@?0A@EA@DumpSectionGui@@8 00456cd8     DumpSectionGui.obj
 0002:0000dcf4       ??_R1A@?0A@EA@?$CDialogImpl@VDumpSectionGui@@VCWindow@ATL@@@ATL@@8 00456cf4     DumpSectionGui.obj
 0002:0000dd10       ??_R4exception@std@@6B@    00456d10     ImportsHandling.obj
 0002:0000dd24       ??_R1A@?0A@EA@exception@std@@8 00456d24     ImportsHandling.obj
 0002:0000dd40       ??_R2exception@std@@8      00456d40     ImportsHandling.obj
 0002:0000dd48       ??_R3exception@std@@8      00456d48     ImportsHandling.obj
 0002:0000dd58       ??_R2FileLog@@8            00456d58     Logger.obj
 0002:0000dd64       ??_R3FileLog@@8            00456d64     Logger.obj
 0002:0000dd74       ??_R1A@?0A@EA@FileLog@@8   00456d74     Logger.obj
 0002:0000dd90       ??_R4FileLog@@6B@          00456d90     Logger.obj
 0002:0000dda4       ??_R2Logger@@8             00456da4     Logger.obj
 0002:0000ddac       ??_R1A@?0A@EA@Logger@@8    00456dac     Logger.obj
 0002:0000ddc8       ??_R3Logger@@8             00456dc8     Logger.obj
 0002:0000ddd8       ??_R2CComModule@ATL@@8     00456dd8     main.obj
 0002:0000ddec       ??_R2?$CAtlModuleT@VCComModule@ATL@@@ATL@@8 00456dec     main.obj
 0002:0000ddfc       ??_R4CComModule@ATL@@6B@   00456dfc     main.obj
 0002:0000de10       ??_R13?0A@EA@_ATL_MODULE70@ATL@@8 00456e10     main.obj
 0002:0000de2c       ??_R2_ATL_MODULE70@ATL@@8  00456e2c     main.obj
 0002:0000de34       ??_R1A@?0A@EA@?$CAtlModuleT@VCComModule@ATL@@@ATL@@8 00456e34     main.obj
 0002:0000de50       ??_R4CMessageLoop@WTL@@6B@ 00456e50     main.obj
 0002:0000de64       ??_R3IUnknown@@8           00456e64     main.obj
 0002:0000de74       ??_R3_ATL_MODULE70@ATL@@8  00456e74     main.obj
 0002:0000de84       ??_R3CMessageLoop@WTL@@8   00456e84     main.obj
 0002:0000de94       ??_R2CRegObject@ATL@@8     00456e94     main.obj
 0002:0000dea4       ??_R3CRegObject@ATL@@8     00456ea4     main.obj
 0002:0000deb4       ??_R3IRegistrarBase@@8     00456eb4     main.obj
 0002:0000dec4       ??_R4CAppModule@WTL@@6B@   00456ec4     main.obj
 0002:0000ded8       ??_R3CAppModule@WTL@@8     00456ed8     main.obj
 0002:0000dee8       ??_R3CComModule@ATL@@8     00456ee8     main.obj
 0002:0000def8       ??_R3?$CAtlModuleT@VCComModule@ATL@@@ATL@@8 00456ef8     main.obj
 0002:0000df08       ??_R1A@?0A@EA@CAtlModule@ATL@@8 00456f08     main.obj
 0002:0000df24       ??_R1A@?0A@EA@CMessageLoop@WTL@@8 00456f24     main.obj
 0002:0000df40       ??_R2CAppModule@WTL@@8     00456f40     main.obj
 0002:0000df58       ??_R4CRegObject@ATL@@6B@   00456f58     main.obj
 0002:0000df6c       ??_R1A@?0A@EA@CComModule@ATL@@8 00456f6c     main.obj
 0002:0000df88       ??_R2CAtlModule@ATL@@8     00456f88     main.obj
 0002:0000df94       ??_R1A@?0A@EA@_ATL_MODULE70@ATL@@8 00456f94     main.obj
 0002:0000dfb0       ??_R3CAtlModule@ATL@@8     00456fb0     main.obj
 0002:0000dfc0       ??_R2IUnknown@@8           00456fc0     main.obj
 0002:0000dfc8       ??_R1A@?0A@EA@IUnknown@@8  00456fc8     main.obj
 0002:0000dfe4       ??_R2CMessageLoop@WTL@@8   00456fe4     main.obj
 0002:0000dfec       ??_R1A@?0A@EA@CAppModule@WTL@@8 00456fec     main.obj
 0002:0000e008       ??_R1A@?0A@EA@CRegObject@ATL@@8 00457008     main.obj
 0002:0000e024       ??_R1A@?0A@EA@IRegistrarBase@@8 00457024     main.obj
 0002:0000e040       ??_R2IRegistrarBase@@8     00457040     main.obj
 0002:0000e04c       ??_R1A@?0A@EA@?$CWinDataExchange@VAboutGui@@@WTL@@8 0045704c     MainGui.obj
 0002:0000e068       ??_R1A@?0A@EA@?$CWinDataExchange@VMainGui@@@WTL@@8 00457068     MainGui.obj
 0002:0000e084       ??_R1A@?0A@EA@AboutGui@@8  00457084     MainGui.obj
 0002:0000e0a0       ??_R1A@?0A@EA@OptionsGui@@8 004570a0     MainGui.obj
 0002:0000e0bc       ??_R4DonateGui@@6B@        004570bc     MainGui.obj
 0002:0000e0d0       ??_R3?$CTreeViewCtrlExT@VCWindow@ATL@@@WTL@@8 004570d0     MainGui.obj
 0002:0000e0e0       ??_R3?$CDialogImpl@VOptionsGui@@VCWindow@ATL@@@ATL@@8 004570e0     MainGui.obj
 0002:0000e0f0       ??_R3OptionsGui@@8         004570f0     MainGui.obj
 0002:0000e100       ??_R2OptionsGui@@8         00457100     MainGui.obj
 0002:0000e120       ??_R1CE@?0A@EA@?$CCustomDraw@VCMultiSelectTreeViewCtrl@@@WTL@@8 00457120     MainGui.obj
 0002:0000e13c       ??_R2?$CMultiSelectTreeViewImpl@VCMultiSelectTreeViewCtrl@@V?$CTreeViewCtrlExT@VCWindow@ATL@@@WTL@@V?$CWinTraitsOR@$0CA@$0A@V?$CWinTraits@$0FGAAAAAA@$0A@@ATL@@@ATL@@@@8 0045713c     MainGui.obj
 0002:0000e164       ??_R2?$CWinDataExchange@VAboutGui@@@WTL@@8 00457164     MainGui.obj
 0002:0000e16c       ??_R3?$CDialogResize@VMainGui@@@WTL@@8 0045716c     MainGui.obj
 0002:0000e17c       ??_R1A@?0A@EA@?$CDialogImpl@VOptionsGui@@VCWindow@ATL@@@ATL@@8 0045717c     MainGui.obj
 0002:0000e198       ??_R2?$CWindowImplRoot@V?$CTreeViewCtrlExT@VCWindow@ATL@@@WTL@@@ATL@@8 00457198     MainGui.obj
 0002:0000e1b0       ??_R4CMultiSelectTreeViewCtrl@@6B@ 004571b0     MainGui.obj
 0002:0000e1c4       ??_R2?$CWindowImplBaseT@V?$CTreeViewCtrlExT@VCWindow@ATL@@@WTL@@V?$CWinTraitsOR@$0CA@$0A@V?$CWinTraits@$0FGAAAAAA@$0A@@ATL@@@ATL@@@ATL@@8 004571c4     MainGui.obj
 0002:0000e1e0       ??_R2?$CWinDataExchange@VDonateGui@@@WTL@@8 004571e0     MainGui.obj
 0002:0000e1e8       ??_R3?$CWindowImpl@VCMultiSelectTreeViewCtrl@@V?$CTreeViewCtrlExT@VCWindow@ATL@@@WTL@@V?$CWinTraitsOR@$0CA@$0A@V?$CWinTraits@$0FGAAAAAA@$0A@@ATL@@@ATL@@@ATL@@8 004571e8     MainGui.obj
 0002:0000e1f8       ??_R1CA@?0A@EA@?$CWinDataExchange@VAboutGui@@@WTL@@8 004571f8     MainGui.obj
 0002:0000e214       ??_R3?$CWindowImplBaseT@V?$CTreeViewCtrlExT@VCWindow@ATL@@@WTL@@V?$CWinTraitsOR@$0CA@$0A@V?$CWinTraits@$0FGAAAAAA@$0A@@ATL@@@ATL@@@ATL@@8 00457214     MainGui.obj
 0002:0000e224       ??_R1A@?0A@EA@?$CWindowImpl@VCMultiSelectTreeViewCtrl@@V?$CTreeViewCtrlExT@VCWindow@ATL@@@WTL@@V?$CWinTraitsOR@$0CA@$0A@V?$CWinTraits@$0FGAAAAAA@$0A@@ATL@@@ATL@@@ATL@@8 00457224     MainGui.obj
 0002:0000e240       ??_R2?$CCustomDraw@VCMultiSelectTreeViewCtrl@@@WTL@@8 00457240     MainGui.obj
 0002:0000e248       ??_R2AboutGui@@8           00457248     MainGui.obj
 0002:0000e268       ??_R3?$CDialogImpl@VAboutGui@@VCWindow@ATL@@@ATL@@8 00457268     MainGui.obj
 0002:0000e278       ??_R2?$CWinDataExchange@VOptionsGui@@@WTL@@8 00457278     MainGui.obj
 0002:0000e280       ??_R1CA@?0A@EA@?$CWinDataExchange@VDonateGui@@@WTL@@8 00457280     MainGui.obj
 0002:0000e29c       ??_R1A@?0A@EA@?$CMultiSelectTreeViewImpl@VCMultiSelectTreeViewCtrl@@V?$CTreeViewCtrlExT@VCWindow@ATL@@@WTL@@V?$CWinTraitsOR@$0CA@$0A@V?$CWinTraits@$0FGAAAAAA@$0A@@ATL@@@ATL@@@@8 0045729c     MainGui.obj
 0002:0000e2b8       ??_R3?$CWindowImplRoot@V?$CTreeViewCtrlExT@VCWindow@ATL@@@WTL@@@ATL@@8 004572b8     MainGui.obj
 0002:0000e2c8       ??_R2DonateGui@@8          004572c8     MainGui.obj
 0002:0000e2e8       ??_R13?0A@EA@?$CTreeViewCtrlExT@VCWindow@ATL@@@WTL@@8 004572e8     MainGui.obj
 0002:0000e304       ??_R2?$CDialogResize@VMainGui@@@WTL@@8 00457304     MainGui.obj
 0002:0000e30c       ??_R2?$CWinDataExchange@VMainGui@@@WTL@@8 0045730c     MainGui.obj
 0002:0000e314       ??_R1A@?0A@EA@?$CWindowImplRoot@V?$CTreeViewCtrlExT@VCWindow@ATL@@@WTL@@@ATL@@8 00457314     MainGui.obj
 0002:0000e330       ??_R3AboutGui@@8           00457330     MainGui.obj
 0002:0000e340       ??_R2CMessageFilter@WTL@@8 00457340     MainGui.obj
 0002:0000e348       ??_R3DonateGui@@8          00457348     MainGui.obj
 0002:0000e358       ??_R3?$CWinDataExchange@VMainGui@@@WTL@@8 00457358     MainGui.obj
 0002:0000e368       ??_R1A@?0A@EA@?$CWinDataExchange@VDonateGui@@@WTL@@8 00457368     MainGui.obj
 0002:0000e384       ??_R3CMultiSelectTreeViewCtrl@@8 00457384     MainGui.obj
 0002:0000e394       ??_R3MainGui@@8            00457394     MainGui.obj
 0002:0000e3a4       ??_R3CMessageFilter@WTL@@8 004573a4     MainGui.obj
 0002:0000e3b4       ??_R1A@?0A@EA@?$CDialogImpl@VDonateGui@@VCWindow@ATL@@@ATL@@8 004573b4     MainGui.obj
 0002:0000e3d0       ??_R1A@?0A@EA@?$CCustomDraw@VCMultiSelectTreeViewCtrl@@@WTL@@8 004573d0     MainGui.obj
 0002:0000e3ec       ??_R1A@?0A@EA@?$CDialogImpl@VMainGui@@VCWindow@ATL@@@ATL@@8 004573ec     MainGui.obj
 0002:0000e408       ??_R3?$CTreeViewCtrlT@VCWindow@ATL@@@WTL@@8 00457408     MainGui.obj
 0002:0000e418       ??_R13?0A@EA@?$CTreeViewCtrlT@VCWindow@ATL@@@WTL@@8 00457418     MainGui.obj
 0002:0000e434       ??_R2CMultiSelectTreeViewCtrl@@8 00457434     MainGui.obj
 0002:0000e460       ??_R1A@?0A@EA@?$CTreeViewCtrlT@VCWindow@ATL@@@WTL@@8 00457460     MainGui.obj
 0002:0000e47c       ??_R1A@?0A@EA@?$CWinDataExchange@VOptionsGui@@@WTL@@8 0045747c     MainGui.obj
 0002:0000e498       ??_R1A@?0A@EA@DonateGui@@8 00457498     MainGui.obj
 0002:0000e4b4       ??_R2?$CTreeViewCtrlT@VCWindow@ATL@@@WTL@@8 004574b4     MainGui.obj
 0002:0000e4c0       ??_R3?$CMultiSelectTreeViewImpl@VCMultiSelectTreeViewCtrl@@V?$CTreeViewCtrlExT@VCWindow@ATL@@@WTL@@V?$CWinTraitsOR@$0CA@$0A@V?$CWinTraits@$0FGAAAAAA@$0A@@ATL@@@ATL@@@@8 004574c0     MainGui.obj
 0002:0000e4d0       ??_R2?$CTreeViewCtrlExT@VCWindow@ATL@@@WTL@@8 004574d0     MainGui.obj
 0002:0000e4e0       ??_R2?$CWindowImpl@VCMultiSelectTreeViewCtrl@@V?$CTreeViewCtrlExT@VCWindow@ATL@@@WTL@@V?$CWinTraitsOR@$0CA@$0A@V?$CWinTraits@$0FGAAAAAA@$0A@@ATL@@@ATL@@@ATL@@8 004574e0     MainGui.obj
 0002:0000e500       ??_R3?$CDialogImpl@VDonateGui@@VCWindow@ATL@@@ATL@@8 00457500     MainGui.obj
 0002:0000e510       ??_R1CA@?0A@EA@CMessageFilter@WTL@@8 00457510     MainGui.obj
 0002:0000e52c       ??_R4OptionsGui@@6B@       0045752c     MainGui.obj
 0002:0000e540       ??_R2MainGui@@8            00457540     MainGui.obj
 0002:0000e568       ??_R2?$CDialogImpl@VAboutGui@@VCWindow@ATL@@@ATL@@8 00457568     MainGui.obj
 0002:0000e580       ??_R1A@?0A@EA@MainGui@@8   00457580     MainGui.obj
 0002:0000e59c       ??_R3?$CCustomDraw@VCMultiSelectTreeViewCtrl@@@WTL@@8 0045759c     MainGui.obj
 0002:0000e5ac       ??_R2?$CDialogImpl@VDonateGui@@VCWindow@ATL@@@ATL@@8 004575ac     MainGui.obj
 0002:0000e5c4       ??_R1A@?0A@EA@?$CDialogImpl@VAboutGui@@VCWindow@ATL@@@ATL@@8 004575c4     MainGui.obj
 0002:0000e5e0       ??_R1A@?0A@EA@?$CTreeViewCtrlExT@VCWindow@ATL@@@WTL@@8 004575e0     MainGui.obj
 0002:0000e5fc       ??_R3?$CWinDataExchange@VOptionsGui@@@WTL@@8 004575fc     MainGui.obj
 0002:0000e60c       ??_R4MainGui@@6B?$CDialogImpl@VMainGui@@VCWindow@ATL@@@ATL@@@ 0045760c     MainGui.obj
 0002:0000e620       ??_R3?$CDialogImpl@VMainGui@@VCWindow@ATL@@@ATL@@8 00457620     MainGui.obj
 0002:0000e630       ??_R1A@?0A@EA@?$CDialogResize@VMainGui@@@WTL@@8 00457630     MainGui.obj
 0002:0000e64c       ??_R3?$CWinDataExchange@VDonateGui@@@WTL@@8 0045764c     MainGui.obj
 0002:0000e65c       ??_R1CE@?0A@EA@?$CDialogResize@VMainGui@@@WTL@@8 0045765c     MainGui.obj
 0002:0000e678       ??_R1A@?0A@EA@?$CWindowImplBaseT@V?$CTreeViewCtrlExT@VCWindow@ATL@@@WTL@@V?$CWinTraitsOR@$0CA@$0A@V?$CWinTraits@$0FGAAAAAA@$0A@@ATL@@@ATL@@@ATL@@8 00457678     MainGui.obj
 0002:0000e694       ??_R4MainGui@@6BCMessageFilter@WTL@@@ 00457694     MainGui.obj
 0002:0000e6a8       ??_R4AboutGui@@6B@         004576a8     MainGui.obj
 0002:0000e6bc       ??_R2?$CDialogImpl@VOptionsGui@@VCWindow@ATL@@@ATL@@8 004576bc     MainGui.obj
 0002:0000e6d4       ??_R1A@?0A@EA@CMessageFilter@WTL@@8 004576d4     MainGui.obj
 0002:0000e6f0       ??_R2?$CDialogImpl@VMainGui@@VCWindow@ATL@@@ATL@@8 004576f0     MainGui.obj
 0002:0000e708       ??_R3?$CWinDataExchange@VAboutGui@@@WTL@@8 00457708     MainGui.obj
 0002:0000e718       ??_R1CE@?0A@EA@?$CWinDataExchange@VMainGui@@@WTL@@8 00457718     MainGui.obj
 0002:0000e734       ??_R1A@?0A@EA@CMultiSelectTreeViewCtrl@@8 00457734     MainGui.obj
 0002:0000e750       ??_R1CA@?0A@EA@?$CWinDataExchange@VOptionsGui@@@WTL@@8 00457750     MainGui.obj
 0002:0000e76c       ??_R3?$CDialogResize@VPickApiGui@@@WTL@@8 0045776c     PickApiGui.obj
 0002:0000e77c       ??_R1CA@?0A@EA@?$CDialogResize@VPickApiGui@@@WTL@@8 0045777c     PickApiGui.obj
 0002:0000e798       ??_R3PickApiGui@@8         00457798     PickApiGui.obj
 0002:0000e7a8       ??_R2?$CDialogResize@VPickApiGui@@@WTL@@8 004577a8     PickApiGui.obj
 0002:0000e7b0       ??_R2?$CWinDataExchange@VPickApiGui@@@WTL@@8 004577b0     PickApiGui.obj
 0002:0000e7b8       ??_R2?$CDialogImpl@VPickApiGui@@VCWindow@ATL@@@ATL@@8 004577b8     PickApiGui.obj
 0002:0000e7d0       ??_R1A@?0A@EA@?$CDialogResize@VPickApiGui@@@WTL@@8 004577d0     PickApiGui.obj
 0002:0000e7ec       ??_R3?$CDialogImpl@VPickApiGui@@VCWindow@ATL@@@ATL@@8 004577ec     PickApiGui.obj
 0002:0000e7fc       ??_R4PickApiGui@@6B@       004577fc     PickApiGui.obj
 0002:0000e810       ??_R1A@?0A@EA@PickApiGui@@8 00457810     PickApiGui.obj
 0002:0000e82c       ??_R1A@?0A@EA@?$CDialogImpl@VPickApiGui@@VCWindow@ATL@@@ATL@@8 0045782c     PickApiGui.obj
 0002:0000e848       ??_R1CA@?0A@EA@?$CWinDataExchange@VPickApiGui@@@WTL@@8 00457848     PickApiGui.obj
 0002:0000e864       ??_R3?$CWinDataExchange@VPickApiGui@@@WTL@@8 00457864     PickApiGui.obj
 0002:0000e874       ??_R2PickApiGui@@8         00457874     PickApiGui.obj
 0002:0000e898       ??_R1A@?0A@EA@?$CWinDataExchange@VPickApiGui@@@WTL@@8 00457898     PickApiGui.obj
 0002:0000e8b4       ??_R1A@?0A@EA@?$CWinDataExchange@VPickDllGui@@@WTL@@8 004578b4     PickDllGui.obj
 0002:0000e8d0       ??_R3?$CDialogImpl@VPickDllGui@@VCWindow@ATL@@@ATL@@8 004578d0     PickDllGui.obj
 0002:0000e8e0       ??_R2?$CWinDataExchange@VPickDllGui@@@WTL@@8 004578e0     PickDllGui.obj
 0002:0000e8e8       ??_R3?$CDialogResize@VPickDllGui@@@WTL@@8 004578e8     PickDllGui.obj
 0002:0000e8f8       ??_R3PickDllGui@@8         004578f8     PickDllGui.obj
 0002:0000e908       ??_R1CA@?0A@EA@?$CDialogResize@VPickDllGui@@@WTL@@8 00457908     PickDllGui.obj
 0002:0000e924       ??_R4PickDllGui@@6B@       00457924     PickDllGui.obj
 0002:0000e938       ??_R1A@?0A@EA@?$CDialogImpl@VPickDllGui@@VCWindow@ATL@@@ATL@@8 00457938     PickDllGui.obj
 0002:0000e954       ??_R2?$CDialogResize@VPickDllGui@@@WTL@@8 00457954     PickDllGui.obj
 0002:0000e95c       ??_R1A@?0A@EA@?$CDialogResize@VPickDllGui@@@WTL@@8 0045795c     PickDllGui.obj
 0002:0000e978       ??_R2PickDllGui@@8         00457978     PickDllGui.obj
 0002:0000e99c       ??_R3?$CWinDataExchange@VPickDllGui@@@WTL@@8 0045799c     PickDllGui.obj
 0002:0000e9ac       ??_R2?$CDialogImpl@VPickDllGui@@VCWindow@ATL@@@ATL@@8 004579ac     PickDllGui.obj
 0002:0000e9c4       ??_R1A@?0A@EA@PickDllGui@@8 004579c4     PickDllGui.obj
 0002:0000e9e0       ??_R1CA@?0A@EA@?$CWinDataExchange@VPickDllGui@@@WTL@@8 004579e0     PickDllGui.obj
 0002:0000e9fc       ??_R3ListboxLog@@8         004579fc     Scylla.obj
 0002:0000ea0c       ??_R4ListboxLog@@6B@       00457a0c     Scylla.obj
 0002:0000ea20       ??_R1A@?0A@EA@ListboxLog@@8 00457a20     Scylla.obj
 0002:0000ea3c       ??_R2ListboxLog@@8         00457a3c     Scylla.obj
 0002:0000ea48       ??_R3TiXmlDocument@@8      00457a48     TreeImportExport.obj
 0002:0000ea58       ??_R3TiXmlBase@@8          00457a58     TreeImportExport.obj
 0002:0000ea68       ??_R1A@?0A@EA@TiXmlBase@@8 00457a68     TreeImportExport.obj
 0002:0000ea84       ??_R2TiXmlBase@@8          00457a84     TreeImportExport.obj
 0002:0000ea8c       ??_R1A@?0A@EA@TiXmlDocument@@8 00457a8c     TreeImportExport.obj
 0002:0000eaa8       ??_R1A@?0A@EA@TiXmlNode@@8 00457aa8     TreeImportExport.obj
 0002:0000eac4       ??_R2TiXmlNode@@8          00457ac4     TreeImportExport.obj
 0002:0000ead0       ??_R3TiXmlNode@@8          00457ad0     TreeImportExport.obj
 0002:0000eae0       ??_R2TiXmlDocument@@8      00457ae0     TreeImportExport.obj
 0002:0000eaf0       ??_R4TiXmlDocument@@6B@    00457af0     TreeImportExport.obj
 0002:0000eb04       ??_R4TiXmlBase@@6B@        00457b04     tinyxml:tinyxml.obj
 0002:0000eb18       ??_R2TiXmlUnknown@@8       00457b18     tinyxml:tinyxml.obj
 0002:0000eb28       ??_R3TiXmlComment@@8       00457b28     tinyxml:tinyxml.obj
 0002:0000eb38       ??_R4TiXmlDeclaration@@6B@ 00457b38     tinyxml:tinyxml.obj
 0002:0000eb4c       ??_R4TiXmlUnknown@@6B@     00457b4c     tinyxml:tinyxml.obj
 0002:0000eb60       ??_R4TiXmlElement@@6B@     00457b60     tinyxml:tinyxml.obj
 0002:0000eb74       ??_R4TiXmlAttribute@@6B@   00457b74     tinyxml:tinyxml.obj
 0002:0000eb88       ??_R1A@?0A@EA@TiXmlDeclaration@@8 00457b88     tinyxml:tinyxml.obj
 0002:0000eba4       ??_R3TiXmlDeclaration@@8   00457ba4     tinyxml:tinyxml.obj
 0002:0000ebb4       ??_R3TiXmlAttribute@@8     00457bb4     tinyxml:tinyxml.obj
 0002:0000ebc4       ??_R1A@?0A@EA@TiXmlComment@@8 00457bc4     tinyxml:tinyxml.obj
 0002:0000ebe0       ??_R1A@?0A@EA@TiXmlText@@8 00457be0     tinyxml:tinyxml.obj
 0002:0000ebfc       ??_R2TiXmlAttribute@@8     00457bfc     tinyxml:tinyxml.obj
 0002:0000ec08       ??_R2TiXmlElement@@8       00457c08     tinyxml:tinyxml.obj
 0002:0000ec18       ??_R1A@?0A@EA@TiXmlElement@@8 00457c18     tinyxml:tinyxml.obj
 0002:0000ec34       ??_R2TiXmlComment@@8       00457c34     tinyxml:tinyxml.obj
 0002:0000ec44       ??_R3TiXmlUnknown@@8       00457c44     tinyxml:tinyxml.obj
 0002:0000ec54       ??_R4TiXmlComment@@6B@     00457c54     tinyxml:tinyxml.obj
 0002:0000ec68       ??_R2TiXmlDeclaration@@8   00457c68     tinyxml:tinyxml.obj
 0002:0000ec78       ??_R4TiXmlText@@6B@        00457c78     tinyxml:tinyxml.obj
 0002:0000ec8c       ??_R3TiXmlElement@@8       00457c8c     tinyxml:tinyxml.obj
 0002:0000ec9c       ??_R3TiXmlText@@8          00457c9c     tinyxml:tinyxml.obj
 0002:0000ecac       ??_R1A@?0A@EA@TiXmlAttribute@@8 00457cac     tinyxml:tinyxml.obj
 0002:0000ecc8       ??_R2TiXmlText@@8          00457cc8     tinyxml:tinyxml.obj
 0002:0000ecd8       ??_R4TiXmlNode@@6B@        00457cd8     tinyxml:tinyxml.obj
 0002:0000ecec       ??_R1A@?0A@EA@TiXmlUnknown@@8 00457cec     tinyxml:tinyxml.obj
 0002:0000ed10       ___safe_se_handler_table   00457d10     <linker-defined>
 0002:0000f25c       ___rtc_iaa                 0045825c     LIBCMT:_initsect_.obj
 0002:0000f260       ___rtc_izz                 00458260     LIBCMT:_initsect_.obj
 0002:0000f264       ___rtc_taa                 00458264     LIBCMT:_initsect_.obj
 0002:0000f268       ___rtc_tzz                 00458268     LIBCMT:_initsect_.obj
 0002:00010700       __TI2?AVbad_alloc@std@@    00459700     libcpmt:xthrow.obj
 0002:00010710       __CTA2?AVbad_alloc@std@@   00459710     libcpmt:xthrow.obj
 0002:0001071c       __CT??_R0?AVbad_alloc@std@@@8??0bad_alloc@std@@QAE@ABV01@@Z12 0045971c     libcpmt:xthrow.obj
 0002:00010738       __CT??_R0?AVlogic_error@std@@@8??0logic_error@std@@QAE@ABV01@@Z12 00459738     libcpmt:xthrow.obj
 0002:00010754       __TI3?AVlength_error@std@@ 00459754     libcpmt:xthrow.obj
 0002:00010764       __CTA3?AVlength_error@std@@ 00459764     libcpmt:xthrow.obj
 0002:00010774       __CT??_R0?AVlength_error@std@@@8??0length_error@std@@QAE@ABV01@@Z12 00459774     libcpmt:xthrow.obj
 0002:00010790       __TI3?AVout_of_range@std@@ 00459790     libcpmt:xthrow.obj
 0002:000107a0       __CTA3?AVout_of_range@std@@ 004597a0     libcpmt:xthrow.obj
 0002:000107b0       __CT??_R0?AVout_of_range@std@@@8??0out_of_range@std@@QAE@ABV01@@Z12 004597b0     libcpmt:xthrow.obj
 0002:0001080c       __TI3?AVbad_array_new_length@std@@ 0045980c     LIBCMT:throw_bad_alloc.obj
 0002:0001081c       __CTA3?AVbad_array_new_length@std@@ 0045981c     LIBCMT:throw_bad_alloc.obj
 0002:0001082c       __CT??_R0?AVbad_array_new_length@std@@@8??0bad_array_new_length@std@@QAE@ABV01@@Z12 0045982c     LIBCMT:throw_bad_alloc.obj
 0002:000109a4       __TI2?AVbad_exception@std@@ 004599a4     libvcruntime:frame.obj
 0002:000109b4       __CTA2?AVbad_exception@std@@ 004599b4     libvcruntime:frame.obj
 0002:000109c0       __CT??_R0?AVbad_exception@std@@@8??0bad_exception@std@@QAE@ABV01@@Z12 004599c0     libvcruntime:frame.obj
 0002:00010e8c       __TI1?AVCAtlException@ATL@@ 00459e8c     DisassemblerGui.obj
 0002:00010e9c       __CT??_R0?AVCAtlException@ATL@@@84 00459e9c     DisassemblerGui.obj
 0002:00010eb8       __CTA1?AVCAtlException@ATL@@ 00459eb8     DisassemblerGui.obj
 0002:00010ec0       __CT??_R0?AVexception@std@@@8??0exception@std@@QAE@ABV01@@Z12 00459ec0     ImportsHandling.obj
 0002:00010edc       ___pobjMapEntryFirst       00459edc     AboutGui.obj
 0002:00010ee0       ___pobjMapEntryLast        00459ee0     AboutGui.obj
 0002:00010ee4       __IMPORT_DESCRIPTOR_KERNEL32 00459ee4     kernel32:KERNEL32.dll
 0002:00010ef8       __IMPORT_DESCRIPTOR_USER32 00459ef8     user32:USER32.dll
 0002:00010f0c       __IMPORT_DESCRIPTOR_GDI32  00459f0c     gdi32:GDI32.dll
 0002:00010f20       __IMPORT_DESCRIPTOR_COMDLG32 00459f20     comdlg32:COMDLG32.dll
 0002:00010f34       __IMPORT_DESCRIPTOR_ADVAPI32 00459f34     advapi32:ADVAPI32.dll
 0002:00010f48       __IMPORT_DESCRIPTOR_SHELL32 00459f48     shell32:SHELL32.dll
 0002:00010f5c       __IMPORT_DESCRIPTOR_ole32  00459f5c     ole32:ole32.dll
 0002:00010f70       __IMPORT_DESCRIPTOR_OLEAUT32 00459f70     oleaut32:OLEAUT32.dll
 0002:00010f84       __IMPORT_DESCRIPTOR_SHLWAPI 00459f84     shlwapi:SHLWAPI.dll
 0002:00010f98       __IMPORT_DESCRIPTOR_COMCTL32 00459f98     comctl32:COMCTL32.dll
 0002:00010fac       __IMPORT_DESCRIPTOR_imagehlp 00459fac     Imagehlp:imagehlp.dll
 0002:00010fc0       __NULL_IMPORT_DESCRIPTOR   00459fc0     kernel32:KERNEL32.dll
 0003:00000828       __REGISTERTORCLASS         0045c828     diStorm:operands.obj
 0003:00000a78       _FlagsTable                0045ca78     diStorm:insts.obj
 0003:00000c08       _InstSharedInfoTable       0045cc08     diStorm:insts.obj
 0003:000018d0       _InstInfos                 0045d8d0     diStorm:insts.obj
 0003:00002c3c       _Table_0F_0F               0045ec3c     diStorm:insts.obj
 0003:00002c40       _InstInfosEx               0045ec40     diStorm:insts.obj
 0003:00003e1c       _Table_0F                  0045fe1c     diStorm:insts.obj
 0003:00003e20       _InstructionsTree          0045fe20     diStorm:insts.obj
 0003:00006990       _Table_0F_38               00462990     diStorm:insts.obj
 0003:00006994       _Table_0F_3A               00462994     diStorm:insts.obj
 0003:00006998       _II_MOVSXD                 00462998     diStorm:insts.obj
 0003:0000699c       _II_NOP                    0046299c     diStorm:insts.obj
 0003:000069a0       _II_PAUSE                  004629a0     diStorm:insts.obj
 0003:000069a4       _II_RDRAND                 004629a4     diStorm:insts.obj
 0003:000069a8       _II_3DNOW                  004629a8     diStorm:insts.obj
 0003:000069ac       _CmpMnemonicOffsets        004629ac     diStorm:insts.obj
 0003:000069bc       _II_WAIT                   004629bc     diStorm:insts.obj
 0003:000069c0       _VCmpMnemonicOffsets       004629c0     diStorm:insts.obj
 0003:00006a00       ___scrt_native_dllmain_reason 00462a00     LIBCMT:utility.obj
 0003:00006a04       __Init_global_epoch        00462a04     LIBCMT:thread_safe_statics.obj
 0003:00006a08       ___security_cookie_complement 00462a08     LIBCMT:gs_cookie.obj
 0003:00006a0c       ___security_cookie         00462a0c     LIBCMT:gs_cookie.obj
 0003:00006a10       ___isa_enabled             00462a10     LIBCMT:_cpu_disp_.obj
 0003:00006a14       ___scrt_default_matherr    00462a14     LIBCMT:matherr.obj
 0003:00006a30       __NLG_Destination          00462a30     libvcruntime:_exsup_.obj
 0003:00006a50       ___abort_behavior          00462a50     libucrt:abort.obj
 0003:00006a58       ___acrt_initial_locale_data 00462a58     libucrt:nlsdata.obj
 0003:00006b10       ___acrt_initial_locale_pointers 00462b10     libucrt:nlsdata.obj
 0003:00006b18       ___acrt_wide_c_locale_string 00462b18     libucrt:nlsdata.obj
 0003:00006b20       __pwctype                  00462b20     libucrt:ctype.obj
 0003:00006b28       __iob                      00462b28     libucrt:_file.obj
 0003:00006bd0       ___badioinfo               00462bd0     libucrt:ioinit.obj
 0003:00006c00       __lookuptrailbytes         00462c00     libucrt:read.obj
 0003:00006df8       __mbctype                  00462df8     libucrt:mbctype.obj
 0003:00006f00       __mbcasemap                00462f00     libucrt:mbctype.obj
 0003:00007000       ___acrt_initial_multibyte_data 00463000     libucrt:mbctype.obj
 0003:00007220       ___acrt_current_multibyte_data 00463220     libucrt:mbctype.obj
 0003:00007224       ___acrt_lconv_static_decimal 00463224     libucrt:localeconv.obj
 0003:00007228       ___acrt_lconv_static_W_decimal 00463228     libucrt:localeconv.obj
 0003:00007230       ___acrt_lconv_c            00463230     libucrt:localeconv.obj
 0003:00007280       ___globallocalestatus      00463280     libucrt:glstatus.obj
 0003:000072a0       ___dcrt_lowio_console_output_handle 004632a0     libucrt:initcon.obj
 0003:000072b0       __fltused                  004632b0     LIBCMT:fltused.obj
 0003:000072c0       ?rcDefault@CWindow@ATL@@2UtagRECT@@A 004632c0     AboutGui.obj
 0003:000072d0       ?minApiAddress@ApiReader@@2KA 004632d0     ApiReader.obj
 0003:000072d4       ?entity@TiXmlBase@@0PAUEntity@1@A 004632d4     tinyxml:tinyxmlparser.obj
 0003:00007310       ?directImportLog@IATReferenceScan@@2VFileLog@@A 00463310     IATReferenceScan.obj
 0003:00007520       ?debugLog@Scylla@@2VFileLog@@A 00463520     Scylla.obj
 0003:0000772c       ?windowLog@Scylla@@2VListboxLog@@A 0046372c     Scylla.obj
 0003:00007738       ??_R0?AVlogic_error@std@@@8 00463738     libcpmt:xthrow.obj
 0003:00007758       ??_R0?AVlength_error@std@@@8 00463758     libcpmt:xthrow.obj
 0003:00007778       ??_R0?AVout_of_range@std@@@8 00463778     libcpmt:xthrow.obj
 0003:00007798       ??_R0?AVtype_info@@@8      00463798     LIBCMT:std_type_info_static.obj
 0003:000077b0       ??_R0?AVbad_array_new_length@std@@@8 004637b0     LIBCMT:throw_bad_alloc.obj
 0003:000077d8       ??_R0?AVbad_exception@std@@@8 004637d8     libvcruntime:frame.obj
 0003:000077f8       ??_R0?AV?$CWinDataExchange@VDisassemblerGui@@@WTL@@@8 004637f8     DisassemblerGui.obj
 0003:00007830       ??_R0?AV?$CEditT@VCWindow@ATL@@@WTL@@@8 00463830     DisassemblerGui.obj
 0003:00007860       ??_R0?AV?$CHexEditImpl@V?$CHexEdit@K@@KV?$CEditT@VCWindow@ATL@@@WTL@@V?$CWinTraits@$0FGAAAAAA@$0A@@ATL@@@@@8 00463860     DisassemblerGui.obj
 0003:000078d0       ??_R0?AV?$CWindowImplRoot@V?$CEditT@VCWindow@ATL@@@WTL@@@ATL@@@8 004638d0     DisassemblerGui.obj
 0003:00007914       ??_R0?AVDisassemblerGui@@@8 00463914     DisassemblerGui.obj
 0003:00007934       ??_R0?AV?$CDialogResize@VDisassemblerGui@@@WTL@@@8 00463934     DisassemblerGui.obj
 0003:0000796c       ??_R0?AVCAtlException@ATL@@@8 0046396c     DisassemblerGui.obj
 0003:0000798c       ??_R0?AV?$CDialogImplBaseT@VCWindow@ATL@@@ATL@@@8 0046398c     DisassemblerGui.obj
 0003:000079c0       ??_R0?AV?$CHexEdit@K@@@8   004639c0     DisassemblerGui.obj
 0003:000079e0       ??_R0?AV?$CWindowImpl@V?$CHexEdit@K@@V?$CEditT@VCWindow@ATL@@@WTL@@V?$CWinTraits@$0FGAAAAAA@$0A@@ATL@@@ATL@@@8 004639e0     DisassemblerGui.obj
 0003:00007a58       ??_R0?AV?$CWindowImplBaseT@V?$CEditT@VCWindow@ATL@@@WTL@@V?$CWinTraits@$0FGAAAAAA@$0A@@ATL@@@ATL@@@8 00463a58     DisassemblerGui.obj
 0003:00007ac0       ??_R0?AVCMessageMap@ATL@@@8 00463ac0     DisassemblerGui.obj
 0003:00007ae0       ??_R0?AV?$CWindowImplRoot@VCWindow@ATL@@@ATL@@@8 00463ae0     DisassemblerGui.obj
 0003:00007b14       ??_R0?AVCWindow@ATL@@@8    00463b14     DisassemblerGui.obj
 0003:00007b30       ??_R0?AV?$CDialogImpl@VDisassemblerGui@@VCWindow@ATL@@@ATL@@@8 00463b30     DisassemblerGui.obj
 0003:00007b74       ??_R0?AV?$CDialogImpl@VDumpMemoryGui@@VCWindow@ATL@@@ATL@@@8 00463b74     DumpMemoryGui.obj
 0003:00007bb4       ??_R0?AV?$CWinDataExchange@VDumpMemoryGui@@@WTL@@@8 00463bb4     DumpMemoryGui.obj
 0003:00007bec       ??_R0?AV?$CDialogResize@VDumpMemoryGui@@@WTL@@@8 00463bec     DumpMemoryGui.obj
 0003:00007c20       ??_R0?AVDumpMemoryGui@@@8  00463c20     DumpMemoryGui.obj
 0003:00007c3c       ??_R0?AV?$CWinDataExchange@VDumpSectionGui@@@WTL@@@8 00463c3c     DumpSectionGui.obj
 0003:00007c78       ??_R0?AV?$CDialogImpl@VDumpSectionGui@@VCWindow@ATL@@@ATL@@@8 00463c78     DumpSectionGui.obj
 0003:00007cb8       ??_R0?AVDumpSectionGui@@@8 00463cb8     DumpSectionGui.obj
 0003:00007cd8       ??_R0?AV?$CDialogResize@VDumpSectionGui@@@WTL@@@8 00463cd8     DumpSectionGui.obj
 0003:00007d0c       ??_R0?AVexception@std@@@8  00463d0c     ImportsHandling.obj
 0003:00007d28       ??_R0?AVLogger@@@8         00463d28     Logger.obj
 0003:00007d40       ??_R0?AVFileLog@@@8        00463d40     Logger.obj
 0003:00007d58       ??_R0?AVCMessageLoop@WTL@@@8 00463d58     main.obj
 0003:00007d78       ??_R0?AUIUnknown@@@8       00463d78     main.obj
 0003:00007d90       ??_R0?AUIRegistrarBase@@@8 00463d90     main.obj
 0003:00007db0       ??_R0?AV?$CAtlModuleT@VCComModule@ATL@@@ATL@@@8 00463db0     main.obj
 0003:00007de4       ??_R0?AU_ATL_MODULE70@ATL@@@8 00463de4     main.obj
 0003:00007e04       ??_R0?AVCAppModule@WTL@@@8 00463e04     main.obj
 0003:00007e24       ??_R0?AVCAtlModule@ATL@@@8 00463e24     main.obj
 0003:00007e44       ??_R0?AVCRegObject@ATL@@@8 00463e44     main.obj
 0003:00007e64       ??_R0?AVCComModule@ATL@@@8 00463e64     main.obj
 0003:00007e84       ??_R0?AVMainGui@@@8        00463e84     MainGui.obj
 0003:00007e9c       ??_R0?AV?$CWinDataExchange@VAboutGui@@@WTL@@@8 00463e9c     MainGui.obj
 0003:00007ed0       ??_R0?AVbad_alloc@std@@@8  00463ed0     MainGui.obj
 0003:00007eec       ??_R0?AV?$CDialogResize@VMainGui@@@WTL@@@8 00463eec     MainGui.obj
 0003:00007f1c       ??_R0?AV?$CWinDataExchange@VOptionsGui@@@WTL@@@8 00463f1c     MainGui.obj
 0003:00007f50       ??_R0?AV?$CCustomDraw@VCMultiSelectTreeViewCtrl@@@WTL@@@8 00463f50     MainGui.obj
 0003:00007f8c       ??_R0?AV?$CDialogImpl@VAboutGui@@VCWindow@ATL@@@ATL@@@8 00463f8c     MainGui.obj
 0003:00007fc8       ??_R0?AV?$CWindowImplRoot@V?$CTreeViewCtrlExT@VCWindow@ATL@@@WTL@@@ATL@@@8 00463fc8     MainGui.obj
 0003:00008018       ??_R0?AVDonateGui@@@8      00464018     MainGui.obj
 0003:00008030       ??_R0?AV?$CDialogImpl@VDonateGui@@VCWindow@ATL@@@ATL@@@8 00464030     MainGui.obj
 0003:0000806c       ??_R0?AV?$CTreeViewCtrlExT@VCWindow@ATL@@@WTL@@@8 0046406c     MainGui.obj
 0003:000080a0       ??_R0?AV?$CDialogImpl@VMainGui@@VCWindow@ATL@@@ATL@@@8 004640a0     MainGui.obj
 0003:000080e0       ??_R0?AV?$CWindowImplBaseT@V?$CTreeViewCtrlExT@VCWindow@ATL@@@WTL@@V?$CWinTraitsOR@$0CA@$0A@V?$CWinTraits@$0FGAAAAAA@$0A@@ATL@@@ATL@@@ATL@@@8 004640e0     MainGui.obj
 0003:00008170       ??_R0?AV?$CWinDataExchange@VMainGui@@@WTL@@@8 00464170     MainGui.obj
 0003:000081a0       ??_R0?AVCMultiSelectTreeViewCtrl@@@8 004641a0     MainGui.obj
 0003:000081c8       ??_R0?AV?$CDialogImpl@VOptionsGui@@VCWindow@ATL@@@ATL@@@8 004641c8     MainGui.obj
 0003:00008204       ??_R0?AVAboutGui@@@8       00464204     MainGui.obj
 0003:00008220       ??_R0?AV?$CWindowImpl@VCMultiSelectTreeViewCtrl@@V?$CTreeViewCtrlExT@VCWindow@ATL@@@WTL@@V?$CWinTraitsOR@$0CA@$0A@V?$CWinTraits@$0FGAAAAAA@$0A@@ATL@@@ATL@@@ATL@@@8 00464220     MainGui.obj
 0003:000082c8       ??_R0?AVCMessageFilter@WTL@@@8 004642c8     MainGui.obj
 0003:000082f0       ??_R0?AV?$CMultiSelectTreeViewImpl@VCMultiSelectTreeViewCtrl@@V?$CTreeViewCtrlExT@VCWindow@ATL@@@WTL@@V?$CWinTraitsOR@$0CA@$0A@V?$CWinTraits@$0FGAAAAAA@$0A@@ATL@@@ATL@@@@@8 004642f0     MainGui.obj
 0003:000083a0       ??_R0?AV?$CWinDataExchange@VDonateGui@@@WTL@@@8 004643a0     MainGui.obj
 0003:000083d4       ??_R0?AV?$CTreeViewCtrlT@VCWindow@ATL@@@WTL@@@8 004643d4     MainGui.obj
 0003:00008408       ??_R0?AVOptionsGui@@@8     00464408     MainGui.obj
 0003:00008424       ??_R0?AV?$CDialogImpl@VPickApiGui@@VCWindow@ATL@@@ATL@@@8 00464424     PickApiGui.obj
 0003:00008460       ??_R0?AV?$CDialogResize@VPickApiGui@@@WTL@@@8 00464460     PickApiGui.obj
 0003:00008490       ??_R0?AV?$CWinDataExchange@VPickApiGui@@@WTL@@@8 00464490     PickApiGui.obj
 0003:000084c4       ??_R0?AVPickApiGui@@@8     004644c4     PickApiGui.obj
 0003:000084e0       ??_R0?AVPickDllGui@@@8     004644e0     PickDllGui.obj
 0003:000084fc       ??_R0?AV?$CDialogResize@VPickDllGui@@@WTL@@@8 004644fc     PickDllGui.obj
 0003:0000852c       ??_R0?AV?$CDialogImpl@VPickDllGui@@VCWindow@ATL@@@ATL@@@8 0046452c     PickDllGui.obj
 0003:00008568       ??_R0?AV?$CWinDataExchange@VPickDllGui@@@WTL@@@8 00464568     PickDllGui.obj
 0003:0000859c       ??_R0?AVListboxLog@@@8     0046459c     Scylla.obj
 0003:000085b8       ??_R0?AVTiXmlNode@@@8      004645b8     TreeImportExport.obj
 0003:000085d0       ??_R0?AVTiXmlBase@@@8      004645d0     TreeImportExport.obj
 0003:000085e8       ??_R0?AVTiXmlDocument@@@8  004645e8     TreeImportExport.obj
 0003:00008604       ??_R0?AVTiXmlText@@@8      00464604     tinyxml:tinyxml.obj
 0003:0000861c       ??_R0?AVTiXmlAttribute@@@8 0046461c     tinyxml:tinyxml.obj
 0003:0000863c       ??_R0?AVTiXmlComment@@@8   0046463c     tinyxml:tinyxml.obj
 0003:00008658       ??_R0?AVTiXmlDeclaration@@@8 00464658     tinyxml:tinyxml.obj
 0003:00008678       ??_R0?AVTiXmlElement@@@8   00464678     tinyxml:tinyxml.obj
 0003:00008694       ??_R0?AVTiXmlUnknown@@@8   00464694     tinyxml:tinyxml.obj
 0003:000086b0       ?_AtlBaseModule@ATL@@3VCAtlBaseModule@1@A 004646b0     atls:atlbase.obj
 0003:000086e8       ?__AtlThunkPool@@3PAT_SLIST_HEADER@@A 004646e8     atls:atlthunk.obj
 0003:00008700       ___@@_PchSym_@00@UwwUexgllohUexHoryhUhsrkUzgonuxUhixUzgoUzgohUlyqBiUrDIGUhgwzucOlyq@D30CF1FEFB9F8AE1 00464700     atls:stdafx.obj
 0003:00008704       ?nothrow@std@@3Unothrow_t@1@B 00464704     libcpmt:nothrow.obj
 0003:00008708       ___scrt_current_native_startup_state 00464708     LIBCMT:utility.obj
 0003:0000870c       ___scrt_native_startup_lock 0046470c     LIBCMT:utility.obj
 0003:00008a74       ___isa_available           00464a74     LIBCMT:_cpu_disp_.obj
 0003:00008a78       ___favor                   00464a78     LIBCMT:_cpu_disp_.obj
 0003:00008a7c       ___scrt_debugger_hook_flag 00464a7c     LIBCMT:utility_desktop.obj
 0003:00008a80       __tls_index                00464a80     LIBCMT:tlssup.obj
 0003:00008a88       ?__type_info_root_node@@3U__type_info_node@@A 00464a88     LIBCMT:tncleanup.obj
 0003:00008a90       ?g_OutOfMemoryExceptionCallback@@3P6GPAXXZA 00464a90     libvcruntime:frame.obj
 0003:00008af0       ___pPurecall               00464af0     libvcruntime:purevirt_data.obj
 0003:00008b10       ?pArgList@UnDecorator@@0PAVReplicator@@A 00464b10     libvcruntime:undname.obj
 0003:00008b14       ?pZNameList@UnDecorator@@0PAVReplicator@@A 00464b14     libvcruntime:undname.obj
 0003:00008b18       ?pTemplateArgList@UnDecorator@@0PAVReplicator@@A 00464b18     libvcruntime:undname.obj
 0003:00008b1c       ?gName@UnDecorator@@0PBDB  00464b1c     libvcruntime:undname.obj
 0003:00008b20       ?name@UnDecorator@@0PBDB   00464b20     libvcruntime:undname.obj
 0003:00008b24       ?outputString@UnDecorator@@0PADA 00464b24     libvcruntime:undname.obj
 0003:00008b28       ?maxStringLength@UnDecorator@@0HA 00464b28     libvcruntime:undname.obj
 0003:00008b2c       ?disableFlags@UnDecorator@@0KA 00464b2c     libvcruntime:undname.obj
 0003:00008b30       ?fExplicitTemplateParams@UnDecorator@@0_NA 00464b30     libvcruntime:undname.obj
 0003:00008b31       ?fGetTemplateArgumentList@UnDecorator@@0_NA 00464b31     libvcruntime:undname.obj
 0003:00008b34       ?m_pGetParameter@UnDecorator@@0P6APADJ@ZA 00464b34     libvcruntime:undname.obj
 0003:00008d6c       __environ_table            00464d6c     libucrt:environment_initialization.obj
 0003:00008d70       __wenviron_table           00464d70     libucrt:environment_initialization.obj
 0003:00008d74       ___dcrt_initial_wide_environment 00464d74     libucrt:environment_initialization.obj
 0003:00008d78       ___dcrt_initial_narrow_environment 00464d78     libucrt:environment_initialization.obj
 0003:00008d7c       ___acrt_atexit_table       00464d7c     libucrt:onexit.obj
 0003:00008d88       ___acrt_at_quick_exit_table 00464d88     libucrt:onexit.obj
 0003:00008da4       ___acrt_locale_changed_data 00464da4     libucrt:wsetlocale.obj
 0003:00008dac       __commode                  00464dac     libucrt:ncommode.obj
 0003:00008db0       ___acrt_current_locale_data 00464db0     libucrt:nlsdata.obj
 0003:00008db4       __nstream                  00464db4     libucrt:_file.obj
 0003:00008db8       ___piob                    00464db8     libucrt:_file.obj
 0003:00008dbc       __cflush                   00464dbc     libucrt:_file.obj
 0003:00008dc4       ___acrt_stdout_buffer      00464dc4     libucrt:_sftbuf.obj
 0003:00008dc8       ___acrt_stderr_buffer      00464dc8     libucrt:_sftbuf.obj
 0003:00008dd0       ___pioinfo                 00464dd0     libucrt:ioinit.obj
 0003:00008fd0       __nhandle                  00464fd0     libucrt:ioinit.obj
 0003:000091ec       ___mblocalename            004651ec     libucrt:mbctype.obj
 0003:000091f0       ___mbcodepage              004651f0     libucrt:mbctype.obj
 0003:000091f4       ___ismbcodepage            004651f4     libucrt:mbctype.obj
 0003:000091f8       ___mbulinfo                004651f8     libucrt:mbctype.obj
 0003:0000920c       ___argc                    0046520c     libucrt:argv_data.obj
 0003:00009210       ___argv                    00465210     libucrt:argv_data.obj
 0003:00009214       ___wargv                   00465214     libucrt:argv_data.obj
 0003:00009218       __acmdln                   00465218     libucrt:argv_data.obj
 0003:0000921c       __wcmdln                   0046521c     libucrt:argv_data.obj
 0003:00009220       __wpgmptr                  00465220     libucrt:argv_data.obj
 0003:00009224       ___acrt_heap               00465224     libucrt:heap_handle.obj
 0003:00009238       __fmode                    00465238     libucrt:txtmode.obj
 0003:0000923c       ___acrt_lconv_static_null  0046523c     libucrt:localeconv.obj
 0003:00009240       ___acrt_lconv_static_W_null 00465240     libucrt:localeconv.obj
 0003:00009244       __umaskval                 00465244     libucrt:umask.obj
 0003:00009248       ___fastflag                00465248     libucrt:fp_flags.obj
 0003:00009250       ?_pAtlModule@ATL@@3PAVCAtlModule@1@A 00465250     AboutGui.obj
 0003:00009254       ?_AtlRegisterPerUser@ATL@@3_NA 00465254     AboutGui.obj
 0003:00009255       ?m_bInitFailed@CAtlBaseModule@ATL@@2_NA 00465255     AboutGui.obj
 0003:00009258       ?maxApiAddress@ApiReader@@2KA 00465258     ApiReader.obj
 0003:0000925c       ?moduleThunkList@ApiReader@@2PAV?$map@KVImportModuleThunk@@U?$less@K@std@@V?$allocator@U?$pair@$$CBKVImportModuleThunk@@@std@@@3@@std@@A 0046525c     ApiReader.obj
 0003:00009260       ?hProcess@DllInjectionPlugin@@2PAXA 00465260     DllInjectionPlugin.obj
 0003:00009264       ?IsDllMode@@3_NA           00465264     main.obj
 0003:00009268       ?protectionString@DumpMemoryGui@@0PA_WA 00465268     DumpMemoryGui.obj
 0003:00009330       ?NtOpenSymbolicLinkObject@NativeWinApi@@2P6GJPAPAXKPAU_OBJECT_ATTRIBUTES@@@ZA 00465330     NativeWinApi.obj
 0003:00009334       ?NtQuerySymbolicLinkObject@NativeWinApi@@2P6GJPAXPAU_UNICODE_STRING@@PAK@ZA 00465334     NativeWinApi.obj
 0003:00009338       ?NtClose@NativeWinApi@@2P6GJPAX@ZA 00465338     NativeWinApi.obj
 0003:0000933c       ?NtCreateThreadEx@NativeWinApi@@2P6GJPAPAXKPAX1P6GK1@Z1HK111@ZA 0046533c     NativeWinApi.obj
 0003:00009340       ?NtSetInformationThread@NativeWinApi@@2P6GJPAXW4_THREADINFOCLASS@@0K@ZA 00465340     NativeWinApi.obj
 0003:00009344       ?RtlNtStatusToDosError@NativeWinApi@@2P6GKJ@ZA 00465344     NativeWinApi.obj
 0003:00009348       ?NtSuspendProcess@NativeWinApi@@2P6GJPAX@ZA 00465348     NativeWinApi.obj
 0003:0000934c       ?NtTerminateProcess@NativeWinApi@@2P6GJPAXJ@ZA 0046534c     NativeWinApi.obj
 0003:00009350       ?NtOpenProcess@NativeWinApi@@2P6GJPAPAXKPAXPAU_CLIENT_ID@@@ZA 00465350     NativeWinApi.obj
 0003:00009354       ?NtQueryVirtualMemory@NativeWinApi@@2P6GJPAX0W4_MEMORY_INFORMATION_CLASS@@0KPAK@ZA 00465354     NativeWinApi.obj
 0003:00009358       ?NtResumeProcess@NativeWinApi@@2P6GJPAX@ZA 00465358     NativeWinApi.obj
 0003:0000935c       ?NtQueryInformationProcess@NativeWinApi@@2P6GJPAXW4_PROCESSINFOCLASS@@0KPAK@ZA 0046535c     NativeWinApi.obj
 0003:00009360       ?NtQuerySystemInformation@NativeWinApi@@2P6GJW4_SYSTEM_INFORMATION_CLASS@@PAXKPAK@ZA 00465360     NativeWinApi.obj
 0003:00009364       ?decomposerInstructionsCount@ProcessAccessHelp@@2IA 00465364     ProcessAccessHelp.obj
 0003:00009368       ?selectedModule@ProcessAccessHelp@@2PAVModuleInfo@@A 00465368     ProcessAccessHelp.obj
 0003:0000936c       ?decodedInstructionsCount@ProcessAccessHelp@@2IA 0046536c     ProcessAccessHelp.obj
 0003:00009370       ?decodedInstructions@ProcessAccessHelp@@2PAU_DecodedInst@@A 00465370     ProcessAccessHelp.obj
 0003:000116b0       ?decomposerResult@ProcessAccessHelp@@2PAU_DInst@@A 0046d6b0     ProcessAccessHelp.obj
 0003:000148b0       ?targetSizeOfImage@ProcessAccessHelp@@2KA 004708b0     ProcessAccessHelp.obj
 0003:000148b4       ?maxValidAddress@ProcessAccessHelp@@2KA 004708b4     ProcessAccessHelp.obj
 0003:000148b8       ?decomposerCi@ProcessAccessHelp@@2U_CodeInfo@@A 004708b8     ProcessAccessHelp.obj
 0003:000148d8       ?fileHeaderFromDisk@ProcessAccessHelp@@2PAEA 004708d8     ProcessAccessHelp.obj
 0003:000150a8       ?hProcess@ProcessAccessHelp@@2PAXA 004710a8     ProcessAccessHelp.obj
 0003:000150ac       ?targetImageBase@ProcessAccessHelp@@2KA 004710ac     ProcessAccessHelp.obj
 0003:000150b0       ?_IsWow64Process@ProcessLister@@2P6GHPAXPAH@ZA 004710b0     ProcessLister.obj
 0003:000150b4       ?currenOS@SystemInformation@@2W4OPERATING_SYSTEM@@A 004710b4     SystemInformation.obj
 0003:000150b8       ?nullrep_@TiXmlString@@0URep@1@A 004710b8     tinyxml:tinystr.obj
 0003:000150c8       ?apiList@ApiReader@@2V?$hash_multimap@KPAVApiInfo@@V?$hash_compare@KU?$less@K@std@@@stdext@@V?$allocator@U?$pair@$$CBKPAVApiInfo@@@std@@@std@@@stdext@@A 004710c8     ApiReader.obj
 0003:0001511c       ?_Module@@3VCAppModule@WTL@@A 0047111c     main.obj
 0003:00015170       ?ownModuleList@ProcessAccessHelp@@2V?$vector@VModuleInfo@@V?$allocator@VModuleInfo@@@std@@@std@@A 00471170     ProcessAccessHelp.obj
 0003:00015180       ?moduleList@ProcessAccessHelp@@2V?$vector@VModuleInfo@@V?$allocator@VModuleInfo@@@std@@@std@@A 00471180     ProcessAccessHelp.obj
 0003:00015190       ?config@Scylla@@2VConfigurationHolder@@A 00471190     Scylla.obj
 0003:000153a0       ?plugins@Scylla@@2VPluginLoader@@A 004713a0     Scylla.obj
 0003:000159d0       ?processLister@Scylla@@2VProcessLister@@A 004719d0     Scylla.obj
 0003:000159e0       ?_OptionsStorage@?1??__local_stdio_printf_options@@9@4_KA 004719e0     ConfigurationHolder.obj
 0003:000159e8       ?map@?1??VTFromRegType@CRegParser@ATL@@KAHPB_WAAG@Z@4QBUtypemap@?1??123@KAH01@Z@B 004719e8     main.obj
 0003:00015a08       ?bInitialized@?1??DeleteSubKey@CRegKey@ATL@@QAEJPB_W@Z@4_NA 00471a08     main.obj
 0003:00015a0c       ?pfnRegDeleteKeyEx@?1??DeleteSubKey@CRegKey@ATL@@QAEJPB_W@Z@4P6GJPAUHKEY__@@0KK@ZA 00471a0c     main.obj
 0003:00015a10       ?$TSS0@?1??VTFromRegType@CRegParser@ATL@@KAHPB_WAAG@Z@4HA 00471a10     main.obj
 0003:00015a18       ?_OptionsStorage@?1??__local_stdio_scanf_options@@9@4_KA 00471a18     tinyxml:tinyxml.obj
 0003:00015a20       ?_AtlWinModule@ATL@@3VCAtlWinModule@1@A 00471a20     AboutGui.obj
 0003:00015a4c       ?_AtlComModule@ATL@@3VCAtlComModule@1@A 00471a4c     AboutGui.obj
 0003:00015e00       ___dyn_tls_dtor_callback   00471e00     <common>
 0003:00015e04       ___dyn_tls_init_callback   00471e04     <common>
 0003:00015e08       ___scrt_ucrt_dll_is_in_use 00471e08     <common>
 0003:00015e0c       __pmatherr                 00471e0c     <common>
 0003:00015e10       ___use_sse2_mathfcns       00471e10     <common>
 0005:00000000       __tls_start                00473000     LIBCMT:tlssup.obj
 0005:00000004       __Init_thread_epoch        00473004     LIBCMT:thread_safe_statics.obj
 0005:00000008       __tls_end                  00473008     LIBCMT:tlssup.obj

 entry point at        0001:000300e9

 Static symbols

 0001:00000000       ??__E_AtlComModule@ATL@@YAXXZ 00401000 f   AboutGui.obj
 0001:00000020       ??__E_AtlWinModule@ATL@@YAXXZ 00401020 f   AboutGui.obj
 0001:00000040       ??__E?apiList@ApiReader@@2V?$hash_multimap@KPAVApiInfo@@V?$hash_compare@KU?$less@K@std@@@stdext@@V?$allocator@U?$pair@$$CBKPAVApiInfo@@@std@@@std@@@stdext@@A@@YAXXZ 00401040 f   ApiReader.obj
 0001:00000060       ??__E?directImportLog@IATReferenceScan@@2VFileLog@@A@@YAXXZ 00401060 f   IATReferenceScan.obj
 0001:00000090       ??__E_Module@@YAXXZ        00401090 f   main.obj
 0001:000000d0       ??__E?moduleList@ProcessAccessHelp@@2V?$vector@VModuleInfo@@V?$allocator@VModuleInfo@@@std@@@std@@A@@YAXXZ 004010d0 f   ProcessAccessHelp.obj
 0001:00000110       ??__E?ownModuleList@ProcessAccessHelp@@2V?$vector@VModuleInfo@@V?$allocator@VModuleInfo@@@std@@@std@@A@@YAXXZ 00401110 f   ProcessAccessHelp.obj
 0001:00000150       ??__E?config@Scylla@@2VConfigurationHolder@@A@@YAXXZ 00401150 f   Scylla.obj
 0001:00000170       ??__E?plugins@Scylla@@2VPluginLoader@@A@@YAXXZ 00401170 f   Scylla.obj
 0001:000001d0       ??__E?processLister@Scylla@@2VProcessLister@@A@@YAXXZ 004011d0 f   Scylla.obj
 0001:000001f0       ??__E?debugLog@Scylla@@2VFileLog@@A@@YAXXZ 004011f0 f   Scylla.obj
 0001:0000021e       ??__E_AtlBaseModule@ATL@@YAXXZ 0040121e f   atls:atlbase.obj
 0001:00003972       __catch$??$?0U?$_Wrap_alloc@V?$allocator@U?$_Tree_node@U?$pair@$$CBKVImportThunk@@@std@@PAX@std@@@std@@@std@@@?$_Tree@V?$_Tmap_traits@KVImportThunk@@U?$less@K@std@@V?$allocator@U?$pair@$$CBKVImportThunk@@@std@@@3@$0A@@std@@@std@@QAE@ABV01@$$QAU?$_Wrap_alloc@V?$allocator@U?$_Tree_node@U?$pair@$$CBKVImportThunk@@@std@@PAX@std@@@std@@@1@@Z$0 00404972 f i ApiReader.obj
 0001:00003af7       __catch$??$_Insert@AAU?$pair@$$CBKPAVApiInfo@@@std@@V?$_List_unchecked_iterator@V?$_List_val@U?$_List_simple_types@U?$pair@$$CBKPAVApiInfo@@@std@@@std@@@std@@@2@@?$_Hash@V?$_Hmap_traits@KPAVApiInfo@@V?$hash_compare@KU?$less@K@std@@@stdext@@V?$allocator@U?$pair@$$CBKPAVApiInfo@@@std@@@std@@$00@stdext@@@std@@IAE?AU?$pair@V?$_List_iterator@V?$_List_val@U?$_List_simple_types@U?$pair@$$CBKPAVApiInfo@@@std@@@std@@@std@@@std@@_N@1@AAU?$pair@$$CBKPAVApiInfo@@@1@V?$_List_unchecked_iterator@V?$_List_val@U?$_List_simple_types@U?$pair@$$CBKPAVApiInfo@@@std@@@std@@@std@@@1@@Z$2 00404af7 f i ApiReader.obj
 0001:00003b86       __catch$??$_Buynode@U?$pair@KVImportModuleThunk@@@std@@@?$_Tree_comp_alloc@V?$_Tmap_traits@KVImportModuleThunk@@U?$less@K@std@@V?$allocator@U?$pair@$$CBKVImportModuleThunk@@@std@@@3@$0A@@std@@@std@@QAEPAU?$_Tree_node@U?$pair@$$CBKVImportModuleThunk@@@std@@PAX@1@$$QAU?$pair@KVImportModuleThunk@@@1@@Z$0 00404b86 f i ApiReader.obj
 0001:00003c6d       __catch$??$_Insert_nohint@AAU?$pair@$$CBKVImportModuleThunk@@@std@@PAU?$_Tree_node@U?$pair@$$CBKVImportModuleThunk@@@std@@PAX@2@@?$_Tree@V?$_Tmap_traits@KVImportModuleThunk@@U?$less@K@std@@V?$allocator@U?$pair@$$CBKVImportModuleThunk@@@std@@@3@$0A@@std@@@std@@IAE?AU?$pair@V?$_Tree_iterator@V?$_Tree_val@U?$_Tree_simple_types@U?$pair@$$CBKVImportModuleThunk@@@std@@@std@@@std@@@std@@_N@1@_NAAU?$pair@$$CBKVImportModuleThunk@@@1@PAU?$_Tree_node@U?$pair@$$CBKVImportModuleThunk@@@std@@PAX@1@@Z$0 00404c6d f i ApiReader.obj
 0001:00003ddd       __catch$??$_Insert_nohint@AAU?$pair@$$CBKVImportThunk@@@std@@PAU?$_Tree_node@U?$pair@$$CBKVImportThunk@@@std@@PAX@2@@?$_Tree@V?$_Tmap_traits@KVImportThunk@@U?$less@K@std@@V?$allocator@U?$pair@$$CBKVImportThunk@@@std@@@3@$0A@@std@@@std@@IAE?AU?$pair@V?$_Tree_iterator@V?$_Tree_val@U?$_Tree_simple_types@U?$pair@$$CBKVImportThunk@@@std@@@std@@@std@@@std@@_N@1@_NAAU?$pair@$$CBKVImportThunk@@@1@PAU?$_Tree_node@U?$pair@$$CBKVImportThunk@@@std@@PAX@1@@Z$0 00404ddd f i ApiReader.obj
 0001:000045cf       __catch$??$_Copy_nodes@U_Copy_tag@?$_Tree@V?$_Tmap_traits@KVImportThunk@@U?$less@K@std@@V?$allocator@U?$pair@$$CBKVImportThunk@@@std@@@3@$0A@@std@@@std@@@?$_Tree@V?$_Tmap_traits@KVImportThunk@@U?$less@K@std@@V?$allocator@U?$pair@$$CBKVImportThunk@@@std@@@3@$0A@@std@@@std@@IAEPAU?$_Tree_node@U?$pair@$$CBKVImportThunk@@@std@@PAX@1@PAU21@0U_Copy_tag@01@@Z$0 004055cf f i ApiReader.obj
 0001:00005244       $LN51                      00406244     ConfigurationHolder.obj
 0001:0000531c       $LN51                      0040631c     ConfigurationHolder.obj
 0001:00005649       __catch$??$_Insert_hint@AAU?$pair@$$CBW4ConfigOption@@VConfiguration@@@std@@PAU?$_Tree_node@U?$pair@$$CBW4ConfigOption@@VConfiguration@@@std@@PAX@2@@?$_Tree@V?$_Tmap_traits@W4ConfigOption@@VConfiguration@@U?$less@W4ConfigOption@@@std@@V?$allocator@U?$pair@$$CBW4ConfigOption@@VConfiguration@@@std@@@4@$0A@@std@@@std@@IAE?AV?$_Tree_iterator@V?$_Tree_val@U?$_Tree_simple_types@U?$pair@$$CBW4ConfigOption@@VConfiguration@@@std@@@std@@@std@@@1@V?$_Tree_const_iterator@V?$_Tree_val@U?$_Tree_simple_types@U?$pair@$$CBW4ConfigOption@@VConfiguration@@@std@@@std@@@std@@@1@AAU?$pair@$$CBW4ConfigOption@@VConfiguration@@@1@PAU?$_Tree_node@U?$pair@$$CBW4ConfigOption@@VConfiguration@@@std@@PAX@1@@Z$0 00406649 f i ConfigurationHolder.obj
 0001:000059bd       __catch$??$_Insert_nohint@AAU?$pair@$$CBW4ConfigOption@@VConfiguration@@@std@@PAU?$_Tree_node@U?$pair@$$CBW4ConfigOption@@VConfiguration@@@std@@PAX@2@@?$_Tree@V?$_Tmap_traits@W4ConfigOption@@VConfiguration@@U?$less@W4ConfigOption@@@std@@V?$allocator@U?$pair@$$CBW4ConfigOption@@VConfiguration@@@std@@@4@$0A@@std@@@std@@IAE?AU?$pair@V?$_Tree_iterator@V?$_Tree_val@U?$_Tree_simple_types@U?$pair@$$CBW4ConfigOption@@VConfiguration@@@std@@@std@@@std@@@std@@_N@1@_NAAU?$pair@$$CBW4ConfigOption@@VConfiguration@@@1@PAU?$_Tree_node@U?$pair@$$CBW4ConfigOption@@VConfiguration@@@std@@PAX@1@@Z$0 004069bd f i ConfigurationHolder.obj
 0001:0000694c       $LN40                      0040794c     DisassemblerGui.obj
 0001:00006968       $LN38                      00407968     DisassemblerGui.obj
 0001:00009b50       $LN15                      0040ab50     DllInjectionPlugin.obj
 0001:0000adc8       $LN52                      0040bdc8     DumpMemoryGui.obj
 0001:0000adec       $LN49                      0040bdec     DumpMemoryGui.obj
 0001:0000b1bc       $LN18                      0040c1bc     DumpMemoryGui.obj
 0001:0000c894       $LN32                      0040d894     DumpSectionGui.obj
 0001:0000c938       $LN16                      0040d938     DumpSectionGui.obj
 0001:0000d1b8       $LN16                      0040e1b8     DumpSectionGui.obj
 0001:0000f37a       __catch$??$_Insert_nohint@ABKU_Nil@std@@@?$_Tree@V?$_Tset_traits@KU?$less@K@std@@V?$allocator@K@2@$0A@@std@@@std@@IAE?AU?$pair@V?$_Tree_const_iterator@V?$_Tree_val@U?$_Tree_simple_types@K@std@@@std@@@std@@_N@1@_NABKU_Nil@1@@Z$0 0041037a f i IATReferenceScan.obj
 0001:0000f37a       __catch$??$_Insert_nohint@KU_Nil@std@@@?$_Tree@V?$_Tset_traits@KU?$less@K@std@@V?$allocator@K@2@$0A@@std@@@std@@IAE?AU?$pair@V?$_Tree_const_iterator@V?$_Tree_val@U?$_Tree_simple_types@K@std@@@std@@@std@@_N@1@_N$$QAKU_Nil@1@@Z$0 0041037a f i IATSearch.obj
 0001:0001109b       __catch$??$_Buynode@AAU?$pair@$$CBKVImportModuleThunk@@@std@@@?$_Tree_comp_alloc@V?$_Tmap_traits@KVImportModuleThunk@@U?$less@K@std@@V?$allocator@U?$pair@$$CBKVImportModuleThunk@@@std@@@3@$0A@@std@@@std@@QAEPAU?$_Tree_node@U?$pair@$$CBKVImportModuleThunk@@@std@@PAX@1@AAU?$pair@$$CBKVImportModuleThunk@@@1@@Z$0 0041209b f i ImportRebuilder.obj
 0001:00011275       __catch$??$_Insert_hint@AAU?$pair@$$CBKVImportModuleThunk@@@std@@PAU?$_Tree_node@U?$pair@$$CBKVImportModuleThunk@@@std@@PAX@2@@?$_Tree@V?$_Tmap_traits@KVImportModuleThunk@@U?$less@K@std@@V?$allocator@U?$pair@$$CBKVImportModuleThunk@@@std@@@3@$0A@@std@@@std@@IAE?AV?$_Tree_iterator@V?$_Tree_val@U?$_Tree_simple_types@U?$pair@$$CBKVImportModuleThunk@@@std@@@std@@@std@@@1@V?$_Tree_const_iterator@V?$_Tree_val@U?$_Tree_simple_types@U?$pair@$$CBKVImportModuleThunk@@@std@@@std@@@std@@@1@AAU?$pair@$$CBKVImportModuleThunk@@@1@PAU?$_Tree_node@U?$pair@$$CBKVImportModuleThunk@@@std@@PAX@1@@Z$0 00412275 f i ImportRebuilder.obj
 0001:000139ff       __catch$??$_Copy_nodes@U_Copy_tag@?$_Tree@V?$_Tmap_traits@KVImportModuleThunk@@U?$less@K@std@@V?$allocator@U?$pair@$$CBKVImportModuleThunk@@@std@@@3@$0A@@std@@@std@@@?$_Tree@V?$_Tmap_traits@KVImportModuleThunk@@U?$less@K@std@@V?$allocator@U?$pair@$$CBKVImportModuleThunk@@@std@@@3@$0A@@std@@@std@@IAEPAU?$_Tree_node@U?$pair@$$CBKVImportModuleThunk@@@std@@PAX@1@PAU21@0U_Copy_tag@01@@Z$0 004149ff f i ImportsHandling.obj
 0001:00013bc6       __catch$??$_Insert@AAU?$pair@QAU_TREEITEM@@UTreeItemData@ImportsHandling@@@std@@V?$_List_unchecked_iterator@V?$_List_val@U?$_List_simple_types@U?$pair@QAU_TREEITEM@@UTreeItemData@ImportsHandling@@@std@@@std@@@std@@@2@@?$_Hash@V?$_Hmap_traits@PAU_TREEITEM@@UTreeItemData@ImportsHandling@@V?$hash_compare@PAU_TREEITEM@@U?$less@PAU_TREEITEM@@@std@@@stdext@@V?$allocator@U?$pair@QAU_TREEITEM@@UTreeItemData@ImportsHandling@@@std@@@std@@$0A@@stdext@@@std@@IAE?AU?$pair@V?$_List_iterator@V?$_List_val@U?$_List_simple_types@U?$pair@QAU_TREEITEM@@UTreeItemData@ImportsHandling@@@std@@@std@@@std@@@std@@_N@1@AAU?$pair@QAU_TREEITEM@@UTreeItemData@ImportsHandling@@@1@V?$_List_unchecked_iterator@V?$_List_val@U?$_List_simple_types@U?$pair@QAU_TREEITEM@@UTreeItemData@ImportsHandling@@@std@@@std@@@std@@@1@@Z$2 00414bc6 f i ImportsHandling.obj
 0001:00013ea9       __catch$??$_Insert_hint@AAU?$pair@$$CBKVImportThunk@@@std@@PAU?$_Tree_node@U?$pair@$$CBKVImportThunk@@@std@@PAX@2@@?$_Tree@V?$_Tmap_traits@KVImportThunk@@U?$less@K@std@@V?$allocator@U?$pair@$$CBKVImportThunk@@@std@@@3@$0A@@std@@@std@@IAE?AV?$_Tree_iterator@V?$_Tree_val@U?$_Tree_simple_types@U?$pair@$$CBKVImportThunk@@@std@@@std@@@std@@@1@V?$_Tree_const_iterator@V?$_Tree_val@U?$_Tree_simple_types@U?$pair@$$CBKVImportThunk@@@std@@@std@@@std@@@1@AAU?$pair@$$CBKVImportThunk@@@1@PAU?$_Tree_node@U?$pair@$$CBKVImportThunk@@@std@@PAX@1@@Z$0 00414ea9 f i ImportsHandling.obj
 0001:00013fb3       __catch$??$_Buynode@ABUpiecewise_construct_t@std@@V?$tuple@ABK@2@V?$tuple@$$V@2@@?$_Tree_comp_alloc@V?$_Tmap_traits@KVImportModuleThunk@@U?$less@K@std@@V?$allocator@U?$pair@$$CBKVImportModuleThunk@@@std@@@3@$0A@@std@@@std@@QAEPAU?$_Tree_node@U?$pair@$$CBKVImportModuleThunk@@@std@@PAX@1@ABUpiecewise_construct_t@1@$$QAV?$tuple@ABK@1@$$QAV?$tuple@$$V@1@@Z$0 00414fb3 f i ImportsHandling.obj
 0001:000143e0       _memcpy_s                  004153e0 f   main.obj
 0001:000143e0       _memcpy_s                  004153e0 f   PeParser.obj
 0001:0001455c       $LN12                      0041555c     main.obj
 0001:0001456c       $LN9                       0041556c     main.obj
 0001:000151a0       __catch$?RegisterFromResource@CRegObject@ATL@@IAEJPB_W00H@Z$4 004161a0 f i main.obj
 0001:0001550c       $LN16                      0041650c     main.obj
 0001:00015514       $LN14                      00416514     main.obj
 0001:000156a8       $LN77                      004166a8     main.obj
 0001:000156b0       $LN64                      004166b0     main.obj
 0001:00015839       __catch$?AddValue@CRegParser@ATL@@IAEJAAVCRegKey@2@PB_WPA_W@Z$2 00416839 f i main.obj
 0001:00015a52       __catch$?AddValue@CRegParser@ATL@@IAEJAAVCRegKey@2@PB_WPA_W@Z$0 00416a52 f i main.obj
 0001:00015b78       $LN175                     00416b78     main.obj
 0001:00015b88       $LN164                     00416b88     main.obj
 0001:000172c0       __catch$?Init@CAppModule@WTL@@QAEJPAU_ATL_OBJMAP_ENTRY30@ATL@@PAUHINSTANCE__@@PBU_GUID@@@Z$0 004182c0 f i main.obj
 0001:0001a1d5       __catch$?saveLogToFile@MainGui@@IAE_NPB_W@Z$0 0041b1d5 f   MainGui.obj
 0001:0001afc4       $LN166                     0041bfc4     MainGui.obj
 0001:0001afe0       $LN163                     0041bfe0     MainGui.obj
 0001:0001e14c       $LN53                      0041f14c     MainGui.obj
 0001:0001e154       $LN50                      0041f154     MainGui.obj
 0001:0001e1f0       $LN37                      0041f1f0     MainGui.obj
 0001:0001e1f8       $LN35                      0041f1f8     MainGui.obj
 0001:0001e690       $LN43                      0041f690     MainGui.obj
 0001:0001ee6c       $LN42                      0041fe6c     MainGui.obj
 0001:00023b00       $LN20                      00424b00     PickDllGui.obj
 0001:00025184       $LN15                      00426184     ProcessAccessHelp.obj
 0001:0002518c       $LN13                      0042618c     ProcessAccessHelp.obj
 0001:00029388       $LN18                      0042a388     tinyxml:tinyxmlparser.obj
 0001:000294cc       $LN41                      0042a4cc     tinyxml:tinyxmlparser.obj
 0001:000294e4       $LN31                      0042a4e4     tinyxml:tinyxmlparser.obj
 0001:0002b89c       $LN96                      0042c89c     diStorm:distorm.obj
 0001:0002b8b0       $LN87                      0042c8b0     diStorm:distorm.obj
 0001:0002b8ec       $LN97                      0042c8ec     diStorm:distorm.obj
 0001:0002b910       $LN98                      0042c910     diStorm:distorm.obj
 0001:0002b920       $LN88                      0042c920     diStorm:distorm.obj
 0001:0002b9f0       _distorm_format_signed_disp 0042c9f0 f   diStorm:distorm.obj
 0001:0002ba60       _distorm_format_size       0042ca60 f   diStorm:distorm.obj
 0001:0002bb60       $LN32                      0042cb60     diStorm:distorm.obj
 0001:0002bb68       $LN27                      0042cb68     diStorm:distorm.obj
 0001:0002bbd8       $LN33                      0042cbd8     diStorm:distorm.obj
 0001:0002bbf8       $LN28                      0042cbf8     diStorm:distorm.obj
 0001:0002bd00       _decode_get_effective_op_size 0042cd00 f   diStorm:decoder.obj
 0001:0002bd50       _decode_inst               0042cd50 f   diStorm:decoder.obj
 0001:0002cc8c       $LN111                     0042dc8c     diStorm:prefix.obj
 0001:0002ccc0       $LN101                     0042dcc0     diStorm:prefix.obj
 0001:0002ce54       $LN20                      0042de54     diStorm:prefix.obj
 0001:0002ce60       $LN18                      0042de60     diStorm:prefix.obj
 0001:0002d070       _inst_get_info             0042e070 f   diStorm:instructions.obj
 0001:0002d5b0       _inst_lookup_prefixed      0042e5b0 f   diStorm:instructions.obj
 0001:0002d6d0       _inst_vex_lookup           0042e6d0 f   diStorm:instructions.obj
 0001:0002d810       _inst_vex_mod_lookup       0042e810 f   diStorm:instructions.obj
 0001:0002d850       @read_stream_safe_sint@12  0042e850 f   diStorm:operands.obj
 0001:0002d8e8       $LN11                      0042e8e8     diStorm:operands.obj
 0001:0002d910       @read_stream_safe_uint@12  0042e910 f   diStorm:operands.obj
 0001:0002d994       $LN11                      0042e994     diStorm:operands.obj
 0001:0002e908       $LN541                     0042f908     diStorm:operands.obj
 0001:0002e93c       $LN489                     0042f93c     diStorm:operands.obj
 0001:0002e988       $LN542                     0042f988     diStorm:operands.obj
 0001:0002e9c8       $LN490                     0042f9c8     diStorm:operands.obj
 0001:0002ea18       $LN543                     0042fa18     diStorm:operands.obj
 0001:0002eae8       $LN491                     0042fae8     diStorm:operands.obj
 0001:0002eb40       _operands_extract_modrm    0042fb40 f   diStorm:operands.obj
 0001:0002f098       $LN158                     00430098     diStorm:operands.obj
 0001:0002f0cc       $LN136                     004300cc     diStorm:operands.obj
 0001:0002f120       _operands_extract_sib      00430120 f   diStorm:operands.obj
 0001:0002f2bb       ??$GetProcAddressAll@P6GXPAUAtlThunkData_t@@@Z@@YAP6GXPAUAtlThunkData_t@@@ZPAP6GX0@Z@Z 004302bb f   atls:atlthunk.obj
 0001:0002f2bb       ??$GetProcAddressAll@P6GXPAUAtlThunkData_t@@PAXI@Z@@YAP6GXPAUAtlThunkData_t@@PAXI@ZPAP6GX01I@Z@Z 004302bb f   atls:atlthunk.obj
 0001:0002f2bb       ??$GetProcAddressAll@P6GPAUAtlThunkData_t@@XZ@@YAP6GPAUAtlThunkData_t@@XZPAP6GPAU0@XZ@Z 004302bb f   atls:atlthunk.obj
 0001:0002f2bb       ??$GetProcAddressAll@P6GP6GJPAUHWND__@@IIJ@ZPAUAtlThunkData_t@@@Z@@YAP6GP6GJPAUHWND__@@IIJ@ZPAUAtlThunkData_t@@@ZPAP6GP6GJ0IIJ@Z1@Z@Z 004302bb f   atls:atlthunk.obj
 0001:0002f370       ?GetProcAddressSingle@@YA_NPAUHINSTANCE__@@PBDPAPAX@Z 00430370 f   atls:atlthunk.obj
 0001:0002f4a3       ?__InitializeThunkPool@@YAHXZ 004304a3 f   atls:atlthunk.obj
 0001:0002f7a5       ?find_pe_section@@YAPAU_IMAGE_SECTION_HEADER@@QAEI@Z 004307a5 f   LIBCMT:utility.obj
 0001:0002fa20       ?__scrt_initialize_thread_safe_statics@@YAHXZ 00430a20 f   LIBCMT:thread_safe_statics.obj
 0001:0002fafd       ?__scrt_uninitialize_thread_safe_statics@@YAXXZ 00430afd f   LIBCMT:thread_safe_statics.obj
 0001:0002fec3       ?pre_c_initialization@@YAHXZ 00430ec3 f   LIBCMT:exe_wwinmain.obj
 0001:0002ff67       ?post_pgo_initialization@@YAHXZ 00430f67 f   LIBCMT:exe_wwinmain.obj
 0001:0002ff6f       ?pre_cpp_initialization@@YAXXZ 00430f6f f   LIBCMT:exe_wwinmain.obj
 0001:0002ff81       ?__scrt_common_main_seh@@YAHXZ 00430f81 f   LIBCMT:exe_wwinmain.obj
 0001:00030100       $$000000                   00431100     LIBCMT:ullshr.obj
 0001:00030130       $$000000                   00431130     LIBCMT:_sehprolg4_.obj
 0001:00030483       ?is_managed_app@@YA_NXZ    00431483 f   libucrt:exit.obj
 0001:000305a4       __catch$??2@YAPAXIABUnothrow_t@std@@@Z$0 004315a4 f   LIBCMT:new_scalar_nothrow.obj
 0001:0003066c       _uninitialize_c            0043166c f   libucrt:initialization.obj
 0001:0003066c       _initialize_environment    0043166c f   libucrt:initialization.obj
 0001:0003066c       _report_memory_leaks       0043166c f   libucrt:initialization.obj
 0001:0003066c       _uninitialize_global_state_isolation 0043166c f   libucrt:initialization.obj
 0001:0003066c       _initialize_global_state_isolation 0043166c f   libucrt:initialization.obj
 0001:000307e2       ?CallCatchBlock@@YAPAXPAUEHExceptionRecord@@PAUEHRegistrationNode@@PAU_CONTEXT@@PBU_s_FuncInfo@@PAXHK@Z 004317e2 f   libvcruntime:frame.obj
 0001:0003099e       ?CallUnexpected@@YAXPBU_s_ESTypeList@@@Z 0043199e f   libvcruntime:frame.obj
 0001:000309be       __catch$?CallUnexpected@@YAXPBU_s_ESTypeList@@@Z$0 004319be f   libvcruntime:frame.obj
 0001:000309d8       ?CatchIt@@YAXPAUEHExceptionRecord@@PAUEHRegistrationNode@@PAU_CONTEXT@@PAXPBU_s_FuncInfo@@PBU_s_HandlerType@@PBU_s_CatchableType@@PBU_s_TryBlockMapEntry@@H1E@Z 004319d8 f   libvcruntime:frame.obj
 0001:00030a53       ?ExFilterRethrow@@YAHPAU_EXCEPTION_POINTERS@@@Z 00431a53 f   libvcruntime:frame.obj
 0001:00030a9d       ?FindHandler@@YAXPAUEHExceptionRecord@@PAUEHRegistrationNode@@PAU_CONTEXT@@PAXPBU_s_FuncInfo@@EH1@Z 00431a9d f   libvcruntime:frame.obj
 0001:00030e05       ?FindHandlerForForeignException@@YAXPAUEHExceptionRecord@@PAUEHRegistrationNode@@PAU_CONTEXT@@PAXPBU_s_FuncInfo@@HH1@Z 00431e05 f   libvcruntime:frame.obj
 0001:00030f20       ?IsInExceptionSpec@@YAEPAUEHExceptionRecord@@PBU_s_ESTypeList@@@Z 00431f20 f   libvcruntime:frame.obj
 0001:00030fbc       ?Is_bad_exception_allowed@@YAEPBU_s_ESTypeList@@@Z 00431fbc f   libvcruntime:frame.obj
 0001:00031480       $$000000                   00432480     libvcruntime:memmove.obj
 0001:000316e4       TrailingUpVec              004326e4     libvcruntime:memmove.obj
 0001:00031790       TrailingDownVec            00432790     libvcruntime:memmove.obj
 0001:00031c80       $$000000                   00432c80     libvcruntime:strchr.obj
 0001:00031e50       $$000000                   00432e50     libvcruntime:strrchr.obj
 0001:00032050       $$000000                   00433050     libvcruntime:memcpy.obj
 0001:000322b4       TrailingUpVec              004332b4     libvcruntime:memcpy.obj
 0001:00032360       TrailingDownVec            00433360     libvcruntime:memcpy.obj
 0001:000325d0       $$000000                   004335d0     libvcruntime:memset.obj
 0001:000327a0       _ValidateLocalCookies      004337a0 f   libvcruntime:_chandler4_.obj
 0001:0003298e       ?try_get_function@@YAPAXW4function_id@?A0x89697e75@@QBDQBW4module_id@2@2@Z 0043398e f   libvcruntime:winapi_downlevel.obj
 0001:00032a2e       ?try_get_module@@YAPAUHINSTANCE__@@W4module_id@?A0x89697e75@@@Z 00433a2e f   libvcruntime:winapi_downlevel.obj
 0001:00033190       $$000000                   00434190     libvcruntime:lowhelpr.obj
 0001:00033200       $$000000                   00434200     libvcruntime:_exsup4_.obj
 0001:00033290       __unwind_handler4          00434290 f   libvcruntime:_exsup4_.obj
 0001:000333d0       $$000000                   004343d0     libvcruntime:_exsup_.obj
 0001:000333f0       __unwind_handler           004343f0 f   libvcruntime:_exsup_.obj
 0001:00033768       ??$common_tcsncpy_s@D@@YAHQADIQBDI@Z 00434768 f   libucrt:strncpy_s.obj
 0001:00034831       ??$common_tcsncpy_s@_W@@YAHQA_WIQB_WI@Z 00435831 f   libucrt:wcsncpy_s.obj
 0001:00034982       ??$common_vsnprintf_s@D@@YAH_KQADIIQBDQAU__crt_locale_pointers@@1@Z 00435982 f   libucrt:output.obj
 0001:00034a86       ??$common_vsnprintf_s@_W@@YAH_KQA_WIIQB_WQAU__crt_locale_pointers@@QAD@Z 00435a86 f   libucrt:output.obj
 0001:00034b8e       ??$common_vsprintf@Vformat_validation_base@__crt_stdio_output@@D@@YAH_KQADIQBDQAU__crt_locale_pointers@@1@Z 00435b8e f   libucrt:output.obj
 0001:00034d0a       ??$common_vsprintf@Vformat_validation_base@__crt_stdio_output@@_W@@YAH_KQA_WIQB_WQAU__crt_locale_pointers@@QAD@Z 00435d0a f   libucrt:output.obj
 0001:00034e8f       ??$common_vsprintf_s@D@@YAH_KQADIQBDQAU__crt_locale_pointers@@1@Z 00435e8f f   libucrt:output.obj
 0001:00034f07       ??$common_vsprintf_s@_W@@YAH_KQA_WIQB_WQAU__crt_locale_pointers@@QAD@Z 00435f07 f   libucrt:output.obj
 0001:00035405       ??R<lambda_4f2c1eaeead2a5fc776db5b62ea0fb9b>@@QBEHXZ 00436405 f   libucrt:output.obj
 0001:000357c9       $LN54                      004367c9     libucrt:output.obj
 0001:000358f1       $LN52                      004368f1     libucrt:output.obj
 0001:00035a21       $LN52                      00436a21     libucrt:output.obj
 0001:00036826       $LN19                      00437826     libucrt:output.obj
 0001:00037951       ??$common_fsopen@_W@@YAPAU_iobuf@@QB_W0H@Z 00438951 f   libucrt:fopen.obj
 0001:00037c60       ??R<lambda_9a20e10065b92b5193c3597a66cba9d4>@@QBEHXZ 00438c60 f   libucrt:fputs.obj
 0001:00037e15       ??$common_ftell@J@@YAJV__crt_stdio_stream@@@Z 00438e15 f   libucrt:ftell.obj
 0001:00037e82       ??$common_ftell_nolock@J@@YAJV__crt_stdio_stream@@@Z 00438e82 f   libucrt:ftell.obj
 0001:00037ead       ??$common_ftell_nolock@_J@@YA_JV__crt_stdio_stream@@@Z 00438ead f   libucrt:ftell.obj
 0001:00038042       ?common_ftell_read_mode_nolock@@YA_JV__crt_stdio_stream@@_J1@Z 00439042 f   libucrt:ftell.obj
 0001:000381c6       ?common_ftell_translated_utf8_nolock@@YA_JV__crt_stdio_stream@@_J@Z 004391c6 f   libucrt:ftell.obj
 0001:00038421       ?common_fseek@@YAHV__crt_stdio_stream@@_JH@Z 00439421 f   libucrt:fseek.obj
 0001:000384a8       ?common_fseek_binary_mode_read_only_fast_track_nolock@@YA_NV__crt_stdio_stream@@_JH@Z 004394a8 f   libucrt:fseek.obj
 0001:00038581       ?common_fseek_nolock@@YAHV__crt_stdio_stream@@_JH@Z 00439581 f   libucrt:fseek.obj
 0001:00038b2e       _memcpy_s                  00439b2e f   libucrt:cfout.obj
 0001:00038b2e       _memcpy_s                  00439b2e f   libucrt:atof.obj
 0001:00038b2e       _memcpy_s                  00439b2e f   libucrt:fread.obj
 0001:00038b2e       _memcpy_s                  00439b2e f   libucrt:mbctype.obj
 0001:00038e2b       ??$common_tox_l@$1?internal_isupper_l@@YA_NHQAU__crt_locale_pointers@@@Z$1?internal_map_lower@@YAHH0@Z@@YAHHKQAU__crt_locale_pointers@@@Z 00439e2b f   libucrt:tolower_toupper.obj
 0001:00038f75       ?internal_isupper_l@@YA_NHQAU__crt_locale_pointers@@@Z 00439f75 f   libucrt:tolower_toupper.obj
 0001:00039180       $$000000                   0043a180     libucrt:strncmp.obj
 0001:000393c6       ?atexit_exception_filter@@YAHK@Z 0043a3c6 f   libucrt:exit.obj
 0001:000393d9       ?common_exit@@YAXHW4_crt_exit_cleanup_mode@@W4_crt_exit_return_mode@@@Z 0043a3d9 f   libucrt:exit.obj
 0001:000394f2       ?exit_or_terminate_process@@YAXI@Z 0043a4f2 f   libucrt:exit.obj
 0001:00039533       ?try_cor_exit_process@@YAXI@Z 0043a533 f   libucrt:exit.obj
 0001:0003962e       ??$common_configure_argv@_W@@YAHW4_crt_argv_mode@@@Z 0043a62e f   libucrt:argv_parsing.obj
 0001:0003974d       ??$parse_command_line@_W@@YAXPA_WPAPA_W0PAI2@Z 0043a74d f   libucrt:argv_parsing.obj
 0001:00039933       ??$common_initialize_environment_nolock@_W@@YAHXZ 0043a933 f   libucrt:environment_initialization.obj
 0001:00039987       ??$create_environment@_W@@YAQAPA_WQA_W@Z 0043a987 f   libucrt:environment_initialization.obj
 0001:00039a81       ??$free_environment@D@@YAXQAPAD@Z 0043aa81 f   libucrt:environment_initialization.obj
 0001:00039a81       ??$free_environment@_W@@YAXQAPA_W@Z 0043aa81 f   libucrt:environment_initialization.obj
 0001:00039af0       ??$uninitialize_environment_internal@D@@YAXAAPAPAD@Z 0043aaf0 f   libucrt:environment_initialization.obj
 0001:00039b0b       ??$uninitialize_environment_internal@_W@@YAXAAPAPA_W@Z 0043ab0b f   libucrt:environment_initialization.obj
 0001:00039c54       ??R<lambda_275893d493268fdec8709772e3fcec0e>@@QBEHXZ 0043ac54 f   libucrt:onexit.obj
 0001:00039d74       ??R<lambda_4e60a939b0d047cfe11ddc22648dfba9>@@QBEHXZ 0043ad74 f   libucrt:onexit.obj
 0001:00039f49       _initialize_global_variables 0043af49 f   libucrt:initialization.obj
 0001:00039f5b       _initialize_c              0043af5b f   libucrt:initialization.obj
 0001:00039f75       _uninitialize_environment  0043af75 f   libucrt:initialization.obj
 0001:00039f7d       _initialize_pointers       0043af7d f   libucrt:initialization.obj
 0001:00039fba       _uninitialize_vcruntime    0043afba f   libucrt:initialization.obj
 0001:00039fc3       _uninitialize_allocated_memory 0043afc3 f   libucrt:initialization.obj
 0001:0003a928       ?construct_ptd@@YAXQAU__acrt_ptd@@QAPAU__crt_locale_data@@@Z 0043b928 f   libucrt:per_thread_data.obj
 0001:0003a9a1       ?destroy_fls@@YGXPAX@Z     0043b9a1 f   libucrt:per_thread_data.obj
 0001:0003a9c2       ?destroy_ptd@@YAXQAU__acrt_ptd@@@Z 0043b9c2 f   libucrt:per_thread_data.obj
 0001:0003aa6b       ?replace_current_thread_locale_nolock@@YAXQAU__acrt_ptd@@QAU__crt_locale_data@@@Z 0043ba6b f   libucrt:per_thread_data.obj
 0001:0003ac60       $$000000                   0043bc60     libucrt:_strnicm.obj
 0001:0003b3d2       ?fp_format_a@@YAHQBNPADIQADIH_NIQAU__crt_locale_pointers@@@Z 0043c3d2 f   libucrt:cvt.obj
 0001:0003b6d5       ?fp_format_e@@YAHQBNQADI1IH_NIQAU__crt_locale_pointers@@@Z 0043c6d5 f   libucrt:cvt.obj
 0001:0003b770       ?fp_format_e_internal@@YAHQADIH_NIQAU_strflt@@1QAU__crt_locale_pointers@@@Z 0043c770 f   libucrt:cvt.obj
 0001:0003b8bb       ?fp_format_f@@YAHQBNQADI1IHQAU__crt_locale_pointers@@@Z 0043c8bb f   libucrt:cvt.obj
 0001:0003b948       ?fp_format_f_internal@@YAHQADIHQAU_strflt@@_NQAU__crt_locale_pointers@@@Z 0043c948 f   libucrt:cvt.obj
 0001:0003ba1f       ?fp_format_g@@YAHQBNQADI1IH_NIQAU__crt_locale_pointers@@@Z 0043ca1f f   libucrt:cvt.obj
 0001:0003bae7       ?fp_format_nan_or_infinity@@YAHW4__acrt_fp_class@@_NPADI1@Z 0043cae7 f   libucrt:cvt.obj
 0001:0003bbdf       ?shift_bytes@@YAXQADI0H@Z  0043cbdf f   libucrt:cvt.obj
 0001:0003bd5d       ?fputwc_binary_nolock@@YAG_WV__crt_stdio_stream@@@Z 0043cd5d f   libucrt:fputwc.obj
 0001:0003c12a       ?initialize_inherited_file_handles_nolock@@YAXXZ 0043d12a f   libucrt:ioinit.obj
 0001:0003c1e0       ?initialize_stdio_handles_nolock@@YAXXZ 0043d1e0 f   libucrt:ioinit.obj
 0001:0003c48c       ?find_or_allocate_unused_stream_nolock@@YA?AV__crt_stdio_stream@@XZ 0043d48c f   libucrt:stream.obj
 0001:0003c793       ??$common_openfile@_W@@YAPAU_iobuf@@QB_W0HV__crt_stdio_stream@@@Z 0043d793 f   libucrt:openfile.obj
 0001:0003cbcf       _common_flush_all          0043dbcf f   libucrt:fflush.obj
 0001:0003ce20       ??$common_lseek@_J@@YA_JH_JH@Z 0043de20 f   libucrt:lseek.obj
 0001:0003cf25       ??$common_lseek_nolock@_J@@YA_JH_JH@Z 0043df25 f   libucrt:lseek.obj
 0001:0003cfd9       ??$translate_text_mode_nolock@D@@YAHHQADI@Z 0043dfd9 f   libucrt:read.obj
 0001:0003d130       ??$translate_text_mode_nolock@_W@@YAHHQA_WI@Z 0043e130 f   libucrt:read.obj
 0001:0003d2f0       ?translate_ansi_or_utf8_nolock@@YAHHQADIQA_WI@Z 0043e2f0 f   libucrt:read.obj
 0001:0003d440       ?translate_utf16_from_console_nolock@@YAHHQA_WI@Z 0043e440 f   libucrt:read.obj
 0001:0003d989       ??$common_flush_and_write_nolock@D@@YAHHV__crt_stdio_stream@@@Z 0043e989 f   libucrt:_flsbuf.obj
 0001:0003da9a       ??$common_flush_and_write_nolock@_W@@YAHHV__crt_stdio_stream@@@Z 0043ea9a f   libucrt:_flsbuf.obj
 0001:0003dbaf       ??$write_buffer_nolock@D@@YA_NDV__crt_stdio_stream@@@Z 0043ebaf f   libucrt:_flsbuf.obj
 0001:0003dc7b       ??$write_buffer_nolock@_W@@YA_N_WV__crt_stdio_stream@@@Z 0043ec7b f   libucrt:_flsbuf.obj
 0001:0003dd65       ??$common_refill_and_read_nolock@D@@YAHV__crt_stdio_stream@@@Z 0043ed65 f   libucrt:_filbuf.obj
 0001:0003def1       ?__acrt_LCMapStringA_stat@@YAHPAU__crt_locale_pointers@@PB_WKPBDHPADHHH@Z 0043eef1 f   libucrt:lcmapstringa.obj
 0001:0003e219       ?try_get_function@@YAPAXW4function_id@?A0x352e5c4b@@QBDQBW4module_id@2@2@Z 0043f219 f   libucrt:winapi_thunks.obj
 0001:0003e2b5       ?try_get_module@@YAPAUHINSTANCE__@@W4module_id@?A0x352e5c4b@@@Z 0043f2b5 f   libucrt:winapi_thunks.obj
 0001:0003e6b4       ?<helper_func_cdecl>@<lambda_a75c72a202f46efc7a9b191949c2fc0f>@@CAHPBX0@Z 0043f6b4 f   libucrt:argv_wildcards.obj
 0001:0003e6cc       ??$common_expand_argv_wildcards@_W@@YAHQAPA_WQAPAPA_W@Z 0043f6cc f   libucrt:argv_wildcards.obj
 0001:0003e899       ??$copy_and_add_argument_to_buffer@_W@@YAHQB_W0IAAV?$argument_list@_W@?A0xb0e4b824@@@Z 0043f899 f   libucrt:argv_wildcards.obj
 0001:0003e937       ??$expand_argument_wildcards@_W@@YAHQA_W0AAV?$argument_list@_W@?A0xb0e4b824@@@Z 0043f937 f   libucrt:argv_wildcards.obj
 0001:0003ec44       ??R<lambda_ad1ced32f4ac17aa236e5ef05d6b3b7c>@@QBEXXZ 0043fc44 f   libucrt:mbctype.obj
 0001:0003ed08       ?CPtoLocaleName@@YAPB_WH@Z 0043fd08 f   libucrt:mbctype.obj
 0001:0003ed46       ?getSystemCP@@YAHH@Z       0043fd46 f   libucrt:mbctype.obj
 0001:0003edb9       ?setSBCS@@YAXPAU__crt_multibyte_data@@@Z 0043fdb9 f   libucrt:mbctype.obj
 0001:0003ee1e       ?setSBUpLow@@YAXPAU__crt_multibyte_data@@@Z 0043fe1e f   libucrt:mbctype.obj
 0001:0003efb2       ?setmbcp_internal@@YAHH_N@Z 0043ffb2 f   libucrt:mbctype.obj
 0001:0003f37d       ?find_end_of_double_null_terminated_sequence@@YAPB_WQB_W@Z 0044037d f   libucrt:get_environment_from_os.obj
 0001:0003f571       ?get_global_action_nolock@@YAPAP6AXH@ZH@Z 00440571 f   libucrt:signal.obj
 0001:0003f5b3       ?siglookup@@YAPAU__crt_signal_action_t@@HQAU1@@Z 004405b3 f   libucrt:signal.obj
 0001:0003fdd3       ?free_crt_array_internal@@YAXQAPBXI@Z 00440dd3 f   libucrt:inittime.obj
 0001:00040420       ___hw_cw_sse2              00441420 f   libucrt:ieee87.obj
 0001:000408ab       __hw_cw                    004418ab f   libucrt:ieee87.obj
 0001:00041ebc       ??$common_sopen_dispatch@_W@@YAHQB_WHHHQAHH@Z 00442ebc f   libucrt:open.obj
 0001:00041f88       ?configure_text_mode@@YAHHUfile_options@?A0x704126de@@HAAW4__crt_lowio_text_mode@@@Z 00442f88 f   libucrt:open.obj
 0001:000421d5       ?create_file@@YAPAXQB_WQAU_SECURITY_ATTRIBUTES@@Ufile_options@?A0x704126de@@@Z 004431d5 f   libucrt:open.obj
 0001:000421fa       ?decode_open_create_flags@@YAKH@Z 004431fa f   libucrt:open.obj
 0001:0004226a       ?decode_options@@YA?AUfile_options@?A0x704126de@@HHH@Z 0044326a f   libucrt:open.obj
 0001:000423e6       ?truncate_ctrl_z_if_present@@YAHH@Z 004433e6 f   libucrt:open.obj
 0001:0004290e       ?write_double_translated_ansi_nolock@@YA?AUwrite_result@?A0x47fa6670@@HQBDI@Z 0044390e f   libucrt:write.obj
 0001:00042ac1       ?write_double_translated_unicode_nolock@@YA?AUwrite_result@?A0x47fa6670@@QBDI@Z 00443ac1 f   libucrt:write.obj
 0001:00042b2e       ?write_requires_double_translation_nolock@@YA_NH@Z 00443b2e f   libucrt:write.obj
 0001:00042ba4       ?write_text_ansi_nolock@@YA?AUwrite_result@?A0x47fa6670@@HQBDI@Z 00443ba4 f   libucrt:write.obj
 0001:00042c83       ?write_text_utf16le_nolock@@YA?AUwrite_result@?A0x47fa6670@@HQBDI@Z 00443c83 f   libucrt:write.obj
 0001:00042d71       ?write_text_utf8_nolock@@YA?AUwrite_result@?A0x47fa6670@@HQBDI@Z 00443d71 f   libucrt:write.obj
 0001:000431f2       ___get_abstract_control_sse2 004441f2 f   libucrt:_fenvutils.obj
 0001:0004326f       ___get_abstract_control_x87 0044426f f   libucrt:_fenvutils.obj
 0001:000432e2       ___get_machine_control     004442e2 f   libucrt:_fenvutils.obj
 0001:00043353       ___get_machine_control_sse2 00444353 f   libucrt:_fenvutils.obj
 0001:000433d3       ___get_machine_status_sse2 004443d3 f   libucrt:_fenvutils.obj
 0001:00043434       ___get_machine_status_x87  00444434 f   libucrt:_fenvutils.obj
 0001:0004369c       ?GetTableIndexFromLocaleName@@YAHPB_W@Z 0044469c f   libucrt:lcidtoname_downlevel.obj
 0001:00043790       ?shortsort@@YAXPAD0IP6AHPBX1@Z@Z 00444790 f   libucrt:qsort.obj
 0001:00043830       ?swap@@YAXPAD0I@Z          00444830 f   libucrt:qsort.obj
 0001:00043c10       $$000000                   00444c10     libucrt:strpbrk.obj
 0001:00043c50       ?initialize_multibyte@@YAHXZ 00444c50 f   libucrt:multibyte_initializer.obj
 0001:00043e40       $$000000                   00444e40     libucrt:log10.obj
 0001:00043f90       $$000000                   00444f90     libucrt:ceil_pentium4.obj
 0001:000442a0       $$000000                   004452a0     libucrt:log10_pentium4.obj
 0001:00044530       $$000000                   00445530     libucrt:87tran.obj
 0001:00044730       $$000000                   00445730     libucrt:87disp.obj
 0001:00044930       $$000000                   00445930     libucrt:common.obj
 0001:00044ac0       $$000000                   00445ac0     libucrt:genexcep.obj
 0001:00045b30       $$000000                   00446b30     LIBCMT:ulldvrm.obj
 0001:00045bd0       $$000000                   00446bd0     LIBCMT:llmul.obj
 0001:00045c10       $$000000                   00446c10     LIBCMT:lldiv.obj
 0001:00045cc0       $$000000                   00446cc0     LIBCMT:chkstk.obj
 0001:00045cf0       $$000000                   00446cf0     LIBCMT:llshl.obj
 0001:00045d10       $$000000                   00446d10     LIBCMT:_sehprolg4gs_.obj
 0001:00045d70       $$000000                   00446d70     LIBCMT:lldvrm.obj
 0001:00045e50       $$000000                   00446e50     LIBCMT:alloca16.obj
 0001:00045e80       $$000000                   00446e80     LIBCMT:_ftol2_.obj
 0001:00045f40       __unwindfunclet$??__F_AtlComModule@ATL@@YAXXZ$0 00446f40 f   AboutGui.obj
 0001:00045f46       __ehhandler$??__F_AtlComModule@ATL@@YAXXZ 00446f46 f   AboutGui.obj
 0001:00045f70       __unwindfunclet$?parseModuleWithProcess@ApiReader@@AAEXPAVModuleInfo@@@Z$1 00446f70 f   ApiReader.obj
 0001:00045f78       __unwindfunclet$?parseModuleWithProcess@ApiReader@@AAEXPAVModuleInfo@@@Z$0 00446f78 f   ApiReader.obj
 0001:00045f80       __ehhandler$?parseModuleWithProcess@ApiReader@@AAEXPAVModuleInfo@@@Z 00446f80 f   ApiReader.obj
 0001:00045fa0       __unwindfunclet$?addModuleToModuleList@ApiReader@@AAE_NPB_WK@Z$0 00446fa0 f   ApiReader.obj
 0001:00045fab       __unwindfunclet$?addModuleToModuleList@ApiReader@@AAE_NPB_WK@Z$1 00446fab f   ApiReader.obj
 0001:00045fb6       __ehhandler$?addModuleToModuleList@ApiReader@@AAE_NPB_WK@Z 00446fb6 f   ApiReader.obj
 0001:00045fe0       __unwindfunclet$?addUnknownModuleToModuleList@ApiReader@@AAEXK@Z$0 00446fe0 f   ApiReader.obj
 0001:00045feb       __unwindfunclet$?addUnknownModuleToModuleList@ApiReader@@AAEXK@Z$1 00446feb f   ApiReader.obj
 0001:00045ff6       __ehhandler$?addUnknownModuleToModuleList@ApiReader@@AAEXK@Z 00446ff6 f   ApiReader.obj
 0001:00046020       __unwindfunclet$?clearAll@ApiReader@@QAEXXZ$15 00447020 f   ApiReader.obj
 0001:00046026       __unwindfunclet$?clearAll@ApiReader@@QAEXXZ$49 00447026 f   ApiReader.obj
 0001:0004602c       __ehhandler$?clearAll@ApiReader@@QAEXXZ 0044702c f   ApiReader.obj
 0001:00046050       __unwindfunclet$??0?$_Hash@V?$_Hmap_traits@KPAVApiInfo@@V?$hash_compare@KU?$less@K@std@@@stdext@@V?$allocator@U?$pair@$$CBKPAVApiInfo@@@std@@@std@@$00@stdext@@@std@@QAE@ABV?$hash_compare@KU?$less@K@std@@@stdext@@ABV?$allocator@U?$pair@$$CBKPAVApiInfo@@@std@@@1@@Z$0 00447050 f   ApiReader.obj
 0001:0004605b       __unwindfunclet$??0?$_Hash@V?$_Hmap_traits@KPAVApiInfo@@V?$hash_compare@KU?$less@K@std@@@stdext@@V?$allocator@U?$pair@$$CBKPAVApiInfo@@@std@@@std@@$00@stdext@@@std@@QAE@ABV?$hash_compare@KU?$less@K@std@@@stdext@@ABV?$allocator@U?$pair@$$CBKPAVApiInfo@@@std@@@1@@Z$1 0044705b f   ApiReader.obj
 0001:00046066       __ehhandler$??0?$_Hash@V?$_Hmap_traits@KPAVApiInfo@@V?$hash_compare@KU?$less@K@std@@@stdext@@V?$allocator@U?$pair@$$CBKPAVApiInfo@@@std@@@std@@$00@stdext@@@std@@QAE@ABV?$hash_compare@KU?$less@K@std@@@stdext@@ABV?$allocator@U?$pair@$$CBKPAVApiInfo@@@std@@@1@@Z 00447066 f   ApiReader.obj
 0001:00046090       __ehhandler$?clear@?$_Tree@V?$_Tmap_traits@KVImportThunk@@U?$less@K@std@@V?$allocator@U?$pair@$$CBKVImportThunk@@@std@@@3@$0A@@std@@@std@@QAEXXZ 00447090 f   ApiReader.obj
 0001:00046090       __ehhandler$?clear@?$_Tree@V?$_Tmap_traits@W4ConfigOption@@VConfiguration@@U?$less@W4ConfigOption@@@std@@V?$allocator@U?$pair@$$CBW4ConfigOption@@VConfiguration@@@std@@@4@$0A@@std@@@std@@QAEXXZ 00447090 f   ConfigurationHolder.obj
 0001:00046090       __ehhandler$?clear@?$_Tree@V?$_Tset_traits@KU?$less@K@std@@V?$allocator@K@2@$0A@@std@@@std@@QAEXXZ 00447090 f   IATReferenceScan.obj
 0001:000460b0       __unwindfunclet$??$?0U?$_Wrap_alloc@V?$allocator@U?$_Tree_node@U?$pair@$$CBKVImportThunk@@@std@@PAX@std@@@std@@@std@@@?$_Tree@V?$_Tmap_traits@KVImportThunk@@U?$less@K@std@@V?$allocator@U?$pair@$$CBKVImportThunk@@@std@@@3@$0A@@std@@@std@@QAE@ABV01@$$QAU?$_Wrap_alloc@V?$allocator@U?$_Tree_node@U?$pair@$$CBKVImportThunk@@@std@@PAX@std@@@std@@@1@@Z$2 004470b0 f   ApiReader.obj
 0001:000460b8       __ehhandler$??$?0U?$_Wrap_alloc@V?$allocator@U?$_Tree_node@U?$pair@$$CBKVImportThunk@@@std@@PAX@std@@@std@@@std@@@?$_Tree@V?$_Tmap_traits@KVImportThunk@@U?$less@K@std@@V?$allocator@U?$pair@$$CBKVImportThunk@@@std@@@3@$0A@@std@@@std@@QAE@ABV01@$$QAU?$_Wrap_alloc@V?$allocator@U?$_Tree_node@U?$pair@$$CBKVImportThunk@@@std@@PAX@std@@@std@@@1@@Z 004470b8 f   ApiReader.obj
 0001:000460e0       __ehhandler$??$_Insert@AAU?$pair@$$CBKPAVApiInfo@@@std@@V?$_List_unchecked_iterator@V?$_List_val@U?$_List_simple_types@U?$pair@$$CBKPAVApiInfo@@@std@@@std@@@std@@@2@@?$_Hash@V?$_Hmap_traits@KPAVApiInfo@@V?$hash_compare@KU?$less@K@std@@@stdext@@V?$allocator@U?$pair@$$CBKPAVApiInfo@@@std@@@std@@$00@stdext@@@std@@IAE?AU?$pair@V?$_List_iterator@V?$_List_val@U?$_List_simple_types@U?$pair@$$CBKPAVApiInfo@@@std@@@std@@@std@@@std@@_N@1@AAU?$pair@$$CBKPAVApiInfo@@@1@V?$_List_unchecked_iterator@V?$_List_val@U?$_List_simple_types@U?$pair@$$CBKPAVApiInfo@@@std@@@std@@@std@@@1@@Z 004470e0 f   ApiReader.obj
 0001:00046100       __unwindfunclet$??$_Buynode@U?$pair@KVImportModuleThunk@@@std@@@?$_Tree_comp_alloc@V?$_Tmap_traits@KVImportModuleThunk@@U?$less@K@std@@V?$allocator@U?$pair@$$CBKVImportModuleThunk@@@std@@@3@$0A@@std@@@std@@QAEPAU?$_Tree_node@U?$pair@$$CBKVImportModuleThunk@@@std@@PAX@1@$$QAU?$pair@KVImportModuleThunk@@@1@@Z$9 00447100 f   ApiReader.obj
 0001:00046105       __ehhandler$??$_Buynode@U?$pair@KVImportModuleThunk@@@std@@@?$_Tree_comp_alloc@V?$_Tmap_traits@KVImportModuleThunk@@U?$less@K@std@@V?$allocator@U?$pair@$$CBKVImportModuleThunk@@@std@@@3@$0A@@std@@@std@@QAEPAU?$_Tree_node@U?$pair@$$CBKVImportModuleThunk@@@std@@PAX@1@$$QAU?$pair@KVImportModuleThunk@@@1@@Z 00447105 f   ApiReader.obj
 0001:00046120       __ehhandler$??$_Insert_nohint@AAU?$pair@$$CBKVImportModuleThunk@@@std@@PAU?$_Tree_node@U?$pair@$$CBKVImportModuleThunk@@@std@@PAX@2@@?$_Tree@V?$_Tmap_traits@KVImportModuleThunk@@U?$less@K@std@@V?$allocator@U?$pair@$$CBKVImportModuleThunk@@@std@@@3@$0A@@std@@@std@@IAE?AU?$pair@V?$_Tree_iterator@V?$_Tree_val@U?$_Tree_simple_types@U?$pair@$$CBKVImportModuleThunk@@@std@@@std@@@std@@@std@@_N@1@_NAAU?$pair@$$CBKVImportModuleThunk@@@1@PAU?$_Tree_node@U?$pair@$$CBKVImportModuleThunk@@@std@@PAX@1@@Z 00447120 f   ApiReader.obj
 0001:00046140       __ehhandler$??$_Insert_nohint@AAU?$pair@$$CBKVImportThunk@@@std@@PAU?$_Tree_node@U?$pair@$$CBKVImportThunk@@@std@@PAX@2@@?$_Tree@V?$_Tmap_traits@KVImportThunk@@U?$less@K@std@@V?$allocator@U?$pair@$$CBKVImportThunk@@@std@@@3@$0A@@std@@@std@@IAE?AU?$pair@V?$_Tree_iterator@V?$_Tree_val@U?$_Tree_simple_types@U?$pair@$$CBKVImportThunk@@@std@@@std@@@std@@@std@@_N@1@_NAAU?$pair@$$CBKVImportThunk@@@1@PAU?$_Tree_node@U?$pair@$$CBKVImportThunk@@@std@@PAX@1@@Z 00447140 f   ApiReader.obj
 0001:00046160       __ehhandler$??$_Copy_nodes@U_Copy_tag@?$_Tree@V?$_Tmap_traits@KVImportThunk@@U?$less@K@std@@V?$allocator@U?$pair@$$CBKVImportThunk@@@std@@@3@$0A@@std@@@std@@@?$_Tree@V?$_Tmap_traits@KVImportThunk@@U?$less@K@std@@V?$allocator@U?$pair@$$CBKVImportThunk@@@std@@@3@$0A@@std@@@std@@IAEPAU?$_Tree_node@U?$pair@$$CBKVImportThunk@@@std@@PAX@1@PAU21@0U_Copy_tag@01@@Z 00447160 f   ApiReader.obj
 0001:00046180       __unwindfunclet$??0ConfigurationHolder@@QAE@PB_W@Z$0 00447180 f   ConfigurationHolder.obj
 0001:00046191       __ehhandler$??0ConfigurationHolder@@QAE@PB_W@Z 00447191 f   ConfigurationHolder.obj
 0001:000461c0       __ehhandler$??$_Insert_hint@AAU?$pair@$$CBW4ConfigOption@@VConfiguration@@@std@@PAU?$_Tree_node@U?$pair@$$CBW4ConfigOption@@VConfiguration@@@std@@PAX@2@@?$_Tree@V?$_Tmap_traits@W4ConfigOption@@VConfiguration@@U?$less@W4ConfigOption@@@std@@V?$allocator@U?$pair@$$CBW4ConfigOption@@VConfiguration@@@std@@@4@$0A@@std@@@std@@IAE?AV?$_Tree_iterator@V?$_Tree_val@U?$_Tree_simple_types@U?$pair@$$CBW4ConfigOption@@VConfiguration@@@std@@@std@@@std@@@1@V?$_Tree_const_iterator@V?$_Tree_val@U?$_Tree_simple_types@U?$pair@$$CBW4ConfigOption@@VConfiguration@@@std@@@std@@@std@@@1@AAU?$pair@$$CBW4ConfigOption@@VConfiguration@@@1@PAU?$_Tree_node@U?$pair@$$CBW4ConfigOption@@VConfiguration@@@std@@PAX@1@@Z 004471c0 f   ConfigurationHolder.obj
 0001:000461e0       __ehhandler$??$_Insert_nohint@AAU?$pair@$$CBW4ConfigOption@@VConfiguration@@@std@@PAU?$_Tree_node@U?$pair@$$CBW4ConfigOption@@VConfiguration@@@std@@PAX@2@@?$_Tree@V?$_Tmap_traits@W4ConfigOption@@VConfiguration@@U?$less@W4ConfigOption@@@std@@V?$allocator@U?$pair@$$CBW4ConfigOption@@VConfiguration@@@std@@@4@$0A@@std@@@std@@IAE?AU?$pair@V?$_Tree_iterator@V?$_Tree_val@U?$_Tree_simple_types@U?$pair@$$CBW4ConfigOption@@VConfiguration@@@std@@@std@@@std@@@std@@_N@1@_NAAU?$pair@$$CBW4ConfigOption@@VConfiguration@@@1@PAU?$_Tree_node@U?$pair@$$CBW4ConfigOption@@VConfiguration@@@std@@PAX@1@@Z 004471e0 f   ConfigurationHolder.obj
 0001:00046200       __unwindfunclet$??0DisassemblerGui@@QAE@KPAVApiReader@@@Z$0 00447200 f   DisassemblerGui.obj
 0001:00046208       __unwindfunclet$??0DisassemblerGui@@QAE@KPAVApiReader@@@Z$1 00447208 f   DisassemblerGui.obj
 0001:00046213       __unwindfunclet$??0DisassemblerGui@@QAE@KPAVApiReader@@@Z$2 00447213 f   DisassemblerGui.obj
 0001:00046221       __unwindfunclet$??0DisassemblerGui@@QAE@KPAVApiReader@@@Z$3 00447221 f   DisassemblerGui.obj
 0001:0004622f       __unwindfunclet$??0DisassemblerGui@@QAE@KPAVApiReader@@@Z$4 0044722f f   DisassemblerGui.obj
 0001:0004623d       __unwindfunclet$??0DisassemblerGui@@QAE@KPAVApiReader@@@Z$5 0044723d f   DisassemblerGui.obj
 0001:0004624b       __ehhandler$??0DisassemblerGui@@QAE@KPAVApiReader@@@Z 0044724b f   DisassemblerGui.obj
 0001:00046270       __unwindfunclet$?OnContextMenu@DisassemblerGui@@IAEXVCWindow@ATL@@VCPoint@@@Z$0 00447270 f   DisassemblerGui.obj
 0001:00046275       __ehhandler$?OnContextMenu@DisassemblerGui@@IAEXVCWindow@ATL@@VCPoint@@@Z 00447275 f   DisassemblerGui.obj
 0001:00046290       __unwindfunclet$??0DumpMemoryGui@@QAE@XZ$0 00447290 f   DumpMemoryGui.obj
 0001:00046298       __unwindfunclet$??0DumpMemoryGui@@QAE@XZ$1 00447298 f   DumpMemoryGui.obj
 0001:000462a3       __unwindfunclet$??0DumpMemoryGui@@QAE@XZ$2 004472a3 f   DumpMemoryGui.obj
 0001:000462b1       __unwindfunclet$??0DumpMemoryGui@@QAE@XZ$3 004472b1 f   DumpMemoryGui.obj
 0001:000462bf       __unwindfunclet$??0DumpMemoryGui@@QAE@XZ$4 004472bf f   DumpMemoryGui.obj
 0001:000462cd       __unwindfunclet$??0DumpMemoryGui@@QAE@XZ$5 004472cd f   DumpMemoryGui.obj
 0001:000462dc       __unwindfunclet$??0DumpMemoryGui@@QAE@XZ$10 004472dc f   DumpMemoryGui.obj
 0001:000462e4       __ehhandler$??0DumpMemoryGui@@QAE@XZ 004472e4 f   DumpMemoryGui.obj
 0001:00046300       __unwindfunclet$?getAllSectionsFromFile@DumpSectionGui@@AAEXXZ$0 00447300 f   DumpSectionGui.obj
 0001:0004630b       __ehhandler$?getAllSectionsFromFile@DumpSectionGui@@AAEXXZ 0044730b f   DumpSectionGui.obj
 0001:00046340       __unwindfunclet$??0ProcessLister@@QAE@XZ$0 00447340 f   FunctionExport.obj
 0001:00046345       __unwindfunclet$??0ProcessLister@@QAE@XZ$1 00447345 f   FunctionExport.obj
 0001:00046354       __unwindfunclet$??0ProcessLister@@QAE@XZ$3 00447354 f   FunctionExport.obj
 0001:0004635c       __ehhandler$??0ProcessLister@@QAE@XZ 0044735c f   FunctionExport.obj
 0001:00046380       __unwindfunclet$?erase@?$_Tree@V?$_Tmap_traits@KVImportModuleThunk@@U?$less@K@std@@V?$allocator@U?$pair@$$CBKVImportModuleThunk@@@std@@@3@$0A@@std@@@std@@QAE?AV?$_Tree_iterator@V?$_Tree_val@U?$_Tree_simple_types@U?$pair@$$CBKVImportModuleThunk@@@std@@@std@@@std@@@2@V?$_Tree_const_iterator@V?$_Tree_val@U?$_Tree_simple_types@U?$pair@$$CBKVImportModuleThunk@@@std@@@std@@@std@@@2@0@Z$16 00447380 f   FunctionExport.obj
 0001:00046386       __ehhandler$?erase@?$_Tree@V?$_Tmap_traits@KVImportModuleThunk@@U?$less@K@std@@V?$allocator@U?$pair@$$CBKVImportModuleThunk@@@std@@@3@$0A@@std@@@std@@QAE?AV?$_Tree_iterator@V?$_Tree_val@U?$_Tree_simple_types@U?$pair@$$CBKVImportModuleThunk@@@std@@@std@@@std@@@2@V?$_Tree_const_iterator@V?$_Tree_val@U?$_Tree_simple_types@U?$pair@$$CBKVImportModuleThunk@@@std@@@std@@@std@@@2@0@Z 00447386 f   FunctionExport.obj
 0001:000463b0       __unwindfunclet$?numberOfDirectImportApisNotInIat@IATReferenceScan@@QAEHXZ$0 004473b0 f   IATReferenceScan.obj
 0001:000463b0       __unwindfunclet$?numberOfFoundUniqueDirectImports@IATReferenceScan@@QAEHXZ$0 004473b0 f   IATReferenceScan.obj
 0001:000463b8       __ehhandler$?numberOfFoundUniqueDirectImports@IATReferenceScan@@QAEHXZ 004473b8 f   IATReferenceScan.obj
 0001:000463b8       __ehhandler$?numberOfDirectImportApisNotInIat@IATReferenceScan@@QAEHXZ 004473b8 f   IATReferenceScan.obj
 0001:000463e0       __unwindfunclet$?patchDirectJumpTable@IATReferenceScan@@QAEXKKPAVPeParser@@PAEK@Z$0 004473e0 f   IATReferenceScan.obj
 0001:000463e8       __ehhandler$?patchDirectJumpTable@IATReferenceScan@@QAEXKKPAVPeParser@@PAEK@Z 004473e8 f   IATReferenceScan.obj
 0001:00046410       __unwindfunclet$?addAdditionalApisToList@IATReferenceScan@@QAEKXZ$0 00447410 f   IATReferenceScan.obj
 0001:00046418       __ehhandler$?addAdditionalApisToList@IATReferenceScan@@QAEKXZ 00447418 f   IATReferenceScan.obj
 0001:00046440       __ehhandler$??$_Insert_nohint@ABKU_Nil@std@@@?$_Tree@V?$_Tset_traits@KU?$less@K@std@@V?$allocator@K@2@$0A@@std@@@std@@IAE?AU?$pair@V?$_Tree_const_iterator@V?$_Tree_val@U?$_Tree_simple_types@K@std@@@std@@@std@@_N@1@_NABKU_Nil@1@@Z 00447440 f   IATReferenceScan.obj
 0001:00046440       __ehhandler$??$_Insert_nohint@KU_Nil@std@@@?$_Tree@V?$_Tset_traits@KU?$less@K@std@@V?$allocator@K@2@$0A@@std@@@std@@IAE?AU?$pair@V?$_Tree_const_iterator@V?$_Tree_val@U?$_Tree_simple_types@K@std@@@std@@@std@@_N@1@_N$$QAKU_Nil@1@@Z 00447440 f   IATSearch.obj
 0001:00046460       __unwindfunclet$?findIATAdvanced@IATSearch@@AAE_NKPAK0@Z$0 00447460 f   IATSearch.obj
 0001:00046468       __ehhandler$?findIATAdvanced@IATSearch@@AAE_NKPAK0@Z 00447468 f   IATSearch.obj
 0001:00046490       __unwindfunclet$?rebuildImportTable@ImportRebuilder@@QAE_NPB_WAAV?$map@KVImportModuleThunk@@U?$less@K@std@@V?$allocator@U?$pair@$$CBKVImportModuleThunk@@@std@@@3@@std@@@Z$0 00447490 f   ImportRebuilder.obj
 0001:00046498       __ehhandler$?rebuildImportTable@ImportRebuilder@@QAE_NPB_WAAV?$map@KVImportModuleThunk@@U?$less@K@std@@V?$allocator@U?$pair@$$CBKVImportModuleThunk@@@std@@@3@@std@@@Z 00447498 f   ImportRebuilder.obj
 0001:000464c0       __unwindfunclet$??$_Buynode@AAU?$pair@$$CBKVImportModuleThunk@@@std@@@?$_Tree_comp_alloc@V?$_Tmap_traits@KVImportModuleThunk@@U?$less@K@std@@V?$allocator@U?$pair@$$CBKVImportModuleThunk@@@std@@@3@$0A@@std@@@std@@QAEPAU?$_Tree_node@U?$pair@$$CBKVImportModuleThunk@@@std@@PAX@1@AAU?$pair@$$CBKVImportModuleThunk@@@1@@Z$9 004474c0 f   ImportRebuilder.obj
 0001:000464c5       __ehhandler$??$_Buynode@AAU?$pair@$$CBKVImportModuleThunk@@@std@@@?$_Tree_comp_alloc@V?$_Tmap_traits@KVImportModuleThunk@@U?$less@K@std@@V?$allocator@U?$pair@$$CBKVImportModuleThunk@@@std@@@3@$0A@@std@@@std@@QAEPAU?$_Tree_node@U?$pair@$$CBKVImportModuleThunk@@@std@@PAX@1@AAU?$pair@$$CBKVImportModuleThunk@@@1@@Z 004474c5 f   ImportRebuilder.obj
 0001:000464e0       __ehhandler$??$_Insert_hint@AAU?$pair@$$CBKVImportModuleThunk@@@std@@PAU?$_Tree_node@U?$pair@$$CBKVImportModuleThunk@@@std@@PAX@2@@?$_Tree@V?$_Tmap_traits@KVImportModuleThunk@@U?$less@K@std@@V?$allocator@U?$pair@$$CBKVImportModuleThunk@@@std@@@3@$0A@@std@@@std@@IAE?AV?$_Tree_iterator@V?$_Tree_val@U?$_Tree_simple_types@U?$pair@$$CBKVImportModuleThunk@@@std@@@std@@@std@@@1@V?$_Tree_const_iterator@V?$_Tree_val@U?$_Tree_simple_types@U?$pair@$$CBKVImportModuleThunk@@@std@@@std@@@std@@@1@AAU?$pair@$$CBKVImportModuleThunk@@@1@PAU?$_Tree_node@U?$pair@$$CBKVImportModuleThunk@@@std@@PAX@1@@Z 004474e0 f   ImportRebuilder.obj
 0001:00046500       __unwindfunclet$??0ImportsHandling@@QAE@AAVCMultiSelectTreeViewCtrl@@@Z$0 00447500 f   ImportsHandling.obj
 0001:00046508       __unwindfunclet$??0ImportsHandling@@QAE@AAVCMultiSelectTreeViewCtrl@@@Z$1 00447508 f   ImportsHandling.obj
 0001:00046513       __ehhandler$??0ImportsHandling@@QAE@AAVCMultiSelectTreeViewCtrl@@@Z 00447513 f   ImportsHandling.obj
 0001:00046530       __unwindfunclet$?displayAllImports@ImportsHandling@@QAEXXZ$1 00447530 f   ImportsHandling.obj
 0001:00046536       __ehhandler$?displayAllImports@ImportsHandling@@QAEXXZ 00447536 f   ImportsHandling.obj
 0001:00046560       __unwindfunclet$?clearAllImports@ImportsHandling@@QAEXXZ$0 00447560 f   ImportsHandling.obj
 0001:00046566       __unwindfunclet$?clearAllImports@ImportsHandling@@QAEXXZ$34 00447566 f   ImportsHandling.obj
 0001:0004656c       __ehhandler$?clearAllImports@ImportsHandling@@QAEXXZ 0044756c f   ImportsHandling.obj
 0001:00046590       __unwindfunclet$?scanAndFixModuleList@ImportsHandling@@QAEXXZ$35 00447590 f   ImportsHandling.obj
 0001:00046596       __unwindfunclet$?scanAndFixModuleList@ImportsHandling@@QAEXXZ$75 00447596 f   ImportsHandling.obj
 0001:0004659c       __unwindfunclet$?scanAndFixModuleList@ImportsHandling@@QAEXXZ$120 0044759c f   ImportsHandling.obj
 0001:000465a2       __ehhandler$?scanAndFixModuleList@ImportsHandling@@QAEXXZ 004475a2 f   ImportsHandling.obj
 0001:000465d0       __unwindfunclet$?addModuleToModuleList@ImportsHandling@@AAE_NPB_WK@Z$0 004475d0 f   ImportsHandling.obj
 0001:000465db       __ehhandler$?addModuleToModuleList@ImportsHandling@@AAE_NPB_WK@Z 004475db f   ImportsHandling.obj
 0001:00046610       __unwindfunclet$?addUnknownModuleToModuleList@ImportsHandling@@AAEXK@Z$0 00447610 f   ImportsHandling.obj
 0001:0004661b       __ehhandler$?addUnknownModuleToModuleList@ImportsHandling@@AAEXK@Z 0044761b f   ImportsHandling.obj
 0001:00046650       __ehhandler$??_GCComModule@ATL@@UAEPAXI@Z 00447650 f   main.obj
 0001:00046650       __ehhandler$??_GCAppModule@WTL@@UAEPAXI@Z 00447650 f   main.obj
 0001:00046650       __ehhandler$?clear@?$_Hash@V?$_Hmap_traits@PAU_TREEITEM@@UTreeItemData@ImportsHandling@@V?$hash_compare@PAU_TREEITEM@@U?$less@PAU_TREEITEM@@@std@@@stdext@@V?$allocator@U?$pair@QAU_TREEITEM@@UTreeItemData@ImportsHandling@@@std@@@std@@$0A@@stdext@@@std@@QAEXXZ 00447650 f   ImportsHandling.obj
 0001:00046670       __unwindfunclet$??0?$hash_map@PAU_TREEITEM@@UTreeItemData@ImportsHandling@@V?$hash_compare@PAU_TREEITEM@@U?$less@PAU_TREEITEM@@@std@@@stdext@@V?$allocator@U?$pair@QAU_TREEITEM@@UTreeItemData@ImportsHandling@@@std@@@std@@@stdext@@QAE@XZ$2 00447670 f   ImportsHandling.obj
 0001:0004667b       __unwindfunclet$??0?$hash_map@PAU_TREEITEM@@UTreeItemData@ImportsHandling@@V?$hash_compare@PAU_TREEITEM@@U?$less@PAU_TREEITEM@@@std@@@stdext@@V?$allocator@U?$pair@QAU_TREEITEM@@UTreeItemData@ImportsHandling@@@std@@@std@@@stdext@@QAE@XZ$3 0044767b f   ImportsHandling.obj
 0001:00046686       __ehhandler$??0?$hash_map@PAU_TREEITEM@@UTreeItemData@ImportsHandling@@V?$hash_compare@PAU_TREEITEM@@U?$less@PAU_TREEITEM@@@std@@@stdext@@V?$allocator@U?$pair@QAU_TREEITEM@@UTreeItemData@ImportsHandling@@@std@@@std@@@stdext@@QAE@XZ 00447686 f   ImportsHandling.obj
 0001:000466b0       __ehhandler$??$_Copy_nodes@U_Copy_tag@?$_Tree@V?$_Tmap_traits@KVImportModuleThunk@@U?$less@K@std@@V?$allocator@U?$pair@$$CBKVImportModuleThunk@@@std@@@3@$0A@@std@@@std@@@?$_Tree@V?$_Tmap_traits@KVImportModuleThunk@@U?$less@K@std@@V?$allocator@U?$pair@$$CBKVImportModuleThunk@@@std@@@3@$0A@@std@@@std@@IAEPAU?$_Tree_node@U?$pair@$$CBKVImportModuleThunk@@@std@@PAX@1@PAU21@0U_Copy_tag@01@@Z 004476b0 f   ImportsHandling.obj
 0001:000466d0       __ehhandler$??$_Insert@AAU?$pair@QAU_TREEITEM@@UTreeItemData@ImportsHandling@@@std@@V?$_List_unchecked_iterator@V?$_List_val@U?$_List_simple_types@U?$pair@QAU_TREEITEM@@UTreeItemData@ImportsHandling@@@std@@@std@@@std@@@2@@?$_Hash@V?$_Hmap_traits@PAU_TREEITEM@@UTreeItemData@ImportsHandling@@V?$hash_compare@PAU_TREEITEM@@U?$less@PAU_TREEITEM@@@std@@@stdext@@V?$allocator@U?$pair@QAU_TREEITEM@@UTreeItemData@ImportsHandling@@@std@@@std@@$0A@@stdext@@@std@@IAE?AU?$pair@V?$_List_iterator@V?$_List_val@U?$_List_simple_types@U?$pair@QAU_TREEITEM@@UTreeItemData@ImportsHandling@@@std@@@std@@@std@@@std@@_N@1@AAU?$pair@QAU_TREEITEM@@UTreeItemData@ImportsHandling@@@1@V?$_List_unchecked_iterator@V?$_List_val@U?$_List_simple_types@U?$pair@QAU_TREEITEM@@UTreeItemData@ImportsHandling@@@std@@@std@@@std@@@1@@Z 004476d0 f   ImportsHandling.obj
 0001:000466f0       __ehhandler$??$_Insert_hint@AAU?$pair@$$CBKVImportThunk@@@std@@PAU?$_Tree_node@U?$pair@$$CBKVImportThunk@@@std@@PAX@2@@?$_Tree@V?$_Tmap_traits@KVImportThunk@@U?$less@K@std@@V?$allocator@U?$pair@$$CBKVImportThunk@@@std@@@3@$0A@@std@@@std@@IAE?AV?$_Tree_iterator@V?$_Tree_val@U?$_Tree_simple_types@U?$pair@$$CBKVImportThunk@@@std@@@std@@@std@@@1@V?$_Tree_const_iterator@V?$_Tree_val@U?$_Tree_simple_types@U?$pair@$$CBKVImportThunk@@@std@@@std@@@std@@@1@AAU?$pair@$$CBKVImportThunk@@@1@PAU?$_Tree_node@U?$pair@$$CBKVImportThunk@@@std@@PAX@1@@Z 004476f0 f   ImportsHandling.obj
 0001:00046710       __unwindfunclet$??$_Buynode@ABUpiecewise_construct_t@std@@V?$tuple@ABK@2@V?$tuple@$$V@2@@?$_Tree_comp_alloc@V?$_Tmap_traits@KVImportModuleThunk@@U?$less@K@std@@V?$allocator@U?$pair@$$CBKVImportModuleThunk@@@std@@@3@$0A@@std@@@std@@QAEPAU?$_Tree_node@U?$pair@$$CBKVImportModuleThunk@@@std@@PAX@1@ABUpiecewise_construct_t@1@$$QAV?$tuple@ABK@1@$$QAV?$tuple@$$V@1@@Z$15 00447710 f   ImportsHandling.obj
 0001:00046715       __ehhandler$??$_Buynode@ABUpiecewise_construct_t@std@@V?$tuple@ABK@2@V?$tuple@$$V@2@@?$_Tree_comp_alloc@V?$_Tmap_traits@KVImportModuleThunk@@U?$less@K@std@@V?$allocator@U?$pair@$$CBKVImportModuleThunk@@@std@@@3@$0A@@std@@@std@@QAEPAU?$_Tree_node@U?$pair@$$CBKVImportModuleThunk@@@std@@PAX@1@ABUpiecewise_construct_t@1@$$QAV?$tuple@ABK@1@$$QAV?$tuple@$$V@1@@Z 00447715 f   ImportsHandling.obj
 0001:00046730       __unwindfunclet$?write@Logger@@MAEXPBD@Z$0 00447730 f   Logger.obj
 0001:0004673b       __ehhandler$?write@Logger@@MAEXPBD@Z 0044773b f   Logger.obj
 0001:00046770       __unwindfunclet$?Add@CExpansionVector@ATL@@QAEHPB_W0@Z$0 00447770 f   main.obj
 0001:00046778       __unwindfunclet$?Add@CExpansionVector@ATL@@QAEHPB_W0@Z$1 00447778 f   main.obj
 0001:00046780       __ehhandler$?Add@CExpansionVector@ATL@@QAEHPB_W0@Z 00447780 f   main.obj
 0001:000467a0       __unwindfunclet$?AddReplacement@CRegObject@ATL@@UAGJPB_W0@Z$0 004477a0 f   main.obj
 0001:000467a8       __ehhandler$?AddReplacement@CRegObject@ATL@@UAGJPB_W0@Z 004477a8 f   main.obj
 0001:000467d0       __unwindfunclet$?RegisterFromResource@CRegObject@ATL@@IAEJPB_W00H@Z$8 004477d0 f   main.obj
 0001:000467db       __unwindfunclet$?RegisterFromResource@CRegObject@ATL@@IAEJPB_W00H@Z$9 004477db f   main.obj
 0001:000467e6       __ehhandler$?RegisterFromResource@CRegObject@ATL@@IAEJPB_W00H@Z 004477e6 f   main.obj
 0001:00046810       __unwindfunclet$?ResourceUnregisterSz@CRegObject@ATL@@QAGJPB_W00@Z$0 00447810 f   main.obj
 0001:00046810       __unwindfunclet$?ResourceRegisterSz@CRegObject@ATL@@QAGJPB_W00@Z$0 00447810 f   main.obj
 0001:00046818       __ehhandler$?ResourceRegisterSz@CRegObject@ATL@@QAGJPB_W00@Z 00447818 f   main.obj
 0001:00046818       __ehhandler$?ResourceUnregisterSz@CRegObject@ATL@@QAGJPB_W00@Z 00447818 f   main.obj
 0001:00046840       __unwindfunclet$?AddValue@CRegParser@ATL@@IAEJAAVCRegKey@2@PB_WPA_W@Z$6 00447840 f   main.obj
 0001:0004684b       __unwindfunclet$?AddValue@CRegParser@ATL@@IAEJAAVCRegKey@2@PB_WPA_W@Z$4 0044784b f   main.obj
 0001:00046856       __ehhandler$?AddValue@CRegParser@ATL@@IAEJAAVCRegKey@2@PB_WPA_W@Z 00447856 f   main.obj
 0001:00046880       __unwindfunclet$?PreProcessBuffer@CRegParser@ATL@@QAEJPA_WPAPA_W@Z$0 00447880 f   main.obj
 0001:00046888       __unwindfunclet$?PreProcessBuffer@CRegParser@ATL@@QAEJPA_WPAPA_W@Z$3 00447888 f   main.obj
 0001:00046890       __unwindfunclet$?PreProcessBuffer@CRegParser@ATL@@QAEJPA_WPAPA_W@Z$6 00447890 f   main.obj
 0001:00046898       __unwindfunclet$?PreProcessBuffer@CRegParser@ATL@@QAEJPA_WPAPA_W@Z$9 00447898 f   main.obj
 0001:000468a0       __ehhandler$?PreProcessBuffer@CRegParser@ATL@@QAEJPA_WPAPA_W@Z 004478a0 f   main.obj
 0001:000468d0       __unwindfunclet$?RegisterSubkeys@CRegParser@ATL@@IAEJPA_WPAUHKEY__@@HH@Z$2 004478d0 f   main.obj
 0001:000468db       __unwindfunclet$?RegisterSubkeys@CRegParser@ATL@@IAEJPA_WPAUHKEY__@@HH@Z$4 004478db f   main.obj
 0001:000468e6       __ehhandler$?RegisterSubkeys@CRegParser@ATL@@IAEJPA_WPAUHKEY__@@HH@Z 004478e6 f   main.obj
 0001:00046910       __ehhandler$?Init@CAppModule@WTL@@QAEJPAU_ATL_OBJMAP_ENTRY30@ATL@@PAUHINSTANCE__@@PBU_GUID@@@Z 00447910 f   main.obj
 0001:00046930       __unwindfunclet$?InitializeGui@@YAHPAUHINSTANCE__@@J@Z$0 00447930 f   main.obj
 0001:0004693b       __unwindfunclet$?InitializeGui@@YAHPAUHINSTANCE__@@J@Z$1 0044793b f   main.obj
 0001:00046946       __ehhandler$?InitializeGui@@YAHPAUHINSTANCE__@@J@Z 00447946 f   main.obj
 0001:00046970       __unwindfunclet$??0MainGui@@QAE@XZ$0 00447970 f   MainGui.obj
 0001:00046978       __unwindfunclet$??0MainGui@@QAE@XZ$1 00447978 f   MainGui.obj
 0001:00046983       __ehhandler$??0MainGui@@QAE@XZ 00447983 f   MainGui.obj
 0001:000469a0       __unwindfunclet$?pickDllActionHandler@MainGui@@IAEXXZ$0 004479a0 f   MainGui.obj
 0001:000469ab       __ehhandler$?pickDllActionHandler@MainGui@@IAEXXZ 004479ab f   MainGui.obj
 0001:000469e0       __unwindfunclet$?pickApiActionHandler@MainGui@@IAEXV?$CTreeItemT@VCWindow@ATL@@@WTL@@@Z$0 004479e0 f   MainGui.obj
 0001:000469e8       __ehhandler$?pickApiActionHandler@MainGui@@IAEXV?$CTreeItemT@VCWindow@ATL@@@WTL@@@Z 004479e8 f   MainGui.obj
 0001:00046a10       __ehhandler$?saveLogToFile@MainGui@@IAE_NPB_W@Z 00447a10 f   MainGui.obj
 0001:00046a40       __unwindfunclet$?DisplayContextMenuImports@MainGui@@IAEXVCWindow@ATL@@VCPoint@@@Z$0 00447a40 f   MainGui.obj
 0001:00046a45       __ehhandler$?DisplayContextMenuImports@MainGui@@IAEXVCWindow@ATL@@VCPoint@@@Z 00447a45 f   MainGui.obj
 0001:00046a70       __unwindfunclet$?DisplayContextMenuLog@MainGui@@IAEXVCWindow@ATL@@VCPoint@@@Z$0 00447a70 f   MainGui.obj
 0001:00046a75       __ehhandler$?DisplayContextMenuLog@MainGui@@IAEXVCWindow@ATL@@VCPoint@@@Z 00447a75 f   MainGui.obj
 0001:00046aa0       __unwindfunclet$?dumpMemoryActionHandler@MainGui@@IAEXXZ$0 00447aa0 f   MainGui.obj
 0001:00046aab       __ehhandler$?dumpMemoryActionHandler@MainGui@@IAEXXZ 00447aab f   MainGui.obj
 0001:00046ae0       __unwindfunclet$?dumpSectionActionHandler@MainGui@@IAEXXZ$0 00447ae0 f   MainGui.obj
 0001:00046aeb       __unwindfunclet$?dumpSectionActionHandler@MainGui@@IAEXXZ$1 00447aeb f   MainGui.obj
 0001:00046afd       __unwindfunclet$?dumpSectionActionHandler@MainGui@@IAEXXZ$2 00447afd f   MainGui.obj
 0001:00046b0f       __ehhandler$?dumpSectionActionHandler@MainGui@@IAEXXZ 00447b0f f   MainGui.obj
 0001:00046b40       __unwindfunclet$?dumpActionHandler@MainGui@@IAEXXZ$0 00447b40 f   MainGui.obj
 0001:00046b52       __unwindfunclet$?dumpActionHandler@MainGui@@IAEXXZ$1 00447b52 f   MainGui.obj
 0001:00046b64       __ehhandler$?dumpActionHandler@MainGui@@IAEXXZ 00447b64 f   MainGui.obj
 0001:00046b90       __unwindfunclet$?peRebuildActionHandler@MainGui@@IAEXXZ$0 00447b90 f   MainGui.obj
 0001:00046b9b       __ehhandler$?peRebuildActionHandler@MainGui@@IAEXXZ 00447b9b f   MainGui.obj
 0001:00046bd0       __unwindfunclet$?dumpFixActionHandler@MainGui@@IAEXXZ$0 00447bd0 f   MainGui.obj
 0001:00046bdb       __ehhandler$?dumpFixActionHandler@MainGui@@IAEXXZ 00447bdb f   MainGui.obj
 0001:00046c10       __unwindfunclet$?pluginActionHandler@MainGui@@IAEXH@Z$0 00447c10 f   MainGui.obj
 0001:00046c18       __ehhandler$?pluginActionHandler@MainGui@@IAEXH@Z 00447c18 f   MainGui.obj
 0001:00046c40       __unwindfunclet$??0PeParser@@QAE@K_N@Z$0 00447c40 f   PeParser.obj
 0001:00046c40       __unwindfunclet$??0PeParser@@QAE@PB_W_N@Z$0 00447c40 f   PeParser.obj
 0001:00046c4b       __ehhandler$??0PeParser@@QAE@K_N@Z 00447c4b f   PeParser.obj
 0001:00046c4b       __ehhandler$??0PeParser@@QAE@PB_W_N@Z 00447c4b f   PeParser.obj
 0001:00046c70       __unwindfunclet$?OnApiFilterUpdated@PickApiGui@@IAEXIHVCWindow@ATL@@@Z$0 00447c70 f   PickApiGui.obj
 0001:00046c7b       __unwindfunclet$?OnApiFilterUpdated@PickApiGui@@IAEXIHVCWindow@ATL@@@Z$1 00447c7b f   PickApiGui.obj
 0001:00046c86       __ehhandler$?OnApiFilterUpdated@PickApiGui@@IAEXIHVCWindow@ATL@@@Z 00447c86 f   PickApiGui.obj
 0001:00046cb0       __unwindfunclet$?getEntryPointFromFile@ProcessAccessHelp@@SAKPB_W@Z$1 00447cb0 f   ProcessAccessHelp.obj
 0001:00046cb0       __unwindfunclet$?isValidDllFile@PluginLoader@@CA_NPB_W@Z$1 00447cb0 f   PluginLoader.obj
 0001:00046cb8       __ehhandler$?getEntryPointFromFile@ProcessAccessHelp@@SAKPB_W@Z 00447cb8 f   ProcessAccessHelp.obj
 0001:00046cb8       __ehhandler$?isValidDllFile@PluginLoader@@CA_NPB_W@Z 00447cb8 f   PluginLoader.obj
 0001:00046ce0       __unwindfunclet$?getProcessModules@ProcessAccessHelp@@SA_NPAXAAV?$vector@VModuleInfo@@V?$allocator@VModuleInfo@@@std@@@std@@@Z$0 00447ce0 f   ProcessAccessHelp.obj
 0001:00046ceb       __unwindfunclet$?getProcessModules@ProcessAccessHelp@@SA_NPAXAAV?$vector@VModuleInfo@@V?$allocator@VModuleInfo@@@std@@@std@@@Z$3 00447ceb f   ProcessAccessHelp.obj
 0001:00046cf6       __unwindfunclet$?getProcessModules@ProcessAccessHelp@@SA_NPAXAAV?$vector@VModuleInfo@@V?$allocator@VModuleInfo@@@std@@@std@@@Z$1 00447cf6 f   ProcessAccessHelp.obj
 0001:00046d01       __ehhandler$?getProcessModules@ProcessAccessHelp@@SA_NPAXAAV?$vector@VModuleInfo@@V?$allocator@VModuleInfo@@@std@@@std@@@Z 00447d01 f   ProcessAccessHelp.obj
 0001:00046d30       __unwindfunclet$?push_back@?$vector@VModuleInfo@@V?$allocator@VModuleInfo@@@std@@@std@@QAEXABVModuleInfo@@@Z$33 00447d30 f   ProcessAccessHelp.obj
 0001:00046d35       __unwindfunclet$?push_back@?$vector@VModuleInfo@@V?$allocator@VModuleInfo@@@std@@@std@@QAEXABVModuleInfo@@@Z$58 00447d35 f   ProcessAccessHelp.obj
 0001:00046d3a       __ehhandler$?push_back@?$vector@VModuleInfo@@V?$allocator@VModuleInfo@@@std@@@std@@QAEXABVModuleInfo@@@Z 00447d3a f   ProcessAccessHelp.obj
 0001:00046d60       __unwindfunclet$?exportTreeList@TreeImportExport@@QAE_NABV?$map@KVImportModuleThunk@@U?$less@K@std@@V?$allocator@U?$pair@$$CBKVImportModuleThunk@@@std@@@3@@std@@PBVProcess@@KKK@Z$0 00447d60 f   TreeImportExport.obj
 0001:00046d68       __unwindfunclet$?exportTreeList@TreeImportExport@@QAE_NABV?$map@KVImportModuleThunk@@U?$less@K@std@@V?$allocator@U?$pair@$$CBKVImportModuleThunk@@@std@@@3@@std@@PBVProcess@@KKK@Z$1 00447d68 f   TreeImportExport.obj
 0001:00046d77       __unwindfunclet$?exportTreeList@TreeImportExport@@QAE_NABV?$map@KVImportModuleThunk@@U?$less@K@std@@V?$allocator@U?$pair@$$CBKVImportModuleThunk@@@std@@@3@@std@@PBVProcess@@KKK@Z$2 00447d77 f   TreeImportExport.obj
 0001:00046d86       __ehhandler$?exportTreeList@TreeImportExport@@QAE_NABV?$map@KVImportModuleThunk@@U?$less@K@std@@V?$allocator@U?$pair@$$CBKVImportModuleThunk@@@std@@@3@@std@@PBVProcess@@KKK@Z 00447d86 f   TreeImportExport.obj
 0001:00046db0       __unwindfunclet$?importTreeList@TreeImportExport@@QAE_NAAV?$map@KVImportModuleThunk@@U?$less@K@std@@V?$allocator@U?$pair@$$CBKVImportModuleThunk@@@std@@@3@@std@@PAK11@Z$1 00447db0 f   TreeImportExport.obj
 0001:00046db6       __unwindfunclet$?importTreeList@TreeImportExport@@QAE_NAAV?$map@KVImportModuleThunk@@U?$less@K@std@@V?$allocator@U?$pair@$$CBKVImportModuleThunk@@@std@@@3@@std@@PAK11@Z$0 00447db6 f   TreeImportExport.obj
 0001:00046dbe       __ehhandler$?importTreeList@TreeImportExport@@QAE_NAAV?$map@KVImportModuleThunk@@U?$less@K@std@@V?$allocator@U?$pair@$$CBKVImportModuleThunk@@@std@@@3@@std@@PAK11@Z 00447dbe f   TreeImportExport.obj
 0001:00046de0       __unwindfunclet$?getModuleXmlElement@TreeImportExport@@AAEPAVTiXmlElement@@PBVImportModuleThunk@@@Z$0 00447de0 f   TreeImportExport.obj
 0001:00046df2       __ehhandler$?getModuleXmlElement@TreeImportExport@@AAEPAVTiXmlElement@@PBVImportModuleThunk@@@Z 00447df2 f   TreeImportExport.obj
 0001:00046e20       __unwindfunclet$?getImportXmlElement@TreeImportExport@@AAEPAVTiXmlElement@@PBVImportThunk@@@Z$0 00447e20 f   TreeImportExport.obj
 0001:00046e2f       __unwindfunclet$?getImportXmlElement@TreeImportExport@@AAEPAVTiXmlElement@@PBVImportThunk@@@Z$1 00447e2f f   TreeImportExport.obj
 0001:00046e3e       __ehhandler$?getImportXmlElement@TreeImportExport@@AAEPAVTiXmlElement@@PBVImportThunk@@@Z 00447e3e f   TreeImportExport.obj
 0001:00046e60       __unwindfunclet$?parseAllElementModules@TreeImportExport@@AAEXPAVTiXmlElement@@AAV?$map@KVImportModuleThunk@@U?$less@K@std@@V?$allocator@U?$pair@$$CBKVImportModuleThunk@@@std@@@3@@std@@@Z$0 00447e60 f   TreeImportExport.obj
 0001:00046e6b       __unwindfunclet$?parseAllElementModules@TreeImportExport@@AAEXPAVTiXmlElement@@AAV?$map@KVImportModuleThunk@@U?$less@K@std@@V?$allocator@U?$pair@$$CBKVImportModuleThunk@@@std@@@3@@std@@@Z$11 00447e6b f   TreeImportExport.obj
 0001:00046e71       __ehhandler$?parseAllElementModules@TreeImportExport@@AAEXPAVTiXmlElement@@AAV?$map@KVImportModuleThunk@@U?$less@K@std@@V?$allocator@U?$pair@$$CBKVImportModuleThunk@@@std@@@3@@std@@@Z 00447e71 f   TreeImportExport.obj
 0001:00046ea0       __unwindfunclet$??0TiXmlText@@QAE@PBD@Z$0 00447ea0 f   tinyxml:tinyxml.obj
 0001:00046ea8       __ehhandler$??0TiXmlText@@QAE@PBD@Z 00447ea8 f   tinyxml:tinyxml.obj
 0001:00046ed0       __unwindfunclet$??0TiXmlElement@@QAE@PBD@Z$0 00447ed0 f   tinyxml:tinyxml.obj
 0001:00046ed8       __unwindfunclet$??0TiXmlElement@@QAE@PBD@Z$1 00447ed8 f   tinyxml:tinyxml.obj
 0001:00046ee3       __ehhandler$??0TiXmlElement@@QAE@PBD@Z 00447ee3 f   tinyxml:tinyxml.obj
 0001:00046f00       __unwindfunclet$?Clone@TiXmlElement@@UBEPAVTiXmlNode@@XZ$0 00447f00 f   tinyxml:tinyxml.obj
 0001:00046f0f       __ehhandler$?Clone@TiXmlElement@@UBEPAVTiXmlNode@@XZ 00447f0f f   tinyxml:tinyxml.obj
 0001:00046f30       __unwindfunclet$??0TiXmlDocument@@QAE@XZ$0 00447f30 f   tinyxml:tinyxml.obj
 0001:00046f38       __unwindfunclet$??0TiXmlDocument@@QAE@XZ$1 00447f38 f   tinyxml:tinyxml.obj
 0001:00046f43       __ehhandler$??0TiXmlDocument@@QAE@XZ 00447f43 f   tinyxml:tinyxml.obj
 0001:00046f60       __unwindfunclet$?Clone@TiXmlDocument@@MBEPAVTiXmlNode@@XZ$0 00447f60 f   tinyxml:tinyxml.obj
 0001:00046f6f       __ehhandler$?Clone@TiXmlDocument@@MBEPAVTiXmlNode@@XZ 00447f6f f   tinyxml:tinyxml.obj
 0001:00046f90       __unwindfunclet$?Print@TiXmlAttribute@@QBEXPAU_iobuf@@HPAVTiXmlString@@@Z$0 00447f90 f   tinyxml:tinyxml.obj
 0001:00046f98       __unwindfunclet$?Print@TiXmlAttribute@@QBEXPAU_iobuf@@HPAVTiXmlString@@@Z$1 00447f98 f   tinyxml:tinyxml.obj
 0001:00046fa0       __ehhandler$?Print@TiXmlAttribute@@QBEXPAU_iobuf@@HPAVTiXmlString@@@Z 00447fa0 f   tinyxml:tinyxml.obj
 0001:00046fc0       __unwindfunclet$?Print@TiXmlText@@UBEXPAU_iobuf@@H@Z$0 00447fc0 f   tinyxml:tinyxml.obj
 0001:00046fc0       __unwindfunclet$?assign@TiXmlString@@QAEAAV1@PBDI@Z$0 00447fc0 f   tinyxml:tinystr.obj
 0001:00046fc8       __ehhandler$?assign@TiXmlString@@QAEAAV1@PBDI@Z 00447fc8 f   tinyxml:tinystr.obj
 0001:00046fc8       __ehhandler$?Print@TiXmlText@@UBEXPAU_iobuf@@H@Z 00447fc8 f   tinyxml:tinyxml.obj
 0001:00046ff0       __unwindfunclet$?Clone@TiXmlText@@MBEPAVTiXmlNode@@XZ$0 00447ff0 f   tinyxml:tinyxml.obj
 0001:00046fff       __ehhandler$?Clone@TiXmlText@@MBEPAVTiXmlNode@@XZ 00447fff f   tinyxml:tinyxml.obj
 0001:00047020       __unwindfunclet$??0TiXmlDeclaration@@QAE@PBD00@Z$0 00448020 f   tinyxml:tinyxml.obj
 0001:00047028       __unwindfunclet$??0TiXmlDeclaration@@QAE@PBD00@Z$1 00448028 f   tinyxml:tinyxml.obj
 0001:00047033       __unwindfunclet$??0TiXmlDeclaration@@QAE@PBD00@Z$2 00448033 f   tinyxml:tinyxml.obj
 0001:0004703e       __unwindfunclet$??0TiXmlDeclaration@@QAE@PBD00@Z$3 0044803e f   tinyxml:tinyxml.obj
 0001:00047049       __ehhandler$??0TiXmlDeclaration@@QAE@PBD00@Z 00448049 f   tinyxml:tinyxml.obj
 0001:00047070       __unwindfunclet$?reserve@TiXmlString@@QAEXI@Z$0 00448070 f   tinyxml:tinystr.obj
 0001:00047078       __ehhandler$?reserve@TiXmlString@@QAEXI@Z 00448078 f   tinyxml:tinystr.obj
 0001:000470a0       __unwindfunclet$?Identify@TiXmlNode@@IAEPAV1@PBDW4TiXmlEncoding@@@Z$2 004480a0 f   tinyxml:tinyxmlparser.obj
 0001:000470af       __unwindfunclet$?Identify@TiXmlNode@@IAEPAV1@PBDW4TiXmlEncoding@@@Z$4 004480af f   tinyxml:tinyxmlparser.obj
